
teavpn:     file format elf64-x86-64


Disassembly of section .init:

0000000000001588 <_init>:
    1588:	48 83 ec 08          	sub    $0x8,%rsp
    158c:	48 8b 05 4d 7a 20 00 	mov    0x207a4d(%rip),%rax        # 208fe0 <__gmon_start__>
    1593:	48 85 c0             	test   %rax,%rax
    1596:	74 02                	je     159a <_init+0x12>
    1598:	ff d0                	callq  *%rax
    159a:	48 83 c4 08          	add    $0x8,%rsp
    159e:	c3                   	retq   

Disassembly of section .plt:

00000000000015a0 <.plt>:
    15a0:	ff 35 62 7a 20 00    	pushq  0x207a62(%rip)        # 209008 <_GLOBAL_OFFSET_TABLE_+0x8>
    15a6:	ff 25 64 7a 20 00    	jmpq   *0x207a64(%rip)        # 209010 <_GLOBAL_OFFSET_TABLE_+0x10>
    15ac:	0f 1f 40 00          	nopl   0x0(%rax)

00000000000015b0 <free@plt>:
    15b0:	ff 25 62 7a 20 00    	jmpq   *0x207a62(%rip)        # 209018 <free@GLIBC_2.2.5>
    15b6:	68 00 00 00 00       	pushq  $0x0
    15bb:	e9 e0 ff ff ff       	jmpq   15a0 <.plt>

00000000000015c0 <pthread_create@plt>:
    15c0:	ff 25 5a 7a 20 00    	jmpq   *0x207a5a(%rip)        # 209020 <pthread_create@GLIBC_2.2.5>
    15c6:	68 01 00 00 00       	pushq  $0x1
    15cb:	e9 d0 ff ff ff       	jmpq   15a0 <.plt>

00000000000015d0 <pthread_detach@plt>:
    15d0:	ff 25 52 7a 20 00    	jmpq   *0x207a52(%rip)        # 209028 <pthread_detach@GLIBC_2.2.5>
    15d6:	68 02 00 00 00       	pushq  $0x2
    15db:	e9 c0 ff ff ff       	jmpq   15a0 <.plt>

00000000000015e0 <__errno_location@plt>:
    15e0:	ff 25 4a 7a 20 00    	jmpq   *0x207a4a(%rip)        # 209030 <__errno_location@GLIBC_2.2.5>
    15e6:	68 03 00 00 00       	pushq  $0x3
    15eb:	e9 b0 ff ff ff       	jmpq   15a0 <.plt>

00000000000015f0 <strncpy@plt>:
    15f0:	ff 25 42 7a 20 00    	jmpq   *0x207a42(%rip)        # 209038 <strncpy@GLIBC_2.2.5>
    15f6:	68 04 00 00 00       	pushq  $0x4
    15fb:	e9 a0 ff ff ff       	jmpq   15a0 <.plt>

0000000000001600 <strcpy@plt>:
    1600:	ff 25 3a 7a 20 00    	jmpq   *0x207a3a(%rip)        # 209040 <strcpy@GLIBC_2.2.5>
    1606:	68 05 00 00 00       	pushq  $0x5
    160b:	e9 90 ff ff ff       	jmpq   15a0 <.plt>

0000000000001610 <pthread_cond_broadcast@plt>:
    1610:	ff 25 32 7a 20 00    	jmpq   *0x207a32(%rip)        # 209048 <pthread_cond_broadcast@GLIBC_2.3.2>
    1616:	68 06 00 00 00       	pushq  $0x6
    161b:	e9 80 ff ff ff       	jmpq   15a0 <.plt>

0000000000001620 <puts@plt>:
    1620:	ff 25 2a 7a 20 00    	jmpq   *0x207a2a(%rip)        # 209050 <puts@GLIBC_2.2.5>
    1626:	68 07 00 00 00       	pushq  $0x7
    162b:	e9 70 ff ff ff       	jmpq   15a0 <.plt>

0000000000001630 <sigaction@plt>:
    1630:	ff 25 22 7a 20 00    	jmpq   *0x207a22(%rip)        # 209058 <sigaction@GLIBC_2.2.5>
    1636:	68 08 00 00 00       	pushq  $0x8
    163b:	e9 60 ff ff ff       	jmpq   15a0 <.plt>

0000000000001640 <setsockopt@plt>:
    1640:	ff 25 1a 7a 20 00    	jmpq   *0x207a1a(%rip)        # 209060 <setsockopt@GLIBC_2.2.5>
    1646:	68 09 00 00 00       	pushq  $0x9
    164b:	e9 50 ff ff ff       	jmpq   15a0 <.plt>

0000000000001650 <write@plt>:
    1650:	ff 25 12 7a 20 00    	jmpq   *0x207a12(%rip)        # 209068 <write@GLIBC_2.2.5>
    1656:	68 0a 00 00 00       	pushq  $0xa
    165b:	e9 40 ff ff ff       	jmpq   15a0 <.plt>

0000000000001660 <pthread_kill@plt>:
    1660:	ff 25 0a 7a 20 00    	jmpq   *0x207a0a(%rip)        # 209070 <pthread_kill@GLIBC_2.2.5>
    1666:	68 0b 00 00 00       	pushq  $0xb
    166b:	e9 30 ff ff ff       	jmpq   15a0 <.plt>

0000000000001670 <inet_ntoa@plt>:
    1670:	ff 25 02 7a 20 00    	jmpq   *0x207a02(%rip)        # 209078 <inet_ntoa@GLIBC_2.2.5>
    1676:	68 0c 00 00 00       	pushq  $0xc
    167b:	e9 20 ff ff ff       	jmpq   15a0 <.plt>

0000000000001680 <pthread_cond_wait@plt>:
    1680:	ff 25 fa 79 20 00    	jmpq   *0x2079fa(%rip)        # 209080 <pthread_cond_wait@GLIBC_2.3.2>
    1686:	68 0d 00 00 00       	pushq  $0xd
    168b:	e9 10 ff ff ff       	jmpq   15a0 <.plt>

0000000000001690 <fclose@plt>:
    1690:	ff 25 f2 79 20 00    	jmpq   *0x2079f2(%rip)        # 209088 <fclose@GLIBC_2.2.5>
    1696:	68 0e 00 00 00       	pushq  $0xe
    169b:	e9 00 ff ff ff       	jmpq   15a0 <.plt>

00000000000016a0 <strlen@plt>:
    16a0:	ff 25 ea 79 20 00    	jmpq   *0x2079ea(%rip)        # 209090 <strlen@GLIBC_2.2.5>
    16a6:	68 0f 00 00 00       	pushq  $0xf
    16ab:	e9 f0 fe ff ff       	jmpq   15a0 <.plt>

00000000000016b0 <__stack_chk_fail@plt>:
    16b0:	ff 25 e2 79 20 00    	jmpq   *0x2079e2(%rip)        # 209098 <__stack_chk_fail@GLIBC_2.4>
    16b6:	68 10 00 00 00       	pushq  $0x10
    16bb:	e9 e0 fe ff ff       	jmpq   15a0 <.plt>

00000000000016c0 <getopt_long@plt>:
    16c0:	ff 25 da 79 20 00    	jmpq   *0x2079da(%rip)        # 2090a0 <getopt_long@GLIBC_2.2.5>
    16c6:	68 11 00 00 00       	pushq  $0x11
    16cb:	e9 d0 fe ff ff       	jmpq   15a0 <.plt>

00000000000016d0 <system@plt>:
    16d0:	ff 25 d2 79 20 00    	jmpq   *0x2079d2(%rip)        # 2090a8 <system@GLIBC_2.2.5>
    16d6:	68 12 00 00 00       	pushq  $0x12
    16db:	e9 c0 fe ff ff       	jmpq   15a0 <.plt>

00000000000016e0 <htons@plt>:
    16e0:	ff 25 ca 79 20 00    	jmpq   *0x2079ca(%rip)        # 2090b0 <htons@GLIBC_2.2.5>
    16e6:	68 13 00 00 00       	pushq  $0x13
    16eb:	e9 b0 fe ff ff       	jmpq   15a0 <.plt>

00000000000016f0 <printf@plt>:
    16f0:	ff 25 c2 79 20 00    	jmpq   *0x2079c2(%rip)        # 2090b8 <printf@GLIBC_2.2.5>
    16f6:	68 14 00 00 00       	pushq  $0x14
    16fb:	e9 a0 fe ff ff       	jmpq   15a0 <.plt>

0000000000001700 <difftime@plt>:
    1700:	ff 25 ba 79 20 00    	jmpq   *0x2079ba(%rip)        # 2090c0 <difftime@GLIBC_2.2.5>
    1706:	68 15 00 00 00       	pushq  $0x15
    170b:	e9 90 fe ff ff       	jmpq   15a0 <.plt>

0000000000001710 <memset@plt>:
    1710:	ff 25 b2 79 20 00    	jmpq   *0x2079b2(%rip)        # 2090c8 <memset@GLIBC_2.2.5>
    1716:	68 16 00 00 00       	pushq  $0x16
    171b:	e9 80 fe ff ff       	jmpq   15a0 <.plt>

0000000000001720 <ioctl@plt>:
    1720:	ff 25 aa 79 20 00    	jmpq   *0x2079aa(%rip)        # 2090d0 <ioctl@GLIBC_2.2.5>
    1726:	68 17 00 00 00       	pushq  $0x17
    172b:	e9 70 fe ff ff       	jmpq   15a0 <.plt>

0000000000001730 <sendto@plt>:
    1730:	ff 25 a2 79 20 00    	jmpq   *0x2079a2(%rip)        # 2090d8 <sendto@GLIBC_2.2.5>
    1736:	68 18 00 00 00       	pushq  $0x18
    173b:	e9 60 fe ff ff       	jmpq   15a0 <.plt>

0000000000001740 <close@plt>:
    1740:	ff 25 9a 79 20 00    	jmpq   *0x20799a(%rip)        # 2090e0 <close@GLIBC_2.2.5>
    1746:	68 19 00 00 00       	pushq  $0x19
    174b:	e9 50 fe ff ff       	jmpq   15a0 <.plt>

0000000000001750 <read@plt>:
    1750:	ff 25 92 79 20 00    	jmpq   *0x207992(%rip)        # 2090e8 <read@GLIBC_2.2.5>
    1756:	68 1a 00 00 00       	pushq  $0x1a
    175b:	e9 40 fe ff ff       	jmpq   15a0 <.plt>

0000000000001760 <fgets@plt>:
    1760:	ff 25 8a 79 20 00    	jmpq   *0x20798a(%rip)        # 2090f0 <fgets@GLIBC_2.2.5>
    1766:	68 1b 00 00 00       	pushq  $0x1b
    176b:	e9 30 fe ff ff       	jmpq   15a0 <.plt>

0000000000001770 <pthread_cond_signal@plt>:
    1770:	ff 25 82 79 20 00    	jmpq   *0x207982(%rip)        # 2090f8 <pthread_cond_signal@GLIBC_2.3.2>
    1776:	68 1c 00 00 00       	pushq  $0x1c
    177b:	e9 20 fe ff ff       	jmpq   15a0 <.plt>

0000000000001780 <inet_addr@plt>:
    1780:	ff 25 7a 79 20 00    	jmpq   *0x20797a(%rip)        # 209100 <inet_addr@GLIBC_2.2.5>
    1786:	68 1d 00 00 00       	pushq  $0x1d
    178b:	e9 10 fe ff ff       	jmpq   15a0 <.plt>

0000000000001790 <strcmp@plt>:
    1790:	ff 25 72 79 20 00    	jmpq   *0x207972(%rip)        # 209108 <strcmp@GLIBC_2.2.5>
    1796:	68 1e 00 00 00       	pushq  $0x1e
    179b:	e9 00 fe ff ff       	jmpq   15a0 <.plt>

00000000000017a0 <signal@plt>:
    17a0:	ff 25 6a 79 20 00    	jmpq   *0x20796a(%rip)        # 209110 <signal@GLIBC_2.2.5>
    17a6:	68 1f 00 00 00       	pushq  $0x1f
    17ab:	e9 f0 fd ff ff       	jmpq   15a0 <.plt>

00000000000017b0 <sigemptyset@plt>:
    17b0:	ff 25 62 79 20 00    	jmpq   *0x207962(%rip)        # 209118 <sigemptyset@GLIBC_2.2.5>
    17b6:	68 20 00 00 00       	pushq  $0x20
    17bb:	e9 e0 fd ff ff       	jmpq   15a0 <.plt>

00000000000017c0 <memcpy@plt>:
    17c0:	ff 25 5a 79 20 00    	jmpq   *0x20795a(%rip)        # 209120 <memcpy@GLIBC_2.14>
    17c6:	68 21 00 00 00       	pushq  $0x21
    17cb:	e9 d0 fd ff ff       	jmpq   15a0 <.plt>

00000000000017d0 <prctl@plt>:
    17d0:	ff 25 52 79 20 00    	jmpq   *0x207952(%rip)        # 209128 <prctl@GLIBC_2.2.5>
    17d6:	68 22 00 00 00       	pushq  $0x22
    17db:	e9 c0 fd ff ff       	jmpq   15a0 <.plt>

00000000000017e0 <time@plt>:
    17e0:	ff 25 4a 79 20 00    	jmpq   *0x20794a(%rip)        # 209130 <time@GLIBC_2.2.5>
    17e6:	68 23 00 00 00       	pushq  $0x23
    17eb:	e9 b0 fd ff ff       	jmpq   15a0 <.plt>

00000000000017f0 <select@plt>:
    17f0:	ff 25 42 79 20 00    	jmpq   *0x207942(%rip)        # 209138 <select@GLIBC_2.2.5>
    17f6:	68 24 00 00 00       	pushq  $0x24
    17fb:	e9 a0 fd ff ff       	jmpq   15a0 <.plt>

0000000000001800 <pthread_cond_init@plt>:
    1800:	ff 25 3a 79 20 00    	jmpq   *0x20793a(%rip)        # 209140 <pthread_cond_init@GLIBC_2.3.2>
    1806:	68 25 00 00 00       	pushq  $0x25
    180b:	e9 90 fd ff ff       	jmpq   15a0 <.plt>

0000000000001810 <pthread_mutex_unlock@plt>:
    1810:	ff 25 32 79 20 00    	jmpq   *0x207932(%rip)        # 209148 <pthread_mutex_unlock@GLIBC_2.2.5>
    1816:	68 26 00 00 00       	pushq  $0x26
    181b:	e9 80 fd ff ff       	jmpq   15a0 <.plt>

0000000000001820 <malloc@plt>:
    1820:	ff 25 2a 79 20 00    	jmpq   *0x20792a(%rip)        # 209150 <malloc@GLIBC_2.2.5>
    1826:	68 27 00 00 00       	pushq  $0x27
    182b:	e9 70 fd ff ff       	jmpq   15a0 <.plt>

0000000000001830 <fflush@plt>:
    1830:	ff 25 22 79 20 00    	jmpq   *0x207922(%rip)        # 209158 <fflush@GLIBC_2.2.5>
    1836:	68 28 00 00 00       	pushq  $0x28
    183b:	e9 60 fd ff ff       	jmpq   15a0 <.plt>

0000000000001840 <listen@plt>:
    1840:	ff 25 1a 79 20 00    	jmpq   *0x20791a(%rip)        # 209160 <listen@GLIBC_2.2.5>
    1846:	68 29 00 00 00       	pushq  $0x29
    184b:	e9 50 fd ff ff       	jmpq   15a0 <.plt>

0000000000001850 <recvfrom@plt>:
    1850:	ff 25 12 79 20 00    	jmpq   *0x207912(%rip)        # 209168 <recvfrom@GLIBC_2.2.5>
    1856:	68 2a 00 00 00       	pushq  $0x2a
    185b:	e9 40 fd ff ff       	jmpq   15a0 <.plt>

0000000000001860 <ntohs@plt>:
    1860:	ff 25 0a 79 20 00    	jmpq   *0x20790a(%rip)        # 209170 <ntohs@GLIBC_2.2.5>
    1866:	68 2b 00 00 00       	pushq  $0x2b
    186b:	e9 30 fd ff ff       	jmpq   15a0 <.plt>

0000000000001870 <bind@plt>:
    1870:	ff 25 02 79 20 00    	jmpq   *0x207902(%rip)        # 209178 <bind@GLIBC_2.2.5>
    1876:	68 2c 00 00 00       	pushq  $0x2c
    187b:	e9 20 fd ff ff       	jmpq   15a0 <.plt>

0000000000001880 <open@plt>:
    1880:	ff 25 fa 78 20 00    	jmpq   *0x2078fa(%rip)        # 209180 <open@GLIBC_2.2.5>
    1886:	68 2d 00 00 00       	pushq  $0x2d
    188b:	e9 10 fd ff ff       	jmpq   15a0 <.plt>

0000000000001890 <fopen@plt>:
    1890:	ff 25 f2 78 20 00    	jmpq   *0x2078f2(%rip)        # 209188 <fopen@GLIBC_2.2.5>
    1896:	68 2e 00 00 00       	pushq  $0x2e
    189b:	e9 00 fd ff ff       	jmpq   15a0 <.plt>

00000000000018a0 <perror@plt>:
    18a0:	ff 25 ea 78 20 00    	jmpq   *0x2078ea(%rip)        # 209190 <perror@GLIBC_2.2.5>
    18a6:	68 2f 00 00 00       	pushq  $0x2f
    18ab:	e9 f0 fc ff ff       	jmpq   15a0 <.plt>

00000000000018b0 <vfprintf@plt>:
    18b0:	ff 25 e2 78 20 00    	jmpq   *0x2078e2(%rip)        # 209198 <vfprintf@GLIBC_2.2.5>
    18b6:	68 30 00 00 00       	pushq  $0x30
    18bb:	e9 e0 fc ff ff       	jmpq   15a0 <.plt>

00000000000018c0 <accept@plt>:
    18c0:	ff 25 da 78 20 00    	jmpq   *0x2078da(%rip)        # 2091a0 <accept@GLIBC_2.2.5>
    18c6:	68 31 00 00 00       	pushq  $0x31
    18cb:	e9 d0 fc ff ff       	jmpq   15a0 <.plt>

00000000000018d0 <atoi@plt>:
    18d0:	ff 25 d2 78 20 00    	jmpq   *0x2078d2(%rip)        # 2091a8 <atoi@GLIBC_2.2.5>
    18d6:	68 32 00 00 00       	pushq  $0x32
    18db:	e9 c0 fc ff ff       	jmpq   15a0 <.plt>

00000000000018e0 <sprintf@plt>:
    18e0:	ff 25 ca 78 20 00    	jmpq   *0x2078ca(%rip)        # 2091b0 <sprintf@GLIBC_2.2.5>
    18e6:	68 33 00 00 00       	pushq  $0x33
    18eb:	e9 b0 fc ff ff       	jmpq   15a0 <.plt>

00000000000018f0 <exit@plt>:
    18f0:	ff 25 c2 78 20 00    	jmpq   *0x2078c2(%rip)        # 2091b8 <exit@GLIBC_2.2.5>
    18f6:	68 34 00 00 00       	pushq  $0x34
    18fb:	e9 a0 fc ff ff       	jmpq   15a0 <.plt>

0000000000001900 <connect@plt>:
    1900:	ff 25 ba 78 20 00    	jmpq   *0x2078ba(%rip)        # 2091c0 <connect@GLIBC_2.2.5>
    1906:	68 35 00 00 00       	pushq  $0x35
    190b:	e9 90 fc ff ff       	jmpq   15a0 <.plt>

0000000000001910 <fwrite@plt>:
    1910:	ff 25 b2 78 20 00    	jmpq   *0x2078b2(%rip)        # 2091c8 <fwrite@GLIBC_2.2.5>
    1916:	68 36 00 00 00       	pushq  $0x36
    191b:	e9 80 fc ff ff       	jmpq   15a0 <.plt>

0000000000001920 <sleep@plt>:
    1920:	ff 25 aa 78 20 00    	jmpq   *0x2078aa(%rip)        # 2091d0 <sleep@GLIBC_2.2.5>
    1926:	68 37 00 00 00       	pushq  $0x37
    192b:	e9 70 fc ff ff       	jmpq   15a0 <.plt>

0000000000001930 <pthread_mutex_init@plt>:
    1930:	ff 25 a2 78 20 00    	jmpq   *0x2078a2(%rip)        # 2091d8 <pthread_mutex_init@GLIBC_2.2.5>
    1936:	68 38 00 00 00       	pushq  $0x38
    193b:	e9 60 fc ff ff       	jmpq   15a0 <.plt>

0000000000001940 <pthread_mutex_lock@plt>:
    1940:	ff 25 9a 78 20 00    	jmpq   *0x20789a(%rip)        # 2091e0 <pthread_mutex_lock@GLIBC_2.2.5>
    1946:	68 39 00 00 00       	pushq  $0x39
    194b:	e9 50 fc ff ff       	jmpq   15a0 <.plt>

0000000000001950 <socket@plt>:
    1950:	ff 25 92 78 20 00    	jmpq   *0x207892(%rip)        # 2091e8 <socket@GLIBC_2.2.5>
    1956:	68 3a 00 00 00       	pushq  $0x3a
    195b:	e9 40 fc ff ff       	jmpq   15a0 <.plt>

Disassembly of section .plt.got:

0000000000001960 <__cxa_finalize@plt>:
    1960:	ff 25 8a 76 20 00    	jmpq   *0x20768a(%rip)        # 208ff0 <__cxa_finalize@GLIBC_2.2.5>
    1966:	66 90                	xchg   %ax,%ax

Disassembly of section .text:

0000000000001970 <_start>:
    1970:	31 ed                	xor    %ebp,%ebp
    1972:	49 89 d1             	mov    %rdx,%r9
    1975:	5e                   	pop    %rsi
    1976:	48 89 e2             	mov    %rsp,%rdx
    1979:	48 83 e4 f0          	and    $0xfffffffffffffff0,%rsp
    197d:	50                   	push   %rax
    197e:	54                   	push   %rsp
    197f:	4c 8d 05 5a 49 00 00 	lea    0x495a(%rip),%r8        # 62e0 <__libc_csu_fini>
    1986:	48 8d 0d e3 48 00 00 	lea    0x48e3(%rip),%rcx        # 6270 <__libc_csu_init>
    198d:	48 8d 3d a5 0e 00 00 	lea    0xea5(%rip),%rdi        # 2839 <main>
    1994:	ff 15 3e 76 20 00    	callq  *0x20763e(%rip)        # 208fd8 <__libc_start_main@GLIBC_2.2.5>
    199a:	f4                   	hlt    
    199b:	0f 1f 44 00 00       	nopl   0x0(%rax,%rax,1)

00000000000019a0 <deregister_tm_clones>:
    19a0:	48 8d 3d a1 78 20 00 	lea    0x2078a1(%rip),%rdi        # 209248 <__TMC_END__>
    19a7:	48 8d 05 9a 78 20 00 	lea    0x20789a(%rip),%rax        # 209248 <__TMC_END__>
    19ae:	48 39 f8             	cmp    %rdi,%rax
    19b1:	74 15                	je     19c8 <deregister_tm_clones+0x28>
    19b3:	48 8b 05 16 76 20 00 	mov    0x207616(%rip),%rax        # 208fd0 <_ITM_deregisterTMCloneTable>
    19ba:	48 85 c0             	test   %rax,%rax
    19bd:	74 09                	je     19c8 <deregister_tm_clones+0x28>
    19bf:	ff e0                	jmpq   *%rax
    19c1:	0f 1f 80 00 00 00 00 	nopl   0x0(%rax)
    19c8:	c3                   	retq   
    19c9:	0f 1f 80 00 00 00 00 	nopl   0x0(%rax)

00000000000019d0 <register_tm_clones>:
    19d0:	48 8d 3d 71 78 20 00 	lea    0x207871(%rip),%rdi        # 209248 <__TMC_END__>
    19d7:	48 8d 35 6a 78 20 00 	lea    0x20786a(%rip),%rsi        # 209248 <__TMC_END__>
    19de:	48 29 fe             	sub    %rdi,%rsi
    19e1:	48 89 f0             	mov    %rsi,%rax
    19e4:	48 c1 ee 3f          	shr    $0x3f,%rsi
    19e8:	48 c1 f8 03          	sar    $0x3,%rax
    19ec:	48 01 c6             	add    %rax,%rsi
    19ef:	48 d1 fe             	sar    %rsi
    19f2:	74 14                	je     1a08 <register_tm_clones+0x38>
    19f4:	48 8b 05 ed 75 20 00 	mov    0x2075ed(%rip),%rax        # 208fe8 <_ITM_registerTMCloneTable>
    19fb:	48 85 c0             	test   %rax,%rax
    19fe:	74 08                	je     1a08 <register_tm_clones+0x38>
    1a00:	ff e0                	jmpq   *%rax
    1a02:	66 0f 1f 44 00 00    	nopw   0x0(%rax,%rax,1)
    1a08:	c3                   	retq   
    1a09:	0f 1f 80 00 00 00 00 	nopl   0x0(%rax)

0000000000001a10 <__do_global_dtors_aux>:
    1a10:	80 3d 71 78 20 00 00 	cmpb   $0x0,0x207871(%rip)        # 209288 <completed.7409>
    1a17:	75 2f                	jne    1a48 <__do_global_dtors_aux+0x38>
    1a19:	55                   	push   %rbp
    1a1a:	48 83 3d ce 75 20 00 	cmpq   $0x0,0x2075ce(%rip)        # 208ff0 <__cxa_finalize@GLIBC_2.2.5>
    1a21:	00 
    1a22:	48 89 e5             	mov    %rsp,%rbp
    1a25:	74 0c                	je     1a33 <__do_global_dtors_aux+0x23>
    1a27:	48 8b 3d ca 77 20 00 	mov    0x2077ca(%rip),%rdi        # 2091f8 <__dso_handle>
    1a2e:	e8 2d ff ff ff       	callq  1960 <__cxa_finalize@plt>
    1a33:	e8 68 ff ff ff       	callq  19a0 <deregister_tm_clones>
    1a38:	c6 05 49 78 20 00 01 	movb   $0x1,0x207849(%rip)        # 209288 <completed.7409>
    1a3f:	5d                   	pop    %rbp
    1a40:	c3                   	retq   
    1a41:	0f 1f 80 00 00 00 00 	nopl   0x0(%rax)
    1a48:	c3                   	retq   
    1a49:	0f 1f 80 00 00 00 00 	nopl   0x0(%rax)

0000000000001a50 <frame_dummy>:
    1a50:	e9 7b ff ff ff       	jmpq   19d0 <register_tm_clones>

0000000000001a55 <thpool_init>:
    1a55:	55                   	push   %rbp
    1a56:	48 89 e5             	mov    %rsp,%rbp
    1a59:	48 83 ec 20          	sub    $0x20,%rsp
    1a5d:	89 7d ec             	mov    %edi,-0x14(%rbp)
    1a60:	c7 05 26 78 20 00 00 	movl   $0x0,0x207826(%rip)        # 209290 <_ZL15threads_on_hold>
    1a67:	00 00 00 
    1a6a:	c7 05 18 78 20 00 01 	movl   $0x1,0x207818(%rip)        # 20928c <_ZL17threads_keepalive>
    1a71:	00 00 00 
    1a74:	83 7d ec 00          	cmpl   $0x0,-0x14(%rbp)
    1a78:	79 07                	jns    1a81 <thpool_init+0x2c>
    1a7a:	c7 45 ec 00 00 00 00 	movl   $0x0,-0x14(%rbp)
    1a81:	bf b0 00 00 00       	mov    $0xb0,%edi
    1a86:	e8 95 fd ff ff       	callq  1820 <malloc@plt>
    1a8b:	48 89 45 f8          	mov    %rax,-0x8(%rbp)
    1a8f:	48 83 7d f8 00       	cmpq   $0x0,-0x8(%rbp)
    1a94:	75 2a                	jne    1ac0 <thpool_init+0x6b>
    1a96:	48 8b 05 e3 77 20 00 	mov    0x2077e3(%rip),%rax        # 209280 <stderr@@GLIBC_2.2.5>
    1a9d:	48 89 c1             	mov    %rax,%rcx
    1aa0:	ba 39 00 00 00       	mov    $0x39,%edx
    1aa5:	be 01 00 00 00       	mov    $0x1,%esi
    1aaa:	48 8d 3d 47 48 00 00 	lea    0x4847(%rip),%rdi        # 62f8 <_IO_stdin_used+0x8>
    1ab1:	e8 5a fe ff ff       	callq  1910 <fwrite@plt>
    1ab6:	b8 00 00 00 00       	mov    $0x0,%eax
    1abb:	e9 4d 01 00 00       	jmpq   1c0d <thpool_init+0x1b8>
    1ac0:	48 8b 45 f8          	mov    -0x8(%rbp),%rax
    1ac4:	c7 40 08 00 00 00 00 	movl   $0x0,0x8(%rax)
    1acb:	48 8b 45 f8          	mov    -0x8(%rbp),%rax
    1acf:	c7 40 0c 00 00 00 00 	movl   $0x0,0xc(%rax)
    1ad6:	48 8b 45 f8          	mov    -0x8(%rbp),%rax
    1ada:	48 83 c0 68          	add    $0x68,%rax
    1ade:	48 89 c7             	mov    %rax,%rdi
    1ae1:	e8 49 08 00 00       	callq  232f <_ZL13jobqueue_initP8jobqueue>
    1ae6:	83 f8 ff             	cmp    $0xffffffff,%eax
    1ae9:	0f 94 c0             	sete   %al
    1aec:	84 c0                	test   %al,%al
    1aee:	74 36                	je     1b26 <thpool_init+0xd1>
    1af0:	48 8b 05 89 77 20 00 	mov    0x207789(%rip),%rax        # 209280 <stderr@@GLIBC_2.2.5>
    1af7:	48 89 c1             	mov    %rax,%rcx
    1afa:	ba 37 00 00 00       	mov    $0x37,%edx
    1aff:	be 01 00 00 00       	mov    $0x1,%esi
    1b04:	48 8d 3d 2d 48 00 00 	lea    0x482d(%rip),%rdi        # 6338 <_IO_stdin_used+0x48>
    1b0b:	e8 00 fe ff ff       	callq  1910 <fwrite@plt>
    1b10:	48 8b 45 f8          	mov    -0x8(%rbp),%rax
    1b14:	48 89 c7             	mov    %rax,%rdi
    1b17:	e8 94 fa ff ff       	callq  15b0 <free@plt>
    1b1c:	b8 00 00 00 00       	mov    $0x0,%eax
    1b21:	e9 e7 00 00 00       	jmpq   1c0d <thpool_init+0x1b8>
    1b26:	8b 45 ec             	mov    -0x14(%rbp),%eax
    1b29:	48 98                	cltq   
    1b2b:	48 c1 e0 03          	shl    $0x3,%rax
    1b2f:	48 89 c7             	mov    %rax,%rdi
    1b32:	e8 e9 fc ff ff       	callq  1820 <malloc@plt>
    1b37:	48 89 c2             	mov    %rax,%rdx
    1b3a:	48 8b 45 f8          	mov    -0x8(%rbp),%rax
    1b3e:	48 89 10             	mov    %rdx,(%rax)
    1b41:	48 8b 45 f8          	mov    -0x8(%rbp),%rax
    1b45:	48 8b 00             	mov    (%rax),%rax
    1b48:	48 85 c0             	test   %rax,%rax
    1b4b:	75 43                	jne    1b90 <thpool_init+0x13b>
    1b4d:	48 8b 05 2c 77 20 00 	mov    0x20772c(%rip),%rax        # 209280 <stderr@@GLIBC_2.2.5>
    1b54:	48 89 c1             	mov    %rax,%rcx
    1b57:	ba 35 00 00 00       	mov    $0x35,%edx
    1b5c:	be 01 00 00 00       	mov    $0x1,%esi
    1b61:	48 8d 3d 08 48 00 00 	lea    0x4808(%rip),%rdi        # 6370 <_IO_stdin_used+0x80>
    1b68:	e8 a3 fd ff ff       	callq  1910 <fwrite@plt>
    1b6d:	48 8b 45 f8          	mov    -0x8(%rbp),%rax
    1b71:	48 83 c0 68          	add    $0x68,%rax
    1b75:	48 89 c7             	mov    %rax,%rdi
    1b78:	e8 cf 09 00 00       	callq  254c <_ZL16jobqueue_destroyP8jobqueue>
    1b7d:	48 8b 45 f8          	mov    -0x8(%rbp),%rax
    1b81:	48 89 c7             	mov    %rax,%rdi
    1b84:	e8 27 fa ff ff       	callq  15b0 <free@plt>
    1b89:	b8 00 00 00 00       	mov    $0x0,%eax
    1b8e:	eb 7d                	jmp    1c0d <thpool_init+0x1b8>
    1b90:	48 8b 45 f8          	mov    -0x8(%rbp),%rax
    1b94:	48 83 c0 10          	add    $0x10,%rax
    1b98:	be 00 00 00 00       	mov    $0x0,%esi
    1b9d:	48 89 c7             	mov    %rax,%rdi
    1ba0:	e8 8b fd ff ff       	callq  1930 <pthread_mutex_init@plt>
    1ba5:	48 8b 45 f8          	mov    -0x8(%rbp),%rax
    1ba9:	48 83 c0 38          	add    $0x38,%rax
    1bad:	be 00 00 00 00       	mov    $0x0,%esi
    1bb2:	48 89 c7             	mov    %rax,%rdi
    1bb5:	e8 46 fc ff ff       	callq  1800 <pthread_cond_init@plt>
    1bba:	c7 45 f4 00 00 00 00 	movl   $0x0,-0xc(%rbp)
    1bc1:	8b 45 f4             	mov    -0xc(%rbp),%eax
    1bc4:	3b 45 ec             	cmp    -0x14(%rbp),%eax
    1bc7:	7d 2d                	jge    1bf6 <thpool_init+0x1a1>
    1bc9:	48 8b 45 f8          	mov    -0x8(%rbp),%rax
    1bcd:	48 8b 00             	mov    (%rax),%rax
    1bd0:	8b 55 f4             	mov    -0xc(%rbp),%edx
    1bd3:	48 63 d2             	movslq %edx,%rdx
    1bd6:	48 c1 e2 03          	shl    $0x3,%rdx
    1bda:	48 8d 0c 10          	lea    (%rax,%rdx,1),%rcx
    1bde:	8b 55 f4             	mov    -0xc(%rbp),%edx
    1be1:	48 8b 45 f8          	mov    -0x8(%rbp),%rax
    1be5:	48 89 ce             	mov    %rcx,%rsi
    1be8:	48 89 c7             	mov    %rax,%rdi
    1beb:	e8 01 03 00 00       	callq  1ef1 <_ZL11thread_initP7thpool_PP6threadi>
    1bf0:	83 45 f4 01          	addl   $0x1,-0xc(%rbp)
    1bf4:	eb cb                	jmp    1bc1 <thpool_init+0x16c>
    1bf6:	48 8b 45 f8          	mov    -0x8(%rbp),%rax
    1bfa:	8b 40 08             	mov    0x8(%rax),%eax
    1bfd:	39 45 ec             	cmp    %eax,-0x14(%rbp)
    1c00:	0f 95 c0             	setne  %al
    1c03:	84 c0                	test   %al,%al
    1c05:	74 02                	je     1c09 <thpool_init+0x1b4>
    1c07:	eb ed                	jmp    1bf6 <thpool_init+0x1a1>
    1c09:	48 8b 45 f8          	mov    -0x8(%rbp),%rax
    1c0d:	c9                   	leaveq 
    1c0e:	c3                   	retq   

0000000000001c0f <thpool_add_work>:
    1c0f:	55                   	push   %rbp
    1c10:	48 89 e5             	mov    %rsp,%rbp
    1c13:	48 83 ec 30          	sub    $0x30,%rsp
    1c17:	48 89 7d e8          	mov    %rdi,-0x18(%rbp)
    1c1b:	48 89 75 e0          	mov    %rsi,-0x20(%rbp)
    1c1f:	48 89 55 d8          	mov    %rdx,-0x28(%rbp)
    1c23:	bf 18 00 00 00       	mov    $0x18,%edi
    1c28:	e8 f3 fb ff ff       	callq  1820 <malloc@plt>
    1c2d:	48 89 45 f8          	mov    %rax,-0x8(%rbp)
    1c31:	48 83 7d f8 00       	cmpq   $0x0,-0x8(%rbp)
    1c36:	75 27                	jne    1c5f <thpool_add_work+0x50>
    1c38:	48 8b 05 41 76 20 00 	mov    0x207641(%rip),%rax        # 209280 <stderr@@GLIBC_2.2.5>
    1c3f:	48 89 c1             	mov    %rax,%rcx
    1c42:	ba 39 00 00 00       	mov    $0x39,%edx
    1c47:	be 01 00 00 00       	mov    $0x1,%esi
    1c4c:	48 8d 3d 55 47 00 00 	lea    0x4755(%rip),%rdi        # 63a8 <_IO_stdin_used+0xb8>
    1c53:	e8 b8 fc ff ff       	callq  1910 <fwrite@plt>
    1c58:	b8 ff ff ff ff       	mov    $0xffffffff,%eax
    1c5d:	eb 34                	jmp    1c93 <thpool_add_work+0x84>
    1c5f:	48 8b 45 f8          	mov    -0x8(%rbp),%rax
    1c63:	48 8b 55 e0          	mov    -0x20(%rbp),%rdx
    1c67:	48 89 50 08          	mov    %rdx,0x8(%rax)
    1c6b:	48 8b 45 f8          	mov    -0x8(%rbp),%rax
    1c6f:	48 8b 55 d8          	mov    -0x28(%rbp),%rdx
    1c73:	48 89 50 10          	mov    %rdx,0x10(%rax)
    1c77:	48 8b 45 e8          	mov    -0x18(%rbp),%rax
    1c7b:	48 8d 50 68          	lea    0x68(%rax),%rdx
    1c7f:	48 8b 45 f8          	mov    -0x8(%rbp),%rax
    1c83:	48 89 c6             	mov    %rax,%rsi
    1c86:	48 89 d7             	mov    %rdx,%rdi
    1c89:	e8 89 07 00 00       	callq  2417 <_ZL13jobqueue_pushP8jobqueueP3job>
    1c8e:	b8 00 00 00 00       	mov    $0x0,%eax
    1c93:	c9                   	leaveq 
    1c94:	c3                   	retq   

0000000000001c95 <thpool_wait>:
    1c95:	55                   	push   %rbp
    1c96:	48 89 e5             	mov    %rsp,%rbp
    1c99:	48 83 ec 10          	sub    $0x10,%rsp
    1c9d:	48 89 7d f8          	mov    %rdi,-0x8(%rbp)
    1ca1:	48 8b 45 f8          	mov    -0x8(%rbp),%rax
    1ca5:	48 83 c0 10          	add    $0x10,%rax
    1ca9:	48 89 c7             	mov    %rax,%rdi
    1cac:	e8 8f fc ff ff       	callq  1940 <pthread_mutex_lock@plt>
    1cb1:	48 8b 45 f8          	mov    -0x8(%rbp),%rax
    1cb5:	8b 80 a8 00 00 00    	mov    0xa8(%rax),%eax
    1cbb:	85 c0                	test   %eax,%eax
    1cbd:	75 0b                	jne    1cca <thpool_wait+0x35>
    1cbf:	48 8b 45 f8          	mov    -0x8(%rbp),%rax
    1cc3:	8b 40 0c             	mov    0xc(%rax),%eax
    1cc6:	85 c0                	test   %eax,%eax
    1cc8:	74 07                	je     1cd1 <thpool_wait+0x3c>
    1cca:	b8 01 00 00 00       	mov    $0x1,%eax
    1ccf:	eb 05                	jmp    1cd6 <thpool_wait+0x41>
    1cd1:	b8 00 00 00 00       	mov    $0x0,%eax
    1cd6:	84 c0                	test   %al,%al
    1cd8:	74 1d                	je     1cf7 <thpool_wait+0x62>
    1cda:	48 8b 45 f8          	mov    -0x8(%rbp),%rax
    1cde:	48 8d 50 10          	lea    0x10(%rax),%rdx
    1ce2:	48 8b 45 f8          	mov    -0x8(%rbp),%rax
    1ce6:	48 83 c0 38          	add    $0x38,%rax
    1cea:	48 89 d6             	mov    %rdx,%rsi
    1ced:	48 89 c7             	mov    %rax,%rdi
    1cf0:	e8 8b f9 ff ff       	callq  1680 <pthread_cond_wait@plt>
    1cf5:	eb ba                	jmp    1cb1 <thpool_wait+0x1c>
    1cf7:	48 8b 45 f8          	mov    -0x8(%rbp),%rax
    1cfb:	48 83 c0 10          	add    $0x10,%rax
    1cff:	48 89 c7             	mov    %rax,%rdi
    1d02:	e8 09 fb ff ff       	callq  1810 <pthread_mutex_unlock@plt>
    1d07:	90                   	nop
    1d08:	c9                   	leaveq 
    1d09:	c3                   	retq   

0000000000001d0a <thpool_destroy>:
    1d0a:	55                   	push   %rbp
    1d0b:	48 89 e5             	mov    %rsp,%rbp
    1d0e:	48 83 ec 40          	sub    $0x40,%rsp
    1d12:	48 89 7d c8          	mov    %rdi,-0x38(%rbp)
    1d16:	64 48 8b 04 25 28 00 	mov    %fs:0x28,%rax
    1d1d:	00 00 
    1d1f:	48 89 45 f8          	mov    %rax,-0x8(%rbp)
    1d23:	31 c0                	xor    %eax,%eax
    1d25:	48 83 7d c8 00       	cmpq   $0x0,-0x38(%rbp)
    1d2a:	0f 84 2f 01 00 00    	je     1e5f <thpool_destroy+0x155>
    1d30:	48 8b 45 c8          	mov    -0x38(%rbp),%rax
    1d34:	8b 40 08             	mov    0x8(%rax),%eax
    1d37:	89 45 d0             	mov    %eax,-0x30(%rbp)
    1d3a:	c7 05 48 75 20 00 00 	movl   $0x0,0x207548(%rip)        # 20928c <_ZL17threads_keepalive>
    1d41:	00 00 00 
    1d44:	f2 0f 10 05 4c 47 00 	movsd  0x474c(%rip),%xmm0        # 6498 <_IO_stdin_used+0x1a8>
    1d4b:	00 
    1d4c:	f2 0f 11 45 f0       	movsd  %xmm0,-0x10(%rbp)
    1d51:	66 0f ef c0          	pxor   %xmm0,%xmm0
    1d55:	f2 0f 11 45 e8       	movsd  %xmm0,-0x18(%rbp)
    1d5a:	48 8d 45 d8          	lea    -0x28(%rbp),%rax
    1d5e:	48 89 c7             	mov    %rax,%rdi
    1d61:	e8 7a fa ff ff       	callq  17e0 <time@plt>
    1d66:	f2 0f 10 45 f0       	movsd  -0x10(%rbp),%xmm0
    1d6b:	66 0f 2f 45 e8       	comisd -0x18(%rbp),%xmm0
    1d70:	76 12                	jbe    1d84 <thpool_destroy+0x7a>
    1d72:	48 8b 45 c8          	mov    -0x38(%rbp),%rax
    1d76:	8b 40 08             	mov    0x8(%rax),%eax
    1d79:	85 c0                	test   %eax,%eax
    1d7b:	74 07                	je     1d84 <thpool_destroy+0x7a>
    1d7d:	b8 01 00 00 00       	mov    $0x1,%eax
    1d82:	eb 05                	jmp    1d89 <thpool_destroy+0x7f>
    1d84:	b8 00 00 00 00       	mov    $0x0,%eax
    1d89:	84 c0                	test   %al,%al
    1d8b:	74 3d                	je     1dca <thpool_destroy+0xc0>
    1d8d:	48 8b 45 c8          	mov    -0x38(%rbp),%rax
    1d91:	48 8b 80 a0 00 00 00 	mov    0xa0(%rax),%rax
    1d98:	48 89 c7             	mov    %rax,%rdi
    1d9b:	e8 b1 08 00 00       	callq  2651 <_ZL13bsem_post_allP4bsem>
    1da0:	48 8d 45 e0          	lea    -0x20(%rbp),%rax
    1da4:	48 89 c7             	mov    %rax,%rdi
    1da7:	e8 34 fa ff ff       	callq  17e0 <time@plt>
    1dac:	48 8b 55 d8          	mov    -0x28(%rbp),%rdx
    1db0:	48 8b 45 e0          	mov    -0x20(%rbp),%rax
    1db4:	48 89 d6             	mov    %rdx,%rsi
    1db7:	48 89 c7             	mov    %rax,%rdi
    1dba:	e8 41 f9 ff ff       	callq  1700 <difftime@plt>
    1dbf:	66 48 0f 7e c0       	movq   %xmm0,%rax
    1dc4:	48 89 45 e8          	mov    %rax,-0x18(%rbp)
    1dc8:	eb 9c                	jmp    1d66 <thpool_destroy+0x5c>
    1dca:	48 8b 45 c8          	mov    -0x38(%rbp),%rax
    1dce:	8b 40 08             	mov    0x8(%rax),%eax
    1dd1:	85 c0                	test   %eax,%eax
    1dd3:	0f 95 c0             	setne  %al
    1dd6:	84 c0                	test   %al,%al
    1dd8:	74 1f                	je     1df9 <thpool_destroy+0xef>
    1dda:	48 8b 45 c8          	mov    -0x38(%rbp),%rax
    1dde:	48 8b 80 a0 00 00 00 	mov    0xa0(%rax),%rax
    1de5:	48 89 c7             	mov    %rax,%rdi
    1de8:	e8 64 08 00 00       	callq  2651 <_ZL13bsem_post_allP4bsem>
    1ded:	bf 01 00 00 00       	mov    $0x1,%edi
    1df2:	e8 29 fb ff ff       	callq  1920 <sleep@plt>
    1df7:	eb d1                	jmp    1dca <thpool_destroy+0xc0>
    1df9:	48 8b 45 c8          	mov    -0x38(%rbp),%rax
    1dfd:	48 83 c0 68          	add    $0x68,%rax
    1e01:	48 89 c7             	mov    %rax,%rdi
    1e04:	e8 43 07 00 00       	callq  254c <_ZL16jobqueue_destroyP8jobqueue>
    1e09:	c7 45 d4 00 00 00 00 	movl   $0x0,-0x2c(%rbp)
    1e10:	8b 45 d0             	mov    -0x30(%rbp),%eax
    1e13:	39 45 d4             	cmp    %eax,-0x2c(%rbp)
    1e16:	0f 9c c0             	setl   %al
    1e19:	84 c0                	test   %al,%al
    1e1b:	74 25                	je     1e42 <thpool_destroy+0x138>
    1e1d:	48 8b 45 c8          	mov    -0x38(%rbp),%rax
    1e21:	48 8b 00             	mov    (%rax),%rax
    1e24:	8b 55 d4             	mov    -0x2c(%rbp),%edx
    1e27:	48 63 d2             	movslq %edx,%rdx
    1e2a:	48 c1 e2 03          	shl    $0x3,%rdx
    1e2e:	48 01 d0             	add    %rdx,%rax
    1e31:	48 8b 00             	mov    (%rax),%rax
    1e34:	48 89 c7             	mov    %rax,%rdi
    1e37:	e8 d8 04 00 00       	callq  2314 <_ZL14thread_destroyP6thread>
    1e3c:	83 45 d4 01          	addl   $0x1,-0x2c(%rbp)
    1e40:	eb ce                	jmp    1e10 <thpool_destroy+0x106>
    1e42:	48 8b 45 c8          	mov    -0x38(%rbp),%rax
    1e46:	48 8b 00             	mov    (%rax),%rax
    1e49:	48 89 c7             	mov    %rax,%rdi
    1e4c:	e8 5f f7 ff ff       	callq  15b0 <free@plt>
    1e51:	48 8b 45 c8          	mov    -0x38(%rbp),%rax
    1e55:	48 89 c7             	mov    %rax,%rdi
    1e58:	e8 53 f7 ff ff       	callq  15b0 <free@plt>
    1e5d:	eb 01                	jmp    1e60 <thpool_destroy+0x156>
    1e5f:	90                   	nop
    1e60:	48 8b 45 f8          	mov    -0x8(%rbp),%rax
    1e64:	64 48 33 04 25 28 00 	xor    %fs:0x28,%rax
    1e6b:	00 00 
    1e6d:	74 05                	je     1e74 <thpool_destroy+0x16a>
    1e6f:	e8 3c f8 ff ff       	callq  16b0 <__stack_chk_fail@plt>
    1e74:	c9                   	leaveq 
    1e75:	c3                   	retq   

0000000000001e76 <thpool_pause>:
    1e76:	55                   	push   %rbp
    1e77:	48 89 e5             	mov    %rsp,%rbp
    1e7a:	48 83 ec 20          	sub    $0x20,%rsp
    1e7e:	48 89 7d e8          	mov    %rdi,-0x18(%rbp)
    1e82:	c7 45 fc 00 00 00 00 	movl   $0x0,-0x4(%rbp)
    1e89:	48 8b 45 e8          	mov    -0x18(%rbp),%rax
    1e8d:	8b 40 08             	mov    0x8(%rax),%eax
    1e90:	39 45 fc             	cmp    %eax,-0x4(%rbp)
    1e93:	0f 9c c0             	setl   %al
    1e96:	84 c0                	test   %al,%al
    1e98:	74 2e                	je     1ec8 <thpool_pause+0x52>
    1e9a:	48 8b 45 e8          	mov    -0x18(%rbp),%rax
    1e9e:	48 8b 00             	mov    (%rax),%rax
    1ea1:	8b 55 fc             	mov    -0x4(%rbp),%edx
    1ea4:	48 63 d2             	movslq %edx,%rdx
    1ea7:	48 c1 e2 03          	shl    $0x3,%rdx
    1eab:	48 01 d0             	add    %rdx,%rax
    1eae:	48 8b 00             	mov    (%rax),%rax
    1eb1:	48 8b 40 08          	mov    0x8(%rax),%rax
    1eb5:	be 0a 00 00 00       	mov    $0xa,%esi
    1eba:	48 89 c7             	mov    %rax,%rdi
    1ebd:	e8 9e f7 ff ff       	callq  1660 <pthread_kill@plt>
    1ec2:	83 45 fc 01          	addl   $0x1,-0x4(%rbp)
    1ec6:	eb c1                	jmp    1e89 <thpool_pause+0x13>
    1ec8:	90                   	nop
    1ec9:	c9                   	leaveq 
    1eca:	c3                   	retq   

0000000000001ecb <thpool_resume>:
    1ecb:	55                   	push   %rbp
    1ecc:	48 89 e5             	mov    %rsp,%rbp
    1ecf:	48 89 7d f8          	mov    %rdi,-0x8(%rbp)
    1ed3:	c7 05 b3 73 20 00 00 	movl   $0x0,0x2073b3(%rip)        # 209290 <_ZL15threads_on_hold>
    1eda:	00 00 00 
    1edd:	90                   	nop
    1ede:	5d                   	pop    %rbp
    1edf:	c3                   	retq   

0000000000001ee0 <thpool_num_threads_working>:
    1ee0:	55                   	push   %rbp
    1ee1:	48 89 e5             	mov    %rsp,%rbp
    1ee4:	48 89 7d f8          	mov    %rdi,-0x8(%rbp)
    1ee8:	48 8b 45 f8          	mov    -0x8(%rbp),%rax
    1eec:	8b 40 0c             	mov    0xc(%rax),%eax
    1eef:	5d                   	pop    %rbp
    1ef0:	c3                   	retq   

0000000000001ef1 <_ZL11thread_initP7thpool_PP6threadi>:
    1ef1:	55                   	push   %rbp
    1ef2:	48 89 e5             	mov    %rsp,%rbp
    1ef5:	48 83 ec 20          	sub    $0x20,%rsp
    1ef9:	48 89 7d f8          	mov    %rdi,-0x8(%rbp)
    1efd:	48 89 75 f0          	mov    %rsi,-0x10(%rbp)
    1f01:	89 55 ec             	mov    %edx,-0x14(%rbp)
    1f04:	bf 18 00 00 00       	mov    $0x18,%edi
    1f09:	e8 12 f9 ff ff       	callq  1820 <malloc@plt>
    1f0e:	48 89 c2             	mov    %rax,%rdx
    1f11:	48 8b 45 f0          	mov    -0x10(%rbp),%rax
    1f15:	48 89 10             	mov    %rdx,(%rax)
    1f18:	48 83 7d f0 00       	cmpq   $0x0,-0x10(%rbp)
    1f1d:	75 27                	jne    1f46 <_ZL11thread_initP7thpool_PP6threadi+0x55>
    1f1f:	48 8b 05 5a 73 20 00 	mov    0x20735a(%rip),%rax        # 209280 <stderr@@GLIBC_2.2.5>
    1f26:	48 89 c1             	mov    %rax,%rcx
    1f29:	ba 34 00 00 00       	mov    $0x34,%edx
    1f2e:	be 01 00 00 00       	mov    $0x1,%esi
    1f33:	48 8d 3d ae 44 00 00 	lea    0x44ae(%rip),%rdi        # 63e8 <_IO_stdin_used+0xf8>
    1f3a:	e8 d1 f9 ff ff       	callq  1910 <fwrite@plt>
    1f3f:	b8 ff ff ff ff       	mov    $0xffffffff,%eax
    1f44:	eb 59                	jmp    1f9f <_ZL11thread_initP7thpool_PP6threadi+0xae>
    1f46:	48 8b 45 f0          	mov    -0x10(%rbp),%rax
    1f4a:	48 8b 00             	mov    (%rax),%rax
    1f4d:	48 8b 55 f8          	mov    -0x8(%rbp),%rdx
    1f51:	48 89 50 10          	mov    %rdx,0x10(%rax)
    1f55:	48 8b 45 f0          	mov    -0x10(%rbp),%rax
    1f59:	48 8b 00             	mov    (%rax),%rax
    1f5c:	8b 55 ec             	mov    -0x14(%rbp),%edx
    1f5f:	89 10                	mov    %edx,(%rax)
    1f61:	48 8b 45 f0          	mov    -0x10(%rbp),%rax
    1f65:	48 8b 00             	mov    (%rax),%rax
    1f68:	48 8b 55 f0          	mov    -0x10(%rbp),%rdx
    1f6c:	48 8b 12             	mov    (%rdx),%rdx
    1f6f:	48 8d 7a 08          	lea    0x8(%rdx),%rdi
    1f73:	48 89 c1             	mov    %rax,%rcx
    1f76:	48 8d 15 57 00 00 00 	lea    0x57(%rip),%rdx        # 1fd4 <_ZL9thread_doP6thread>
    1f7d:	be 00 00 00 00       	mov    $0x0,%esi
    1f82:	e8 39 f6 ff ff       	callq  15c0 <pthread_create@plt>
    1f87:	48 8b 45 f0          	mov    -0x10(%rbp),%rax
    1f8b:	48 8b 00             	mov    (%rax),%rax
    1f8e:	48 8b 40 08          	mov    0x8(%rax),%rax
    1f92:	48 89 c7             	mov    %rax,%rdi
    1f95:	e8 36 f6 ff ff       	callq  15d0 <pthread_detach@plt>
    1f9a:	b8 00 00 00 00       	mov    $0x0,%eax
    1f9f:	c9                   	leaveq 
    1fa0:	c3                   	retq   

0000000000001fa1 <_ZL11thread_holdi>:
    1fa1:	55                   	push   %rbp
    1fa2:	48 89 e5             	mov    %rsp,%rbp
    1fa5:	48 83 ec 10          	sub    $0x10,%rsp
    1fa9:	89 7d fc             	mov    %edi,-0x4(%rbp)
    1fac:	c7 05 da 72 20 00 01 	movl   $0x1,0x2072da(%rip)        # 209290 <_ZL15threads_on_hold>
    1fb3:	00 00 00 
    1fb6:	8b 05 d4 72 20 00    	mov    0x2072d4(%rip),%eax        # 209290 <_ZL15threads_on_hold>
    1fbc:	85 c0                	test   %eax,%eax
    1fbe:	0f 95 c0             	setne  %al
    1fc1:	84 c0                	test   %al,%al
    1fc3:	74 0c                	je     1fd1 <_ZL11thread_holdi+0x30>
    1fc5:	bf 01 00 00 00       	mov    $0x1,%edi
    1fca:	e8 51 f9 ff ff       	callq  1920 <sleep@plt>
    1fcf:	eb e5                	jmp    1fb6 <_ZL11thread_holdi+0x15>
    1fd1:	90                   	nop
    1fd2:	c9                   	leaveq 
    1fd3:	c3                   	retq   

0000000000001fd4 <_ZL9thread_doP6thread>:
    1fd4:	55                   	push   %rbp
    1fd5:	48 89 e5             	mov    %rsp,%rbp
    1fd8:	48 81 ec 60 01 00 00 	sub    $0x160,%rsp
    1fdf:	48 89 bd a8 fe ff ff 	mov    %rdi,-0x158(%rbp)
    1fe6:	64 48 8b 04 25 28 00 	mov    %fs:0x28,%rax
    1fed:	00 00 
    1fef:	48 89 45 f8          	mov    %rax,-0x8(%rbp)
    1ff3:	31 c0                	xor    %eax,%eax
    1ff5:	48 c7 85 70 ff ff ff 	movq   $0x0,-0x90(%rbp)
    1ffc:	00 00 00 00 
    2000:	48 c7 85 78 ff ff ff 	movq   $0x0,-0x88(%rbp)
    2007:	00 00 00 00 
    200b:	48 c7 45 80 00 00 00 	movq   $0x0,-0x80(%rbp)
    2012:	00 
    2013:	48 c7 45 88 00 00 00 	movq   $0x0,-0x78(%rbp)
    201a:	00 
    201b:	48 c7 45 90 00 00 00 	movq   $0x0,-0x70(%rbp)
    2022:	00 
    2023:	48 c7 45 98 00 00 00 	movq   $0x0,-0x68(%rbp)
    202a:	00 
    202b:	48 c7 45 a0 00 00 00 	movq   $0x0,-0x60(%rbp)
    2032:	00 
    2033:	48 c7 45 a8 00 00 00 	movq   $0x0,-0x58(%rbp)
    203a:	00 
    203b:	48 c7 45 b0 00 00 00 	movq   $0x0,-0x50(%rbp)
    2042:	00 
    2043:	48 c7 45 b8 00 00 00 	movq   $0x0,-0x48(%rbp)
    204a:	00 
    204b:	48 c7 45 c0 00 00 00 	movq   $0x0,-0x40(%rbp)
    2052:	00 
    2053:	48 c7 45 c8 00 00 00 	movq   $0x0,-0x38(%rbp)
    205a:	00 
    205b:	48 c7 45 d0 00 00 00 	movq   $0x0,-0x30(%rbp)
    2062:	00 
    2063:	48 c7 45 d8 00 00 00 	movq   $0x0,-0x28(%rbp)
    206a:	00 
    206b:	48 c7 45 e0 00 00 00 	movq   $0x0,-0x20(%rbp)
    2072:	00 
    2073:	48 c7 45 e8 00 00 00 	movq   $0x0,-0x18(%rbp)
    207a:	00 
    207b:	48 8b 85 a8 fe ff ff 	mov    -0x158(%rbp),%rax
    2082:	8b 10                	mov    (%rax),%edx
    2084:	48 8d 85 70 ff ff ff 	lea    -0x90(%rbp),%rax
    208b:	48 8d 35 8b 43 00 00 	lea    0x438b(%rip),%rsi        # 641d <_IO_stdin_used+0x12d>
    2092:	48 89 c7             	mov    %rax,%rdi
    2095:	b8 00 00 00 00       	mov    $0x0,%eax
    209a:	e8 41 f8 ff ff       	callq  18e0 <sprintf@plt>
    209f:	48 8d 85 70 ff ff ff 	lea    -0x90(%rbp),%rax
    20a6:	48 89 c6             	mov    %rax,%rsi
    20a9:	bf 0f 00 00 00       	mov    $0xf,%edi
    20ae:	b8 00 00 00 00       	mov    $0x0,%eax
    20b3:	e8 18 f7 ff ff       	callq  17d0 <prctl@plt>
    20b8:	48 8b 85 a8 fe ff ff 	mov    -0x158(%rbp),%rax
    20bf:	48 8b 40 10          	mov    0x10(%rax),%rax
    20c3:	48 89 85 b0 fe ff ff 	mov    %rax,-0x150(%rbp)
    20ca:	48 8d 85 d0 fe ff ff 	lea    -0x130(%rbp),%rax
    20d1:	48 83 c0 08          	add    $0x8,%rax
    20d5:	48 89 c7             	mov    %rax,%rdi
    20d8:	e8 d3 f6 ff ff       	callq  17b0 <sigemptyset@plt>
    20dd:	c7 85 58 ff ff ff 00 	movl   $0x0,-0xa8(%rbp)
    20e4:	00 00 00 
    20e7:	48 8d 05 b3 fe ff ff 	lea    -0x14d(%rip),%rax        # 1fa1 <_ZL11thread_holdi>
    20ee:	48 89 85 d0 fe ff ff 	mov    %rax,-0x130(%rbp)
    20f5:	48 8d 85 d0 fe ff ff 	lea    -0x130(%rbp),%rax
    20fc:	ba 00 00 00 00       	mov    $0x0,%edx
    2101:	48 89 c6             	mov    %rax,%rsi
    2104:	bf 0a 00 00 00       	mov    $0xa,%edi
    2109:	e8 22 f5 ff ff       	callq  1630 <sigaction@plt>
    210e:	83 f8 ff             	cmp    $0xffffffff,%eax
    2111:	0f 94 c0             	sete   %al
    2114:	84 c0                	test   %al,%al
    2116:	74 20                	je     2138 <_ZL9thread_doP6thread+0x164>
    2118:	48 8b 05 61 71 20 00 	mov    0x207161(%rip),%rax        # 209280 <stderr@@GLIBC_2.2.5>
    211f:	48 89 c1             	mov    %rax,%rcx
    2122:	ba 22 00 00 00       	mov    $0x22,%edx
    2127:	be 01 00 00 00       	mov    $0x1,%esi
    212c:	48 8d 3d fd 42 00 00 	lea    0x42fd(%rip),%rdi        # 6430 <_IO_stdin_used+0x140>
    2133:	e8 d8 f7 ff ff       	callq  1910 <fwrite@plt>
    2138:	48 8b 85 b0 fe ff ff 	mov    -0x150(%rbp),%rax
    213f:	48 83 c0 10          	add    $0x10,%rax
    2143:	48 89 c7             	mov    %rax,%rdi
    2146:	e8 f5 f7 ff ff       	callq  1940 <pthread_mutex_lock@plt>
    214b:	48 8b 85 b0 fe ff ff 	mov    -0x150(%rbp),%rax
    2152:	8b 40 08             	mov    0x8(%rax),%eax
    2155:	8d 50 01             	lea    0x1(%rax),%edx
    2158:	48 8b 85 b0 fe ff ff 	mov    -0x150(%rbp),%rax
    215f:	89 50 08             	mov    %edx,0x8(%rax)
    2162:	48 8b 85 b0 fe ff ff 	mov    -0x150(%rbp),%rax
    2169:	48 83 c0 10          	add    $0x10,%rax
    216d:	48 89 c7             	mov    %rax,%rdi
    2170:	e8 9b f6 ff ff       	callq  1810 <pthread_mutex_unlock@plt>
    2175:	8b 05 11 71 20 00    	mov    0x207111(%rip),%eax        # 20928c <_ZL17threads_keepalive>
    217b:	85 c0                	test   %eax,%eax
    217d:	0f 95 c0             	setne  %al
    2180:	84 c0                	test   %al,%al
    2182:	0f 84 34 01 00 00    	je     22bc <_ZL9thread_doP6thread+0x2e8>
    2188:	48 8b 85 b0 fe ff ff 	mov    -0x150(%rbp),%rax
    218f:	48 8b 80 a0 00 00 00 	mov    0xa0(%rax),%rax
    2196:	48 89 c7             	mov    %rax,%rdi
    2199:	e8 f5 04 00 00       	callq  2693 <_ZL9bsem_waitP4bsem>
    219e:	8b 05 e8 70 20 00    	mov    0x2070e8(%rip),%eax        # 20928c <_ZL17threads_keepalive>
    21a4:	85 c0                	test   %eax,%eax
    21a6:	0f 95 c0             	setne  %al
    21a9:	84 c0                	test   %al,%al
    21ab:	74 c8                	je     2175 <_ZL9thread_doP6thread+0x1a1>
    21ad:	48 8b 85 b0 fe ff ff 	mov    -0x150(%rbp),%rax
    21b4:	48 83 c0 10          	add    $0x10,%rax
    21b8:	48 89 c7             	mov    %rax,%rdi
    21bb:	e8 80 f7 ff ff       	callq  1940 <pthread_mutex_lock@plt>
    21c0:	48 8b 85 b0 fe ff ff 	mov    -0x150(%rbp),%rax
    21c7:	8b 40 0c             	mov    0xc(%rax),%eax
    21ca:	8d 50 01             	lea    0x1(%rax),%edx
    21cd:	48 8b 85 b0 fe ff ff 	mov    -0x150(%rbp),%rax
    21d4:	89 50 0c             	mov    %edx,0xc(%rax)
    21d7:	48 8b 85 b0 fe ff ff 	mov    -0x150(%rbp),%rax
    21de:	48 83 c0 10          	add    $0x10,%rax
    21e2:	48 89 c7             	mov    %rax,%rdi
    21e5:	e8 26 f6 ff ff       	callq  1810 <pthread_mutex_unlock@plt>
    21ea:	48 8b 85 b0 fe ff ff 	mov    -0x150(%rbp),%rax
    21f1:	48 83 c0 68          	add    $0x68,%rax
    21f5:	48 89 c7             	mov    %rax,%rdi
    21f8:	e8 b1 02 00 00       	callq  24ae <_ZL13jobqueue_pullP8jobqueue>
    21fd:	48 89 85 b8 fe ff ff 	mov    %rax,-0x148(%rbp)
    2204:	48 83 bd b8 fe ff ff 	cmpq   $0x0,-0x148(%rbp)
    220b:	00 
    220c:	74 46                	je     2254 <_ZL9thread_doP6thread+0x280>
    220e:	48 8b 85 b8 fe ff ff 	mov    -0x148(%rbp),%rax
    2215:	48 8b 40 08          	mov    0x8(%rax),%rax
    2219:	48 89 85 c0 fe ff ff 	mov    %rax,-0x140(%rbp)
    2220:	48 8b 85 b8 fe ff ff 	mov    -0x148(%rbp),%rax
    2227:	48 8b 40 10          	mov    0x10(%rax),%rax
    222b:	48 89 85 c8 fe ff ff 	mov    %rax,-0x138(%rbp)
    2232:	48 8b 85 c8 fe ff ff 	mov    -0x138(%rbp),%rax
    2239:	48 8b 95 c0 fe ff ff 	mov    -0x140(%rbp),%rdx
    2240:	48 89 c7             	mov    %rax,%rdi
    2243:	ff d2                	callq  *%rdx
    2245:	48 8b 85 b8 fe ff ff 	mov    -0x148(%rbp),%rax
    224c:	48 89 c7             	mov    %rax,%rdi
    224f:	e8 5c f3 ff ff       	callq  15b0 <free@plt>
    2254:	48 8b 85 b0 fe ff ff 	mov    -0x150(%rbp),%rax
    225b:	48 83 c0 10          	add    $0x10,%rax
    225f:	48 89 c7             	mov    %rax,%rdi
    2262:	e8 d9 f6 ff ff       	callq  1940 <pthread_mutex_lock@plt>
    2267:	48 8b 85 b0 fe ff ff 	mov    -0x150(%rbp),%rax
    226e:	8b 40 0c             	mov    0xc(%rax),%eax
    2271:	8d 50 ff             	lea    -0x1(%rax),%edx
    2274:	48 8b 85 b0 fe ff ff 	mov    -0x150(%rbp),%rax
    227b:	89 50 0c             	mov    %edx,0xc(%rax)
    227e:	48 8b 85 b0 fe ff ff 	mov    -0x150(%rbp),%rax
    2285:	8b 40 0c             	mov    0xc(%rax),%eax
    2288:	85 c0                	test   %eax,%eax
    228a:	0f 94 c0             	sete   %al
    228d:	84 c0                	test   %al,%al
    228f:	74 13                	je     22a4 <_ZL9thread_doP6thread+0x2d0>
    2291:	48 8b 85 b0 fe ff ff 	mov    -0x150(%rbp),%rax
    2298:	48 83 c0 38          	add    $0x38,%rax
    229c:	48 89 c7             	mov    %rax,%rdi
    229f:	e8 cc f4 ff ff       	callq  1770 <pthread_cond_signal@plt>
    22a4:	48 8b 85 b0 fe ff ff 	mov    -0x150(%rbp),%rax
    22ab:	48 83 c0 10          	add    $0x10,%rax
    22af:	48 89 c7             	mov    %rax,%rdi
    22b2:	e8 59 f5 ff ff       	callq  1810 <pthread_mutex_unlock@plt>
    22b7:	e9 b9 fe ff ff       	jmpq   2175 <_ZL9thread_doP6thread+0x1a1>
    22bc:	48 8b 85 b0 fe ff ff 	mov    -0x150(%rbp),%rax
    22c3:	48 83 c0 10          	add    $0x10,%rax
    22c7:	48 89 c7             	mov    %rax,%rdi
    22ca:	e8 71 f6 ff ff       	callq  1940 <pthread_mutex_lock@plt>
    22cf:	48 8b 85 b0 fe ff ff 	mov    -0x150(%rbp),%rax
    22d6:	8b 40 08             	mov    0x8(%rax),%eax
    22d9:	8d 50 ff             	lea    -0x1(%rax),%edx
    22dc:	48 8b 85 b0 fe ff ff 	mov    -0x150(%rbp),%rax
    22e3:	89 50 08             	mov    %edx,0x8(%rax)
    22e6:	48 8b 85 b0 fe ff ff 	mov    -0x150(%rbp),%rax
    22ed:	48 83 c0 10          	add    $0x10,%rax
    22f1:	48 89 c7             	mov    %rax,%rdi
    22f4:	e8 17 f5 ff ff       	callq  1810 <pthread_mutex_unlock@plt>
    22f9:	b8 00 00 00 00       	mov    $0x0,%eax
    22fe:	48 8b 4d f8          	mov    -0x8(%rbp),%rcx
    2302:	64 48 33 0c 25 28 00 	xor    %fs:0x28,%rcx
    2309:	00 00 
    230b:	74 05                	je     2312 <_ZL9thread_doP6thread+0x33e>
    230d:	e8 9e f3 ff ff       	callq  16b0 <__stack_chk_fail@plt>
    2312:	c9                   	leaveq 
    2313:	c3                   	retq   

0000000000002314 <_ZL14thread_destroyP6thread>:
    2314:	55                   	push   %rbp
    2315:	48 89 e5             	mov    %rsp,%rbp
    2318:	48 83 ec 10          	sub    $0x10,%rsp
    231c:	48 89 7d f8          	mov    %rdi,-0x8(%rbp)
    2320:	48 8b 45 f8          	mov    -0x8(%rbp),%rax
    2324:	48 89 c7             	mov    %rax,%rdi
    2327:	e8 84 f2 ff ff       	callq  15b0 <free@plt>
    232c:	90                   	nop
    232d:	c9                   	leaveq 
    232e:	c3                   	retq   

000000000000232f <_ZL13jobqueue_initP8jobqueue>:
    232f:	55                   	push   %rbp
    2330:	48 89 e5             	mov    %rsp,%rbp
    2333:	48 83 ec 10          	sub    $0x10,%rsp
    2337:	48 89 7d f8          	mov    %rdi,-0x8(%rbp)
    233b:	48 8b 45 f8          	mov    -0x8(%rbp),%rax
    233f:	c7 40 40 00 00 00 00 	movl   $0x0,0x40(%rax)
    2346:	48 8b 45 f8          	mov    -0x8(%rbp),%rax
    234a:	48 c7 40 28 00 00 00 	movq   $0x0,0x28(%rax)
    2351:	00 
    2352:	48 8b 45 f8          	mov    -0x8(%rbp),%rax
    2356:	48 c7 40 30 00 00 00 	movq   $0x0,0x30(%rax)
    235d:	00 
    235e:	bf 60 00 00 00       	mov    $0x60,%edi
    2363:	e8 b8 f4 ff ff       	callq  1820 <malloc@plt>
    2368:	48 89 c2             	mov    %rax,%rdx
    236b:	48 8b 45 f8          	mov    -0x8(%rbp),%rax
    236f:	48 89 50 38          	mov    %rdx,0x38(%rax)
    2373:	48 8b 45 f8          	mov    -0x8(%rbp),%rax
    2377:	48 8b 40 38          	mov    0x38(%rax),%rax
    237b:	48 85 c0             	test   %rax,%rax
    237e:	75 07                	jne    2387 <_ZL13jobqueue_initP8jobqueue+0x58>
    2380:	b8 ff ff ff ff       	mov    $0xffffffff,%eax
    2385:	eb 2b                	jmp    23b2 <_ZL13jobqueue_initP8jobqueue+0x83>
    2387:	48 8b 45 f8          	mov    -0x8(%rbp),%rax
    238b:	be 00 00 00 00       	mov    $0x0,%esi
    2390:	48 89 c7             	mov    %rax,%rdi
    2393:	e8 98 f5 ff ff       	callq  1930 <pthread_mutex_init@plt>
    2398:	48 8b 45 f8          	mov    -0x8(%rbp),%rax
    239c:	48 8b 40 38          	mov    0x38(%rax),%rax
    23a0:	be 00 00 00 00       	mov    $0x0,%esi
    23a5:	48 89 c7             	mov    %rax,%rdi
    23a8:	e8 ca 01 00 00       	callq  2577 <_ZL9bsem_initP4bsemi>
    23ad:	b8 00 00 00 00       	mov    $0x0,%eax
    23b2:	c9                   	leaveq 
    23b3:	c3                   	retq   

00000000000023b4 <_ZL14jobqueue_clearP8jobqueue>:
    23b4:	55                   	push   %rbp
    23b5:	48 89 e5             	mov    %rsp,%rbp
    23b8:	48 83 ec 10          	sub    $0x10,%rsp
    23bc:	48 89 7d f8          	mov    %rdi,-0x8(%rbp)
    23c0:	48 8b 45 f8          	mov    -0x8(%rbp),%rax
    23c4:	8b 40 40             	mov    0x40(%rax),%eax
    23c7:	85 c0                	test   %eax,%eax
    23c9:	74 16                	je     23e1 <_ZL14jobqueue_clearP8jobqueue+0x2d>
    23cb:	48 8b 45 f8          	mov    -0x8(%rbp),%rax
    23cf:	48 89 c7             	mov    %rax,%rdi
    23d2:	e8 d7 00 00 00       	callq  24ae <_ZL13jobqueue_pullP8jobqueue>
    23d7:	48 89 c7             	mov    %rax,%rdi
    23da:	e8 d1 f1 ff ff       	callq  15b0 <free@plt>
    23df:	eb df                	jmp    23c0 <_ZL14jobqueue_clearP8jobqueue+0xc>
    23e1:	48 8b 45 f8          	mov    -0x8(%rbp),%rax
    23e5:	48 c7 40 28 00 00 00 	movq   $0x0,0x28(%rax)
    23ec:	00 
    23ed:	48 8b 45 f8          	mov    -0x8(%rbp),%rax
    23f1:	48 c7 40 30 00 00 00 	movq   $0x0,0x30(%rax)
    23f8:	00 
    23f9:	48 8b 45 f8          	mov    -0x8(%rbp),%rax
    23fd:	48 8b 40 38          	mov    0x38(%rax),%rax
    2401:	48 89 c7             	mov    %rax,%rdi
    2404:	e8 e6 01 00 00       	callq  25ef <_ZL10bsem_resetP4bsem>
    2409:	48 8b 45 f8          	mov    -0x8(%rbp),%rax
    240d:	c7 40 40 00 00 00 00 	movl   $0x0,0x40(%rax)
    2414:	90                   	nop
    2415:	c9                   	leaveq 
    2416:	c3                   	retq   

0000000000002417 <_ZL13jobqueue_pushP8jobqueueP3job>:
    2417:	55                   	push   %rbp
    2418:	48 89 e5             	mov    %rsp,%rbp
    241b:	48 83 ec 10          	sub    $0x10,%rsp
    241f:	48 89 7d f8          	mov    %rdi,-0x8(%rbp)
    2423:	48 89 75 f0          	mov    %rsi,-0x10(%rbp)
    2427:	48 8b 45 f8          	mov    -0x8(%rbp),%rax
    242b:	48 89 c7             	mov    %rax,%rdi
    242e:	e8 0d f5 ff ff       	callq  1940 <pthread_mutex_lock@plt>
    2433:	48 8b 45 f0          	mov    -0x10(%rbp),%rax
    2437:	48 c7 00 00 00 00 00 	movq   $0x0,(%rax)
    243e:	48 8b 45 f8          	mov    -0x8(%rbp),%rax
    2442:	8b 40 40             	mov    0x40(%rax),%eax
    2445:	85 c0                	test   %eax,%eax
    2447:	75 1a                	jne    2463 <_ZL13jobqueue_pushP8jobqueueP3job+0x4c>
    2449:	48 8b 45 f8          	mov    -0x8(%rbp),%rax
    244d:	48 8b 55 f0          	mov    -0x10(%rbp),%rdx
    2451:	48 89 50 28          	mov    %rdx,0x28(%rax)
    2455:	48 8b 45 f8          	mov    -0x8(%rbp),%rax
    2459:	48 8b 55 f0          	mov    -0x10(%rbp),%rdx
    245d:	48 89 50 30          	mov    %rdx,0x30(%rax)
    2461:	eb 1b                	jmp    247e <_ZL13jobqueue_pushP8jobqueueP3job+0x67>
    2463:	48 8b 45 f8          	mov    -0x8(%rbp),%rax
    2467:	48 8b 40 30          	mov    0x30(%rax),%rax
    246b:	48 8b 55 f0          	mov    -0x10(%rbp),%rdx
    246f:	48 89 10             	mov    %rdx,(%rax)
    2472:	48 8b 45 f8          	mov    -0x8(%rbp),%rax
    2476:	48 8b 55 f0          	mov    -0x10(%rbp),%rdx
    247a:	48 89 50 30          	mov    %rdx,0x30(%rax)
    247e:	48 8b 45 f8          	mov    -0x8(%rbp),%rax
    2482:	8b 40 40             	mov    0x40(%rax),%eax
    2485:	8d 50 01             	lea    0x1(%rax),%edx
    2488:	48 8b 45 f8          	mov    -0x8(%rbp),%rax
    248c:	89 50 40             	mov    %edx,0x40(%rax)
    248f:	48 8b 45 f8          	mov    -0x8(%rbp),%rax
    2493:	48 8b 40 38          	mov    0x38(%rax),%rax
    2497:	48 89 c7             	mov    %rax,%rdi
    249a:	e8 70 01 00 00       	callq  260f <_ZL9bsem_postP4bsem>
    249f:	48 8b 45 f8          	mov    -0x8(%rbp),%rax
    24a3:	48 89 c7             	mov    %rax,%rdi
    24a6:	e8 65 f3 ff ff       	callq  1810 <pthread_mutex_unlock@plt>
    24ab:	90                   	nop
    24ac:	c9                   	leaveq 
    24ad:	c3                   	retq   

00000000000024ae <_ZL13jobqueue_pullP8jobqueue>:
    24ae:	55                   	push   %rbp
    24af:	48 89 e5             	mov    %rsp,%rbp
    24b2:	48 83 ec 20          	sub    $0x20,%rsp
    24b6:	48 89 7d e8          	mov    %rdi,-0x18(%rbp)
    24ba:	48 8b 45 e8          	mov    -0x18(%rbp),%rax
    24be:	48 89 c7             	mov    %rax,%rdi
    24c1:	e8 7a f4 ff ff       	callq  1940 <pthread_mutex_lock@plt>
    24c6:	48 8b 45 e8          	mov    -0x18(%rbp),%rax
    24ca:	48 8b 40 28          	mov    0x28(%rax),%rax
    24ce:	48 89 45 f8          	mov    %rax,-0x8(%rbp)
    24d2:	48 8b 45 e8          	mov    -0x18(%rbp),%rax
    24d6:	8b 40 40             	mov    0x40(%rax),%eax
    24d9:	85 c0                	test   %eax,%eax
    24db:	74 5c                	je     2539 <_ZL13jobqueue_pullP8jobqueue+0x8b>
    24dd:	83 f8 01             	cmp    $0x1,%eax
    24e0:	75 25                	jne    2507 <_ZL13jobqueue_pullP8jobqueue+0x59>
    24e2:	48 8b 45 e8          	mov    -0x18(%rbp),%rax
    24e6:	48 c7 40 28 00 00 00 	movq   $0x0,0x28(%rax)
    24ed:	00 
    24ee:	48 8b 45 e8          	mov    -0x18(%rbp),%rax
    24f2:	48 c7 40 30 00 00 00 	movq   $0x0,0x30(%rax)
    24f9:	00 
    24fa:	48 8b 45 e8          	mov    -0x18(%rbp),%rax
    24fe:	c7 40 40 00 00 00 00 	movl   $0x0,0x40(%rax)
    2505:	eb 33                	jmp    253a <_ZL13jobqueue_pullP8jobqueue+0x8c>
    2507:	48 8b 45 f8          	mov    -0x8(%rbp),%rax
    250b:	48 8b 10             	mov    (%rax),%rdx
    250e:	48 8b 45 e8          	mov    -0x18(%rbp),%rax
    2512:	48 89 50 28          	mov    %rdx,0x28(%rax)
    2516:	48 8b 45 e8          	mov    -0x18(%rbp),%rax
    251a:	8b 40 40             	mov    0x40(%rax),%eax
    251d:	8d 50 ff             	lea    -0x1(%rax),%edx
    2520:	48 8b 45 e8          	mov    -0x18(%rbp),%rax
    2524:	89 50 40             	mov    %edx,0x40(%rax)
    2527:	48 8b 45 e8          	mov    -0x18(%rbp),%rax
    252b:	48 8b 40 38          	mov    0x38(%rax),%rax
    252f:	48 89 c7             	mov    %rax,%rdi
    2532:	e8 d8 00 00 00       	callq  260f <_ZL9bsem_postP4bsem>
    2537:	eb 01                	jmp    253a <_ZL13jobqueue_pullP8jobqueue+0x8c>
    2539:	90                   	nop
    253a:	48 8b 45 e8          	mov    -0x18(%rbp),%rax
    253e:	48 89 c7             	mov    %rax,%rdi
    2541:	e8 ca f2 ff ff       	callq  1810 <pthread_mutex_unlock@plt>
    2546:	48 8b 45 f8          	mov    -0x8(%rbp),%rax
    254a:	c9                   	leaveq 
    254b:	c3                   	retq   

000000000000254c <_ZL16jobqueue_destroyP8jobqueue>:
    254c:	55                   	push   %rbp
    254d:	48 89 e5             	mov    %rsp,%rbp
    2550:	48 83 ec 10          	sub    $0x10,%rsp
    2554:	48 89 7d f8          	mov    %rdi,-0x8(%rbp)
    2558:	48 8b 45 f8          	mov    -0x8(%rbp),%rax
    255c:	48 89 c7             	mov    %rax,%rdi
    255f:	e8 50 fe ff ff       	callq  23b4 <_ZL14jobqueue_clearP8jobqueue>
    2564:	48 8b 45 f8          	mov    -0x8(%rbp),%rax
    2568:	48 8b 40 38          	mov    0x38(%rax),%rax
    256c:	48 89 c7             	mov    %rax,%rdi
    256f:	e8 3c f0 ff ff       	callq  15b0 <free@plt>
    2574:	90                   	nop
    2575:	c9                   	leaveq 
    2576:	c3                   	retq   

0000000000002577 <_ZL9bsem_initP4bsemi>:
    2577:	55                   	push   %rbp
    2578:	48 89 e5             	mov    %rsp,%rbp
    257b:	48 83 ec 10          	sub    $0x10,%rsp
    257f:	48 89 7d f8          	mov    %rdi,-0x8(%rbp)
    2583:	89 75 f4             	mov    %esi,-0xc(%rbp)
    2586:	83 7d f4 00          	cmpl   $0x0,-0xc(%rbp)
    258a:	78 06                	js     2592 <_ZL9bsem_initP4bsemi+0x1b>
    258c:	83 7d f4 01          	cmpl   $0x1,-0xc(%rbp)
    2590:	7e 2a                	jle    25bc <_ZL9bsem_initP4bsemi+0x45>
    2592:	48 8b 05 e7 6c 20 00 	mov    0x206ce7(%rip),%rax        # 209280 <stderr@@GLIBC_2.2.5>
    2599:	48 89 c1             	mov    %rax,%rcx
    259c:	ba 39 00 00 00       	mov    $0x39,%edx
    25a1:	be 01 00 00 00       	mov    $0x1,%esi
    25a6:	48 8d 3d ab 3e 00 00 	lea    0x3eab(%rip),%rdi        # 6458 <_IO_stdin_used+0x168>
    25ad:	e8 5e f3 ff ff       	callq  1910 <fwrite@plt>
    25b2:	bf 01 00 00 00       	mov    $0x1,%edi
    25b7:	e8 34 f3 ff ff       	callq  18f0 <exit@plt>
    25bc:	48 8b 45 f8          	mov    -0x8(%rbp),%rax
    25c0:	be 00 00 00 00       	mov    $0x0,%esi
    25c5:	48 89 c7             	mov    %rax,%rdi
    25c8:	e8 63 f3 ff ff       	callq  1930 <pthread_mutex_init@plt>
    25cd:	48 8b 45 f8          	mov    -0x8(%rbp),%rax
    25d1:	48 83 c0 28          	add    $0x28,%rax
    25d5:	be 00 00 00 00       	mov    $0x0,%esi
    25da:	48 89 c7             	mov    %rax,%rdi
    25dd:	e8 1e f2 ff ff       	callq  1800 <pthread_cond_init@plt>
    25e2:	48 8b 45 f8          	mov    -0x8(%rbp),%rax
    25e6:	8b 55 f4             	mov    -0xc(%rbp),%edx
    25e9:	89 50 58             	mov    %edx,0x58(%rax)
    25ec:	90                   	nop
    25ed:	c9                   	leaveq 
    25ee:	c3                   	retq   

00000000000025ef <_ZL10bsem_resetP4bsem>:
    25ef:	55                   	push   %rbp
    25f0:	48 89 e5             	mov    %rsp,%rbp
    25f3:	48 83 ec 10          	sub    $0x10,%rsp
    25f7:	48 89 7d f8          	mov    %rdi,-0x8(%rbp)
    25fb:	48 8b 45 f8          	mov    -0x8(%rbp),%rax
    25ff:	be 00 00 00 00       	mov    $0x0,%esi
    2604:	48 89 c7             	mov    %rax,%rdi
    2607:	e8 6b ff ff ff       	callq  2577 <_ZL9bsem_initP4bsemi>
    260c:	90                   	nop
    260d:	c9                   	leaveq 
    260e:	c3                   	retq   

000000000000260f <_ZL9bsem_postP4bsem>:
    260f:	55                   	push   %rbp
    2610:	48 89 e5             	mov    %rsp,%rbp
    2613:	48 83 ec 10          	sub    $0x10,%rsp
    2617:	48 89 7d f8          	mov    %rdi,-0x8(%rbp)
    261b:	48 8b 45 f8          	mov    -0x8(%rbp),%rax
    261f:	48 89 c7             	mov    %rax,%rdi
    2622:	e8 19 f3 ff ff       	callq  1940 <pthread_mutex_lock@plt>
    2627:	48 8b 45 f8          	mov    -0x8(%rbp),%rax
    262b:	c7 40 58 01 00 00 00 	movl   $0x1,0x58(%rax)
    2632:	48 8b 45 f8          	mov    -0x8(%rbp),%rax
    2636:	48 83 c0 28          	add    $0x28,%rax
    263a:	48 89 c7             	mov    %rax,%rdi
    263d:	e8 2e f1 ff ff       	callq  1770 <pthread_cond_signal@plt>
    2642:	48 8b 45 f8          	mov    -0x8(%rbp),%rax
    2646:	48 89 c7             	mov    %rax,%rdi
    2649:	e8 c2 f1 ff ff       	callq  1810 <pthread_mutex_unlock@plt>
    264e:	90                   	nop
    264f:	c9                   	leaveq 
    2650:	c3                   	retq   

0000000000002651 <_ZL13bsem_post_allP4bsem>:
    2651:	55                   	push   %rbp
    2652:	48 89 e5             	mov    %rsp,%rbp
    2655:	48 83 ec 10          	sub    $0x10,%rsp
    2659:	48 89 7d f8          	mov    %rdi,-0x8(%rbp)
    265d:	48 8b 45 f8          	mov    -0x8(%rbp),%rax
    2661:	48 89 c7             	mov    %rax,%rdi
    2664:	e8 d7 f2 ff ff       	callq  1940 <pthread_mutex_lock@plt>
    2669:	48 8b 45 f8          	mov    -0x8(%rbp),%rax
    266d:	c7 40 58 01 00 00 00 	movl   $0x1,0x58(%rax)
    2674:	48 8b 45 f8          	mov    -0x8(%rbp),%rax
    2678:	48 83 c0 28          	add    $0x28,%rax
    267c:	48 89 c7             	mov    %rax,%rdi
    267f:	e8 8c ef ff ff       	callq  1610 <pthread_cond_broadcast@plt>
    2684:	48 8b 45 f8          	mov    -0x8(%rbp),%rax
    2688:	48 89 c7             	mov    %rax,%rdi
    268b:	e8 80 f1 ff ff       	callq  1810 <pthread_mutex_unlock@plt>
    2690:	90                   	nop
    2691:	c9                   	leaveq 
    2692:	c3                   	retq   

0000000000002693 <_ZL9bsem_waitP4bsem>:
    2693:	55                   	push   %rbp
    2694:	48 89 e5             	mov    %rsp,%rbp
    2697:	48 83 ec 10          	sub    $0x10,%rsp
    269b:	48 89 7d f8          	mov    %rdi,-0x8(%rbp)
    269f:	48 8b 45 f8          	mov    -0x8(%rbp),%rax
    26a3:	48 89 c7             	mov    %rax,%rdi
    26a6:	e8 95 f2 ff ff       	callq  1940 <pthread_mutex_lock@plt>
    26ab:	48 8b 45 f8          	mov    -0x8(%rbp),%rax
    26af:	8b 40 58             	mov    0x58(%rax),%eax
    26b2:	83 f8 01             	cmp    $0x1,%eax
    26b5:	74 19                	je     26d0 <_ZL9bsem_waitP4bsem+0x3d>
    26b7:	48 8b 45 f8          	mov    -0x8(%rbp),%rax
    26bb:	48 8b 55 f8          	mov    -0x8(%rbp),%rdx
    26bf:	48 83 c2 28          	add    $0x28,%rdx
    26c3:	48 89 c6             	mov    %rax,%rsi
    26c6:	48 89 d7             	mov    %rdx,%rdi
    26c9:	e8 b2 ef ff ff       	callq  1680 <pthread_cond_wait@plt>
    26ce:	eb db                	jmp    26ab <_ZL9bsem_waitP4bsem+0x18>
    26d0:	48 8b 45 f8          	mov    -0x8(%rbp),%rax
    26d4:	c7 40 58 00 00 00 00 	movl   $0x0,0x58(%rax)
    26db:	48 8b 45 f8          	mov    -0x8(%rbp),%rax
    26df:	48 89 c7             	mov    %rax,%rdi
    26e2:	e8 29 f1 ff ff       	callq  1810 <pthread_mutex_unlock@plt>
    26e7:	90                   	nop
    26e8:	c9                   	leaveq 
    26e9:	c3                   	retq   

00000000000026ea <_ZL22_teavpn_send_handshakeitP11sockaddr_in>:
    26ea:	55                   	push   %rbp
    26eb:	48 89 e5             	mov    %rsp,%rbp
    26ee:	48 83 ec 10          	sub    $0x10,%rsp
    26f2:	89 7d fc             	mov    %edi,-0x4(%rbp)
    26f5:	89 f0                	mov    %esi,%eax
    26f7:	48 89 55 f0          	mov    %rdx,-0x10(%rbp)
    26fb:	66 89 45 f8          	mov    %ax,-0x8(%rbp)
    26ff:	48 8b 55 f0          	mov    -0x10(%rbp),%rdx
    2703:	48 8d 75 f8          	lea    -0x8(%rbp),%rsi
    2707:	8b 45 fc             	mov    -0x4(%rbp),%eax
    270a:	41 b9 10 00 00 00    	mov    $0x10,%r9d
    2710:	49 89 d0             	mov    %rdx,%r8
    2713:	b9 00 08 00 00       	mov    $0x800,%ecx
    2718:	ba 02 00 00 00       	mov    $0x2,%edx
    271d:	89 c7                	mov    %eax,%edi
    271f:	e8 0c f0 ff ff       	callq  1730 <sendto@plt>
    2724:	48 83 f8 02          	cmp    $0x2,%rax
    2728:	0f 94 c0             	sete   %al
    272b:	c9                   	leaveq 
    272c:	c3                   	retq   

000000000000272d <_ZL10teavpn_syniP11sockaddr_in>:
    272d:	55                   	push   %rbp
    272e:	48 89 e5             	mov    %rsp,%rbp
    2731:	48 83 ec 10          	sub    $0x10,%rsp
    2735:	89 7d fc             	mov    %edi,-0x4(%rbp)
    2738:	48 89 75 f0          	mov    %rsi,-0x10(%rbp)
    273c:	48 8b 55 f0          	mov    -0x10(%rbp),%rdx
    2740:	8b 45 fc             	mov    -0x4(%rbp),%eax
    2743:	be 22 22 00 00       	mov    $0x2222,%esi
    2748:	89 c7                	mov    %eax,%edi
    274a:	e8 9b ff ff ff       	callq  26ea <_ZL22_teavpn_send_handshakeitP11sockaddr_in>
    274f:	c9                   	leaveq 
    2750:	c3                   	retq   

0000000000002751 <_ZL10teavpn_ackiP11sockaddr_in>:
    2751:	55                   	push   %rbp
    2752:	48 89 e5             	mov    %rsp,%rbp
    2755:	48 83 ec 10          	sub    $0x10,%rsp
    2759:	89 7d fc             	mov    %edi,-0x4(%rbp)
    275c:	48 89 75 f0          	mov    %rsi,-0x10(%rbp)
    2760:	48 8b 55 f0          	mov    -0x10(%rbp),%rdx
    2764:	8b 45 fc             	mov    -0x4(%rbp),%eax
    2767:	be 11 11 00 00       	mov    $0x1111,%esi
    276c:	89 c7                	mov    %eax,%edi
    276e:	e8 77 ff ff ff       	callq  26ea <_ZL22_teavpn_send_handshakeitP11sockaddr_in>
    2773:	c9                   	leaveq 
    2774:	c3                   	retq   

0000000000002775 <_ZL10teavpn_nakiP11sockaddr_in>:
    2775:	55                   	push   %rbp
    2776:	48 89 e5             	mov    %rsp,%rbp
    2779:	48 83 ec 10          	sub    $0x10,%rsp
    277d:	89 7d fc             	mov    %edi,-0x4(%rbp)
    2780:	48 89 75 f0          	mov    %rsi,-0x10(%rbp)
    2784:	48 8b 55 f0          	mov    -0x10(%rbp),%rdx
    2788:	8b 45 fc             	mov    -0x4(%rbp),%eax
    278b:	be 33 33 00 00       	mov    $0x3333,%esi
    2790:	89 c7                	mov    %eax,%edi
    2792:	e8 53 ff ff ff       	callq  26ea <_ZL22_teavpn_send_handshakeitP11sockaddr_in>
    2797:	c9                   	leaveq 
    2798:	c3                   	retq   

0000000000002799 <_ZL13teavpn_synackiP11sockaddr_in>:
    2799:	55                   	push   %rbp
    279a:	48 89 e5             	mov    %rsp,%rbp
    279d:	48 83 ec 10          	sub    $0x10,%rsp
    27a1:	89 7d fc             	mov    %edi,-0x4(%rbp)
    27a4:	48 89 75 f0          	mov    %rsi,-0x10(%rbp)
    27a8:	48 8b 55 f0          	mov    -0x10(%rbp),%rdx
    27ac:	8b 45 fc             	mov    -0x4(%rbp),%eax
    27af:	be 44 44 00 00       	mov    $0x4444,%esi
    27b4:	89 c7                	mov    %eax,%edi
    27b6:	e8 2f ff ff ff       	callq  26ea <_ZL22_teavpn_send_handshakeitP11sockaddr_in>
    27bb:	c9                   	leaveq 
    27bc:	c3                   	retq   

00000000000027bd <_ZL13get_handshakeiP11sockaddr_in>:
    27bd:	55                   	push   %rbp
    27be:	48 89 e5             	mov    %rsp,%rbp
    27c1:	48 83 ec 30          	sub    $0x30,%rsp
    27c5:	89 7d dc             	mov    %edi,-0x24(%rbp)
    27c8:	48 89 75 d0          	mov    %rsi,-0x30(%rbp)
    27cc:	64 48 8b 04 25 28 00 	mov    %fs:0x28,%rax
    27d3:	00 00 
    27d5:	48 89 45 f8          	mov    %rax,-0x8(%rbp)
    27d9:	31 c0                	xor    %eax,%eax
    27db:	48 8b 55 d0          	mov    -0x30(%rbp),%rdx
    27df:	48 8d 75 ee          	lea    -0x12(%rbp),%rsi
    27e3:	8b 45 dc             	mov    -0x24(%rbp),%eax
    27e6:	4c 8d 0d 13 6a 20 00 	lea    0x206a13(%rip),%r9        # 209200 <_ZZL13get_handshakeiP11sockaddr_inE10remote_len>
    27ed:	49 89 d0             	mov    %rdx,%r8
    27f0:	b9 00 01 00 00       	mov    $0x100,%ecx
    27f5:	ba 02 00 00 00       	mov    $0x2,%edx
    27fa:	89 c7                	mov    %eax,%edi
    27fc:	e8 4f f0 ff ff       	callq  1850 <recvfrom@plt>
    2801:	48 89 45 f0          	mov    %rax,-0x10(%rbp)
    2805:	48 83 7d f0 02       	cmpq   $0x2,-0x10(%rbp)
    280a:	74 13                	je     281f <_ZL13get_handshakeiP11sockaddr_in+0x62>
    280c:	48 8d 3d 8d 3c 00 00 	lea    0x3c8d(%rip),%rdi        # 64a0 <_IO_stdin_used+0x1b0>
    2813:	e8 88 f0 ff ff       	callq  18a0 <perror@plt>
    2818:	b8 00 00 00 00       	mov    $0x0,%eax
    281d:	eb 04                	jmp    2823 <_ZL13get_handshakeiP11sockaddr_in+0x66>
    281f:	0f b7 45 ee          	movzwl -0x12(%rbp),%eax
    2823:	48 8b 4d f8          	mov    -0x8(%rbp),%rcx
    2827:	64 48 33 0c 25 28 00 	xor    %fs:0x28,%rcx
    282e:	00 00 
    2830:	74 05                	je     2837 <_ZL13get_handshakeiP11sockaddr_in+0x7a>
    2832:	e8 79 ee ff ff       	callq  16b0 <__stack_chk_fail@plt>
    2837:	c9                   	leaveq 
    2838:	c3                   	retq   

0000000000002839 <main>:
    2839:	55                   	push   %rbp
    283a:	48 89 e5             	mov    %rsp,%rbp
    283d:	48 83 c4 80          	add    $0xffffffffffffff80,%rsp
    2841:	89 7d 9c             	mov    %edi,-0x64(%rbp)
    2844:	48 89 75 90          	mov    %rsi,-0x70(%rbp)
    2848:	48 89 55 88          	mov    %rdx,-0x78(%rbp)
    284c:	64 48 8b 04 25 28 00 	mov    %fs:0x28,%rax
    2853:	00 00 
    2855:	48 89 45 f8          	mov    %rax,-0x8(%rbp)
    2859:	31 c0                	xor    %eax,%eax
    285b:	48 8b 45 90          	mov    -0x70(%rbp),%rax
    285f:	48 89 05 32 6a 20 00 	mov    %rax,0x206a32(%rip)        # 209298 <argv>
    2866:	48 8b 4d 88          	mov    -0x78(%rbp),%rcx
    286a:	48 8b 55 90          	mov    -0x70(%rbp),%rdx
    286e:	8b 75 9c             	mov    -0x64(%rbp),%esi
    2871:	48 8d 45 b0          	lea    -0x50(%rbp),%rax
    2875:	48 89 c7             	mov    %rax,%rdi
    2878:	e8 bc 30 00 00       	callq  5939 <_Z11argv_parserP14_teavpn_configiPPcS2_>
    287d:	83 f0 01             	xor    $0x1,%eax
    2880:	84 c0                	test   %al,%al
    2882:	74 06                	je     288a <main+0x51>
    2884:	c6 45 af 01          	movb   $0x1,-0x51(%rbp)
    2888:	eb 41                	jmp    28cb <main+0x92>
    288a:	8b 45 f0             	mov    -0x10(%rbp),%eax
    288d:	85 c0                	test   %eax,%eax
    288f:	74 07                	je     2898 <main+0x5f>
    2891:	83 f8 01             	cmp    $0x1,%eax
    2894:	74 13                	je     28a9 <main+0x70>
    2896:	eb 22                	jmp    28ba <main+0x81>
    2898:	48 8d 45 b0          	lea    -0x50(%rbp),%rax
    289c:	48 89 c7             	mov    %rax,%rdi
    289f:	e8 e5 11 00 00       	callq  3a89 <_Z17teavpn_tcp_serverP14_server_config>
    28a4:	88 45 af             	mov    %al,-0x51(%rbp)
    28a7:	eb 22                	jmp    28cb <main+0x92>
    28a9:	48 8d 45 b0          	lea    -0x50(%rbp),%rax
    28ad:	48 89 c7             	mov    %rax,%rdi
    28b0:	e8 67 29 00 00       	callq  521c <_Z17teavpn_tcp_clientP14_client_config>
    28b5:	88 45 af             	mov    %al,-0x51(%rbp)
    28b8:	eb 11                	jmp    28cb <main+0x92>
    28ba:	48 8d 3d f9 3b 00 00 	lea    0x3bf9(%rip),%rdi        # 64ba <_IO_stdin_used+0x1ca>
    28c1:	e8 5a ed ff ff       	callq  1620 <puts@plt>
    28c6:	c6 45 af 01          	movb   $0x1,-0x51(%rbp)
    28ca:	90                   	nop
    28cb:	0f b6 45 af          	movzbl -0x51(%rbp),%eax
    28cf:	48 8b 4d f8          	mov    -0x8(%rbp),%rcx
    28d3:	64 48 33 0c 25 28 00 	xor    %fs:0x28,%rcx
    28da:	00 00 
    28dc:	74 05                	je     28e3 <main+0xaa>
    28de:	e8 cd ed ff ff       	callq  16b0 <__stack_chk_fail@plt>
    28e3:	c9                   	leaveq 
    28e4:	c3                   	retq   

00000000000028e5 <_ZL22_teavpn_send_handshakeitP11sockaddr_in>:
    28e5:	55                   	push   %rbp
    28e6:	48 89 e5             	mov    %rsp,%rbp
    28e9:	48 83 ec 10          	sub    $0x10,%rsp
    28ed:	89 7d fc             	mov    %edi,-0x4(%rbp)
    28f0:	89 f0                	mov    %esi,%eax
    28f2:	48 89 55 f0          	mov    %rdx,-0x10(%rbp)
    28f6:	66 89 45 f8          	mov    %ax,-0x8(%rbp)
    28fa:	48 8b 55 f0          	mov    -0x10(%rbp),%rdx
    28fe:	48 8d 75 f8          	lea    -0x8(%rbp),%rsi
    2902:	8b 45 fc             	mov    -0x4(%rbp),%eax
    2905:	41 b9 10 00 00 00    	mov    $0x10,%r9d
    290b:	49 89 d0             	mov    %rdx,%r8
    290e:	b9 00 08 00 00       	mov    $0x800,%ecx
    2913:	ba 02 00 00 00       	mov    $0x2,%edx
    2918:	89 c7                	mov    %eax,%edi
    291a:	e8 11 ee ff ff       	callq  1730 <sendto@plt>
    291f:	48 83 f8 02          	cmp    $0x2,%rax
    2923:	0f 94 c0             	sete   %al
    2926:	c9                   	leaveq 
    2927:	c3                   	retq   

0000000000002928 <_ZL10teavpn_syniP11sockaddr_in>:
    2928:	55                   	push   %rbp
    2929:	48 89 e5             	mov    %rsp,%rbp
    292c:	48 83 ec 10          	sub    $0x10,%rsp
    2930:	89 7d fc             	mov    %edi,-0x4(%rbp)
    2933:	48 89 75 f0          	mov    %rsi,-0x10(%rbp)
    2937:	48 8b 55 f0          	mov    -0x10(%rbp),%rdx
    293b:	8b 45 fc             	mov    -0x4(%rbp),%eax
    293e:	be 22 22 00 00       	mov    $0x2222,%esi
    2943:	89 c7                	mov    %eax,%edi
    2945:	e8 9b ff ff ff       	callq  28e5 <_ZL22_teavpn_send_handshakeitP11sockaddr_in>
    294a:	c9                   	leaveq 
    294b:	c3                   	retq   

000000000000294c <_ZL10teavpn_ackiP11sockaddr_in>:
    294c:	55                   	push   %rbp
    294d:	48 89 e5             	mov    %rsp,%rbp
    2950:	48 83 ec 10          	sub    $0x10,%rsp
    2954:	89 7d fc             	mov    %edi,-0x4(%rbp)
    2957:	48 89 75 f0          	mov    %rsi,-0x10(%rbp)
    295b:	48 8b 55 f0          	mov    -0x10(%rbp),%rdx
    295f:	8b 45 fc             	mov    -0x4(%rbp),%eax
    2962:	be 11 11 00 00       	mov    $0x1111,%esi
    2967:	89 c7                	mov    %eax,%edi
    2969:	e8 77 ff ff ff       	callq  28e5 <_ZL22_teavpn_send_handshakeitP11sockaddr_in>
    296e:	c9                   	leaveq 
    296f:	c3                   	retq   

0000000000002970 <_ZL10teavpn_nakiP11sockaddr_in>:
    2970:	55                   	push   %rbp
    2971:	48 89 e5             	mov    %rsp,%rbp
    2974:	48 83 ec 10          	sub    $0x10,%rsp
    2978:	89 7d fc             	mov    %edi,-0x4(%rbp)
    297b:	48 89 75 f0          	mov    %rsi,-0x10(%rbp)
    297f:	48 8b 55 f0          	mov    -0x10(%rbp),%rdx
    2983:	8b 45 fc             	mov    -0x4(%rbp),%eax
    2986:	be 33 33 00 00       	mov    $0x3333,%esi
    298b:	89 c7                	mov    %eax,%edi
    298d:	e8 53 ff ff ff       	callq  28e5 <_ZL22_teavpn_send_handshakeitP11sockaddr_in>
    2992:	c9                   	leaveq 
    2993:	c3                   	retq   

0000000000002994 <_ZL13teavpn_synackiP11sockaddr_in>:
    2994:	55                   	push   %rbp
    2995:	48 89 e5             	mov    %rsp,%rbp
    2998:	48 83 ec 10          	sub    $0x10,%rsp
    299c:	89 7d fc             	mov    %edi,-0x4(%rbp)
    299f:	48 89 75 f0          	mov    %rsi,-0x10(%rbp)
    29a3:	48 8b 55 f0          	mov    -0x10(%rbp),%rdx
    29a7:	8b 45 fc             	mov    -0x4(%rbp),%eax
    29aa:	be 44 44 00 00       	mov    $0x4444,%esi
    29af:	89 c7                	mov    %eax,%edi
    29b1:	e8 2f ff ff ff       	callq  28e5 <_ZL22_teavpn_send_handshakeitP11sockaddr_in>
    29b6:	c9                   	leaveq 
    29b7:	c3                   	retq   

00000000000029b8 <_ZL13get_handshakeiP11sockaddr_in>:
    29b8:	55                   	push   %rbp
    29b9:	48 89 e5             	mov    %rsp,%rbp
    29bc:	48 83 ec 30          	sub    $0x30,%rsp
    29c0:	89 7d dc             	mov    %edi,-0x24(%rbp)
    29c3:	48 89 75 d0          	mov    %rsi,-0x30(%rbp)
    29c7:	64 48 8b 04 25 28 00 	mov    %fs:0x28,%rax
    29ce:	00 00 
    29d0:	48 89 45 f8          	mov    %rax,-0x8(%rbp)
    29d4:	31 c0                	xor    %eax,%eax
    29d6:	48 8b 55 d0          	mov    -0x30(%rbp),%rdx
    29da:	48 8d 75 ee          	lea    -0x12(%rbp),%rsi
    29de:	8b 45 dc             	mov    -0x24(%rbp),%eax
    29e1:	4c 8d 0d 1c 68 20 00 	lea    0x20681c(%rip),%r9        # 209204 <_ZZL13get_handshakeiP11sockaddr_inE10remote_len>
    29e8:	49 89 d0             	mov    %rdx,%r8
    29eb:	b9 00 01 00 00       	mov    $0x100,%ecx
    29f0:	ba 02 00 00 00       	mov    $0x2,%edx
    29f5:	89 c7                	mov    %eax,%edi
    29f7:	e8 54 ee ff ff       	callq  1850 <recvfrom@plt>
    29fc:	48 89 45 f0          	mov    %rax,-0x10(%rbp)
    2a00:	48 83 7d f0 02       	cmpq   $0x2,-0x10(%rbp)
    2a05:	74 13                	je     2a1a <_ZL13get_handshakeiP11sockaddr_in+0x62>
    2a07:	48 8d 3d c2 3a 00 00 	lea    0x3ac2(%rip),%rdi        # 64d0 <_IO_stdin_used+0x1e0>
    2a0e:	e8 8d ee ff ff       	callq  18a0 <perror@plt>
    2a13:	b8 00 00 00 00       	mov    $0x0,%eax
    2a18:	eb 04                	jmp    2a1e <_ZL13get_handshakeiP11sockaddr_in+0x66>
    2a1a:	0f b7 45 ee          	movzwl -0x12(%rbp),%eax
    2a1e:	48 8b 4d f8          	mov    -0x8(%rbp),%rcx
    2a22:	64 48 33 0c 25 28 00 	xor    %fs:0x28,%rcx
    2a29:	00 00 
    2a2b:	74 05                	je     2a32 <_ZL13get_handshakeiP11sockaddr_in+0x7a>
    2a2d:	e8 7e ec ff ff       	callq  16b0 <__stack_chk_fail@plt>
    2a32:	c9                   	leaveq 
    2a33:	c3                   	retq   

0000000000002a34 <_Z27teavpn_server_config_parserPcP14_server_config>:
    2a34:	55                   	push   %rbp
    2a35:	48 89 e5             	mov    %rsp,%rbp
    2a38:	48 81 ec 60 10 00 00 	sub    $0x1060,%rsp
    2a3f:	48 89 bd a8 ef ff ff 	mov    %rdi,-0x1058(%rbp)
    2a46:	48 89 b5 a0 ef ff ff 	mov    %rsi,-0x1060(%rbp)
    2a4d:	64 48 8b 04 25 28 00 	mov    %fs:0x28,%rax
    2a54:	00 00 
    2a56:	48 89 45 f8          	mov    %rax,-0x8(%rbp)
    2a5a:	31 c0                	xor    %eax,%eax
    2a5c:	66 c7 85 be ef ff ff 	movw   $0x1,-0x1042(%rbp)
    2a63:	01 00 
    2a65:	c6 85 bc ef ff ff 01 	movb   $0x1,-0x1044(%rbp)
    2a6c:	48 8b 85 a0 ef ff ff 	mov    -0x1060(%rbp),%rax
    2a73:	48 8b 40 08          	mov    0x8(%rax),%rax
    2a77:	48 8d 35 6c 3a 00 00 	lea    0x3a6c(%rip),%rsi        # 64ea <_IO_stdin_used+0x1fa>
    2a7e:	48 89 c7             	mov    %rax,%rdi
    2a81:	e8 0a ee ff ff       	callq  1890 <fopen@plt>
    2a86:	48 89 85 d8 ef ff ff 	mov    %rax,-0x1028(%rbp)
    2a8d:	48 83 bd d8 ef ff ff 	cmpq   $0x0,-0x1028(%rbp)
    2a94:	00 
    2a95:	75 29                	jne    2ac0 <_Z27teavpn_server_config_parserPcP14_server_config+0x8c>
    2a97:	48 8b 85 a0 ef ff ff 	mov    -0x1060(%rbp),%rax
    2a9e:	48 8b 40 08          	mov    0x8(%rax),%rax
    2aa2:	48 89 c6             	mov    %rax,%rsi
    2aa5:	48 8d 3d 40 3a 00 00 	lea    0x3a40(%rip),%rdi        # 64ec <_IO_stdin_used+0x1fc>
    2aac:	b8 00 00 00 00       	mov    $0x0,%eax
    2ab1:	e8 3a ec ff ff       	callq  16f0 <printf@plt>
    2ab6:	b8 00 00 00 00       	mov    $0x0,%eax
    2abb:	e9 08 07 00 00       	jmpq   31c8 <_Z27teavpn_server_config_parserPcP14_server_config+0x794>
    2ac0:	48 8b 95 d8 ef ff ff 	mov    -0x1028(%rbp),%rdx
    2ac7:	48 8d 85 f0 ef ff ff 	lea    -0x1010(%rbp),%rax
    2ace:	be ff 0f 00 00       	mov    $0xfff,%esi
    2ad3:	48 89 c7             	mov    %rax,%rdi
    2ad6:	e8 85 ec ff ff       	callq  1760 <fgets@plt>
    2adb:	48 85 c0             	test   %rax,%rax
    2ade:	0f 95 c0             	setne  %al
    2ae1:	84 c0                	test   %al,%al
    2ae3:	0f 84 c8 06 00 00    	je     31b1 <_Z27teavpn_server_config_parserPcP14_server_config+0x77d>
    2ae9:	48 8d 85 f0 ef ff ff 	lea    -0x1010(%rbp),%rax
    2af0:	48 89 c7             	mov    %rax,%rdi
    2af3:	e8 a8 eb ff ff       	callq  16a0 <strlen@plt>
    2af8:	48 89 85 e0 ef ff ff 	mov    %rax,-0x1020(%rbp)
    2aff:	48 8b 85 e0 ef ff ff 	mov    -0x1020(%rbp),%rax
    2b06:	48 83 e8 01          	sub    $0x1,%rax
    2b0a:	0f b6 84 05 f0 ef ff 	movzbl -0x1010(%rbp,%rax,1),%eax
    2b11:	ff 
    2b12:	3c 0a                	cmp    $0xa,%al
    2b14:	74 27                	je     2b3d <_Z27teavpn_server_config_parserPcP14_server_config+0x109>
    2b16:	48 8d 95 f0 ef ff ff 	lea    -0x1010(%rbp),%rdx
    2b1d:	48 8b 85 e0 ef ff ff 	mov    -0x1020(%rbp),%rax
    2b24:	48 01 d0             	add    %rdx,%rax
    2b27:	c6 00 0a             	movb   $0xa,(%rax)
    2b2a:	48 8b 85 e0 ef ff ff 	mov    -0x1020(%rbp),%rax
    2b31:	48 83 c0 01          	add    $0x1,%rax
    2b35:	c6 84 05 f0 ef ff ff 	movb   $0x0,-0x1010(%rbp,%rax,1)
    2b3c:	00 
    2b3d:	48 c7 85 d0 ef ff ff 	movq   $0x0,-0x1030(%rbp)
    2b44:	00 00 00 00 
    2b48:	48 8b 85 d0 ef ff ff 	mov    -0x1030(%rbp),%rax
    2b4f:	48 89 85 c8 ef ff ff 	mov    %rax,-0x1038(%rbp)
    2b56:	48 8b 85 c8 ef ff ff 	mov    -0x1038(%rbp),%rax
    2b5d:	48 89 85 e8 ef ff ff 	mov    %rax,-0x1018(%rbp)
    2b64:	48 8b 85 e8 ef ff ff 	mov    -0x1018(%rbp),%rax
    2b6b:	48 89 85 c0 ef ff ff 	mov    %rax,-0x1040(%rbp)
    2b72:	48 8d 95 f0 ef ff ff 	lea    -0x1010(%rbp),%rdx
    2b79:	48 8b 85 c0 ef ff ff 	mov    -0x1040(%rbp),%rax
    2b80:	48 01 d0             	add    %rdx,%rax
    2b83:	0f b6 00             	movzbl (%rax),%eax
    2b86:	3c 20                	cmp    $0x20,%al
    2b88:	74 30                	je     2bba <_Z27teavpn_server_config_parserPcP14_server_config+0x186>
    2b8a:	48 8d 95 f0 ef ff ff 	lea    -0x1010(%rbp),%rdx
    2b91:	48 8b 85 c0 ef ff ff 	mov    -0x1040(%rbp),%rax
    2b98:	48 01 d0             	add    %rdx,%rax
    2b9b:	0f b6 00             	movzbl (%rax),%eax
    2b9e:	3c 09                	cmp    $0x9,%al
    2ba0:	74 18                	je     2bba <_Z27teavpn_server_config_parserPcP14_server_config+0x186>
    2ba2:	48 8d 95 f0 ef ff ff 	lea    -0x1010(%rbp),%rdx
    2ba9:	48 8b 85 c0 ef ff ff 	mov    -0x1040(%rbp),%rax
    2bb0:	48 01 d0             	add    %rdx,%rax
    2bb3:	0f b6 00             	movzbl (%rax),%eax
    2bb6:	3c 0d                	cmp    $0xd,%al
    2bb8:	75 0a                	jne    2bc4 <_Z27teavpn_server_config_parserPcP14_server_config+0x190>
    2bba:	48 83 85 c0 ef ff ff 	addq   $0x1,-0x1040(%rbp)
    2bc1:	01 
    2bc2:	eb ae                	jmp    2b72 <_Z27teavpn_server_config_parserPcP14_server_config+0x13e>
    2bc4:	48 8b 85 c0 ef ff ff 	mov    -0x1040(%rbp),%rax
    2bcb:	48 89 85 e8 ef ff ff 	mov    %rax,-0x1018(%rbp)
    2bd2:	48 8d 95 f0 ef ff ff 	lea    -0x1010(%rbp),%rdx
    2bd9:	48 8b 85 c0 ef ff ff 	mov    -0x1040(%rbp),%rax
    2be0:	48 01 d0             	add    %rdx,%rax
    2be3:	0f b6 00             	movzbl (%rax),%eax
    2be6:	3c 23                	cmp    $0x23,%al
    2be8:	0f 84 bd 05 00 00    	je     31ab <_Z27teavpn_server_config_parserPcP14_server_config+0x777>
    2bee:	48 8d 95 f0 ef ff ff 	lea    -0x1010(%rbp),%rdx
    2bf5:	48 8b 85 c0 ef ff ff 	mov    -0x1040(%rbp),%rax
    2bfc:	48 01 d0             	add    %rdx,%rax
    2bff:	0f b6 00             	movzbl (%rax),%eax
    2c02:	3c 0a                	cmp    $0xa,%al
    2c04:	0f 84 a1 05 00 00    	je     31ab <_Z27teavpn_server_config_parserPcP14_server_config+0x777>
    2c0a:	48 8d 95 f0 ef ff ff 	lea    -0x1010(%rbp),%rdx
    2c11:	48 8b 85 c0 ef ff ff 	mov    -0x1040(%rbp),%rax
    2c18:	48 01 d0             	add    %rdx,%rax
    2c1b:	0f b6 00             	movzbl (%rax),%eax
    2c1e:	3c 3d                	cmp    $0x3d,%al
    2c20:	74 48                	je     2c6a <_Z27teavpn_server_config_parserPcP14_server_config+0x236>
    2c22:	48 8d 95 f0 ef ff ff 	lea    -0x1010(%rbp),%rdx
    2c29:	48 8b 85 c0 ef ff ff 	mov    -0x1040(%rbp),%rax
    2c30:	48 01 d0             	add    %rdx,%rax
    2c33:	0f b6 00             	movzbl (%rax),%eax
    2c36:	3c 0a                	cmp    $0xa,%al
    2c38:	75 26                	jne    2c60 <_Z27teavpn_server_config_parserPcP14_server_config+0x22c>
    2c3a:	0f b7 85 be ef ff ff 	movzwl -0x1042(%rbp),%eax
    2c41:	89 c6                	mov    %eax,%esi
    2c43:	48 8d 3d c6 38 00 00 	lea    0x38c6(%rip),%rdi        # 6510 <_IO_stdin_used+0x220>
    2c4a:	b8 00 00 00 00       	mov    $0x0,%eax
    2c4f:	e8 9c ea ff ff       	callq  16f0 <printf@plt>
    2c54:	c6 85 bc ef ff ff 00 	movb   $0x0,-0x1044(%rbp)
    2c5b:	e9 52 05 00 00       	jmpq   31b2 <_Z27teavpn_server_config_parserPcP14_server_config+0x77e>
    2c60:	48 83 85 c0 ef ff ff 	addq   $0x1,-0x1040(%rbp)
    2c67:	01 
    2c68:	eb a0                	jmp    2c0a <_Z27teavpn_server_config_parserPcP14_server_config+0x1d6>
    2c6a:	48 8d 95 f0 ef ff ff 	lea    -0x1010(%rbp),%rdx
    2c71:	48 8b 85 c0 ef ff ff 	mov    -0x1040(%rbp),%rax
    2c78:	48 01 d0             	add    %rdx,%rax
    2c7b:	c6 00 00             	movb   $0x0,(%rax)
    2c7e:	48 8b 85 c0 ef ff ff 	mov    -0x1040(%rbp),%rax
    2c85:	48 83 c0 01          	add    $0x1,%rax
    2c89:	48 89 85 c8 ef ff ff 	mov    %rax,-0x1038(%rbp)
    2c90:	48 83 ad c0 ef ff ff 	subq   $0x1,-0x1040(%rbp)
    2c97:	01 
    2c98:	c6 85 bd ef ff ff 00 	movb   $0x0,-0x1043(%rbp)
    2c9f:	48 8d 95 f0 ef ff ff 	lea    -0x1010(%rbp),%rdx
    2ca6:	48 8b 85 c0 ef ff ff 	mov    -0x1040(%rbp),%rax
    2cad:	48 01 d0             	add    %rdx,%rax
    2cb0:	0f b6 00             	movzbl (%rax),%eax
    2cb3:	3c 20                	cmp    $0x20,%al
    2cb5:	74 30                	je     2ce7 <_Z27teavpn_server_config_parserPcP14_server_config+0x2b3>
    2cb7:	48 8d 95 f0 ef ff ff 	lea    -0x1010(%rbp),%rdx
    2cbe:	48 8b 85 c0 ef ff ff 	mov    -0x1040(%rbp),%rax
    2cc5:	48 01 d0             	add    %rdx,%rax
    2cc8:	0f b6 00             	movzbl (%rax),%eax
    2ccb:	3c 09                	cmp    $0x9,%al
    2ccd:	74 18                	je     2ce7 <_Z27teavpn_server_config_parserPcP14_server_config+0x2b3>
    2ccf:	48 8d 95 f0 ef ff ff 	lea    -0x1010(%rbp),%rdx
    2cd6:	48 8b 85 c0 ef ff ff 	mov    -0x1040(%rbp),%rax
    2cdd:	48 01 d0             	add    %rdx,%rax
    2ce0:	0f b6 00             	movzbl (%rax),%eax
    2ce3:	3c 0d                	cmp    $0xd,%al
    2ce5:	75 11                	jne    2cf8 <_Z27teavpn_server_config_parserPcP14_server_config+0x2c4>
    2ce7:	48 83 ad c0 ef ff ff 	subq   $0x1,-0x1040(%rbp)
    2cee:	01 
    2cef:	c6 85 bd ef ff ff 01 	movb   $0x1,-0x1043(%rbp)
    2cf6:	eb a7                	jmp    2c9f <_Z27teavpn_server_config_parserPcP14_server_config+0x26b>
    2cf8:	80 bd bd ef ff ff 00 	cmpb   $0x0,-0x1043(%rbp)
    2cff:	74 13                	je     2d14 <_Z27teavpn_server_config_parserPcP14_server_config+0x2e0>
    2d01:	48 8b 85 c0 ef ff ff 	mov    -0x1040(%rbp),%rax
    2d08:	48 83 c0 01          	add    $0x1,%rax
    2d0c:	c6 84 05 f0 ef ff ff 	movb   $0x0,-0x1010(%rbp,%rax,1)
    2d13:	00 
    2d14:	48 8d 95 f0 ef ff ff 	lea    -0x1010(%rbp),%rdx
    2d1b:	48 8b 85 c8 ef ff ff 	mov    -0x1038(%rbp),%rax
    2d22:	48 01 d0             	add    %rdx,%rax
    2d25:	0f b6 00             	movzbl (%rax),%eax
    2d28:	3c 20                	cmp    $0x20,%al
    2d2a:	74 30                	je     2d5c <_Z27teavpn_server_config_parserPcP14_server_config+0x328>
    2d2c:	48 8d 95 f0 ef ff ff 	lea    -0x1010(%rbp),%rdx
    2d33:	48 8b 85 c8 ef ff ff 	mov    -0x1038(%rbp),%rax
    2d3a:	48 01 d0             	add    %rdx,%rax
    2d3d:	0f b6 00             	movzbl (%rax),%eax
    2d40:	3c 09                	cmp    $0x9,%al
    2d42:	74 18                	je     2d5c <_Z27teavpn_server_config_parserPcP14_server_config+0x328>
    2d44:	48 8d 95 f0 ef ff ff 	lea    -0x1010(%rbp),%rdx
    2d4b:	48 8b 85 c8 ef ff ff 	mov    -0x1038(%rbp),%rax
    2d52:	48 01 d0             	add    %rdx,%rax
    2d55:	0f b6 00             	movzbl (%rax),%eax
    2d58:	3c 0d                	cmp    $0xd,%al
    2d5a:	75 0a                	jne    2d66 <_Z27teavpn_server_config_parserPcP14_server_config+0x332>
    2d5c:	48 83 85 c8 ef ff ff 	addq   $0x1,-0x1038(%rbp)
    2d63:	01 
    2d64:	eb ae                	jmp    2d14 <_Z27teavpn_server_config_parserPcP14_server_config+0x2e0>
    2d66:	48 8b 85 c8 ef ff ff 	mov    -0x1038(%rbp),%rax
    2d6d:	48 89 85 d0 ef ff ff 	mov    %rax,-0x1030(%rbp)
    2d74:	48 8d 95 f0 ef ff ff 	lea    -0x1010(%rbp),%rdx
    2d7b:	48 8b 85 c8 ef ff ff 	mov    -0x1038(%rbp),%rax
    2d82:	48 01 d0             	add    %rdx,%rax
    2d85:	0f b6 00             	movzbl (%rax),%eax
    2d88:	3c 0a                	cmp    $0xa,%al
    2d8a:	75 19                	jne    2da5 <_Z27teavpn_server_config_parserPcP14_server_config+0x371>
    2d8c:	48 8d 95 f0 ef ff ff 	lea    -0x1010(%rbp),%rdx
    2d93:	48 8b 85 c8 ef ff ff 	mov    -0x1038(%rbp),%rax
    2d9a:	48 01 d0             	add    %rdx,%rax
    2d9d:	c6 00 00             	movb   $0x0,(%rax)
    2da0:	e9 fa 00 00 00       	jmpq   2e9f <_Z27teavpn_server_config_parserPcP14_server_config+0x46b>
    2da5:	48 8d 95 f0 ef ff ff 	lea    -0x1010(%rbp),%rdx
    2dac:	48 8b 85 d0 ef ff ff 	mov    -0x1030(%rbp),%rax
    2db3:	48 01 d0             	add    %rdx,%rax
    2db6:	0f b6 00             	movzbl (%rax),%eax
    2db9:	3c 0a                	cmp    $0xa,%al
    2dbb:	74 4a                	je     2e07 <_Z27teavpn_server_config_parserPcP14_server_config+0x3d3>
    2dbd:	48 8d 95 f0 ef ff ff 	lea    -0x1010(%rbp),%rdx
    2dc4:	48 8b 85 d0 ef ff ff 	mov    -0x1030(%rbp),%rax
    2dcb:	48 01 d0             	add    %rdx,%rax
    2dce:	0f b6 00             	movzbl (%rax),%eax
    2dd1:	3c 23                	cmp    $0x23,%al
    2dd3:	75 28                	jne    2dfd <_Z27teavpn_server_config_parserPcP14_server_config+0x3c9>
    2dd5:	48 8b 85 d0 ef ff ff 	mov    -0x1030(%rbp),%rax
    2ddc:	48 83 c0 01          	add    $0x1,%rax
    2de0:	48 89 85 e0 ef ff ff 	mov    %rax,-0x1020(%rbp)
    2de7:	48 8d 95 f0 ef ff ff 	lea    -0x1010(%rbp),%rdx
    2dee:	48 8b 85 d0 ef ff ff 	mov    -0x1030(%rbp),%rax
    2df5:	48 01 d0             	add    %rdx,%rax
    2df8:	c6 00 0a             	movb   $0xa,(%rax)
    2dfb:	eb 0a                	jmp    2e07 <_Z27teavpn_server_config_parserPcP14_server_config+0x3d3>
    2dfd:	48 83 85 d0 ef ff ff 	addq   $0x1,-0x1030(%rbp)
    2e04:	01 
    2e05:	eb 9e                	jmp    2da5 <_Z27teavpn_server_config_parserPcP14_server_config+0x371>
    2e07:	48 8d 95 f0 ef ff ff 	lea    -0x1010(%rbp),%rdx
    2e0e:	48 8b 85 d0 ef ff ff 	mov    -0x1030(%rbp),%rax
    2e15:	48 01 d0             	add    %rdx,%rax
    2e18:	c6 00 00             	movb   $0x0,(%rax)
    2e1b:	48 83 ad d0 ef ff ff 	subq   $0x1,-0x1030(%rbp)
    2e22:	01 
    2e23:	c6 85 bd ef ff ff 00 	movb   $0x0,-0x1043(%rbp)
    2e2a:	48 8d 95 f0 ef ff ff 	lea    -0x1010(%rbp),%rdx
    2e31:	48 8b 85 d0 ef ff ff 	mov    -0x1030(%rbp),%rax
    2e38:	48 01 d0             	add    %rdx,%rax
    2e3b:	0f b6 00             	movzbl (%rax),%eax
    2e3e:	3c 20                	cmp    $0x20,%al
    2e40:	74 30                	je     2e72 <_Z27teavpn_server_config_parserPcP14_server_config+0x43e>
    2e42:	48 8d 95 f0 ef ff ff 	lea    -0x1010(%rbp),%rdx
    2e49:	48 8b 85 d0 ef ff ff 	mov    -0x1030(%rbp),%rax
    2e50:	48 01 d0             	add    %rdx,%rax
    2e53:	0f b6 00             	movzbl (%rax),%eax
    2e56:	3c 09                	cmp    $0x9,%al
    2e58:	74 18                	je     2e72 <_Z27teavpn_server_config_parserPcP14_server_config+0x43e>
    2e5a:	48 8d 95 f0 ef ff ff 	lea    -0x1010(%rbp),%rdx
    2e61:	48 8b 85 d0 ef ff ff 	mov    -0x1030(%rbp),%rax
    2e68:	48 01 d0             	add    %rdx,%rax
    2e6b:	0f b6 00             	movzbl (%rax),%eax
    2e6e:	3c 0d                	cmp    $0xd,%al
    2e70:	75 11                	jne    2e83 <_Z27teavpn_server_config_parserPcP14_server_config+0x44f>
    2e72:	48 83 ad d0 ef ff ff 	subq   $0x1,-0x1030(%rbp)
    2e79:	01 
    2e7a:	c6 85 bd ef ff ff 01 	movb   $0x1,-0x1043(%rbp)
    2e81:	eb a7                	jmp    2e2a <_Z27teavpn_server_config_parserPcP14_server_config+0x3f6>
    2e83:	80 bd bd ef ff ff 00 	cmpb   $0x0,-0x1043(%rbp)
    2e8a:	74 13                	je     2e9f <_Z27teavpn_server_config_parserPcP14_server_config+0x46b>
    2e8c:	48 8b 85 d0 ef ff ff 	mov    -0x1030(%rbp),%rax
    2e93:	48 83 c0 01          	add    $0x1,%rax
    2e97:	c6 84 05 f0 ef ff ff 	movb   $0x0,-0x1010(%rbp,%rax,1)
    2e9e:	00 
    2e9f:	48 8d 95 f0 ef ff ff 	lea    -0x1010(%rbp),%rdx
    2ea6:	48 8b 85 e8 ef ff ff 	mov    -0x1018(%rbp),%rax
    2ead:	48 01 d0             	add    %rdx,%rax
    2eb0:	48 8d 35 90 36 00 00 	lea    0x3690(%rip),%rsi        # 6547 <_IO_stdin_used+0x257>
    2eb7:	48 89 c7             	mov    %rax,%rdi
    2eba:	e8 d1 e8 ff ff       	callq  1790 <strcmp@plt>
    2ebf:	85 c0                	test   %eax,%eax
    2ec1:	75 54                	jne    2f17 <_Z27teavpn_server_config_parserPcP14_server_config+0x4e3>
    2ec3:	48 8d 95 f0 ef ff ff 	lea    -0x1010(%rbp),%rdx
    2eca:	48 8b 85 c8 ef ff ff 	mov    -0x1038(%rbp),%rax
    2ed1:	48 01 c2             	add    %rax,%rdx
    2ed4:	48 8b 85 a8 ef ff ff 	mov    -0x1058(%rbp),%rax
    2edb:	48 89 d6             	mov    %rdx,%rsi
    2ede:	48 89 c7             	mov    %rax,%rdi
    2ee1:	e8 1a e7 ff ff       	callq  1600 <strcpy@plt>
    2ee6:	48 8b 85 a0 ef ff ff 	mov    -0x1060(%rbp),%rax
    2eed:	48 8b 95 a8 ef ff ff 	mov    -0x1058(%rbp),%rdx
    2ef4:	48 89 50 20          	mov    %rdx,0x20(%rax)
    2ef8:	48 8b 85 a8 ef ff ff 	mov    -0x1058(%rbp),%rax
    2eff:	48 89 c7             	mov    %rax,%rdi
    2f02:	e8 99 e7 ff ff       	callq  16a0 <strlen@plt>
    2f07:	48 83 c0 01          	add    $0x1,%rax
    2f0b:	48 01 85 a8 ef ff ff 	add    %rax,-0x1058(%rbp)
    2f12:	e9 7e 02 00 00       	jmpq   3195 <_Z27teavpn_server_config_parserPcP14_server_config+0x761>
    2f17:	48 8d 95 f0 ef ff ff 	lea    -0x1010(%rbp),%rdx
    2f1e:	48 8b 85 e8 ef ff ff 	mov    -0x1018(%rbp),%rax
    2f25:	48 01 d0             	add    %rdx,%rax
    2f28:	48 8d 35 1c 36 00 00 	lea    0x361c(%rip),%rsi        # 654b <_IO_stdin_used+0x25b>
    2f2f:	48 89 c7             	mov    %rax,%rdi
    2f32:	e8 59 e8 ff ff       	callq  1790 <strcmp@plt>
    2f37:	85 c0                	test   %eax,%eax
    2f39:	75 2b                	jne    2f66 <_Z27teavpn_server_config_parserPcP14_server_config+0x532>
    2f3b:	48 8d 95 f0 ef ff ff 	lea    -0x1010(%rbp),%rdx
    2f42:	48 8b 85 c8 ef ff ff 	mov    -0x1038(%rbp),%rax
    2f49:	48 01 d0             	add    %rdx,%rax
    2f4c:	48 89 c7             	mov    %rax,%rdi
    2f4f:	e8 7c e9 ff ff       	callq  18d0 <atoi@plt>
    2f54:	89 c2                	mov    %eax,%edx
    2f56:	48 8b 85 a0 ef ff ff 	mov    -0x1060(%rbp),%rax
    2f5d:	66 89 50 38          	mov    %dx,0x38(%rax)
    2f61:	e9 2f 02 00 00       	jmpq   3195 <_Z27teavpn_server_config_parserPcP14_server_config+0x761>
    2f66:	48 8d 95 f0 ef ff ff 	lea    -0x1010(%rbp),%rdx
    2f6d:	48 8b 85 e8 ef ff ff 	mov    -0x1018(%rbp),%rax
    2f74:	48 01 d0             	add    %rdx,%rax
    2f77:	48 8d 35 d1 35 00 00 	lea    0x35d1(%rip),%rsi        # 654f <_IO_stdin_used+0x25f>
    2f7e:	48 89 c7             	mov    %rax,%rdi
    2f81:	e8 0a e8 ff ff       	callq  1790 <strcmp@plt>
    2f86:	85 c0                	test   %eax,%eax
    2f88:	75 54                	jne    2fde <_Z27teavpn_server_config_parserPcP14_server_config+0x5aa>
    2f8a:	48 8d 95 f0 ef ff ff 	lea    -0x1010(%rbp),%rdx
    2f91:	48 8b 85 c8 ef ff ff 	mov    -0x1038(%rbp),%rax
    2f98:	48 01 c2             	add    %rax,%rdx
    2f9b:	48 8b 85 a8 ef ff ff 	mov    -0x1058(%rbp),%rax
    2fa2:	48 89 d6             	mov    %rdx,%rsi
    2fa5:	48 89 c7             	mov    %rax,%rdi
    2fa8:	e8 53 e6 ff ff       	callq  1600 <strcpy@plt>
    2fad:	48 8b 85 a0 ef ff ff 	mov    -0x1060(%rbp),%rax
    2fb4:	48 8b 95 a8 ef ff ff 	mov    -0x1058(%rbp),%rdx
    2fbb:	48 89 50 28          	mov    %rdx,0x28(%rax)
    2fbf:	48 8b 85 a8 ef ff ff 	mov    -0x1058(%rbp),%rax
    2fc6:	48 89 c7             	mov    %rax,%rdi
    2fc9:	e8 d2 e6 ff ff       	callq  16a0 <strlen@plt>
    2fce:	48 83 c0 01          	add    $0x1,%rax
    2fd2:	48 01 85 a8 ef ff ff 	add    %rax,-0x1058(%rbp)
    2fd9:	e9 b7 01 00 00       	jmpq   3195 <_Z27teavpn_server_config_parserPcP14_server_config+0x761>
    2fde:	48 8d 95 f0 ef ff ff 	lea    -0x1010(%rbp),%rdx
    2fe5:	48 8b 85 e8 ef ff ff 	mov    -0x1018(%rbp),%rax
    2fec:	48 01 d0             	add    %rdx,%rax
    2fef:	48 8d 35 5f 35 00 00 	lea    0x355f(%rip),%rsi        # 6555 <_IO_stdin_used+0x265>
    2ff6:	48 89 c7             	mov    %rax,%rdi
    2ff9:	e8 92 e7 ff ff       	callq  1790 <strcmp@plt>
    2ffe:	85 c0                	test   %eax,%eax
    3000:	75 53                	jne    3055 <_Z27teavpn_server_config_parserPcP14_server_config+0x621>
    3002:	48 8d 95 f0 ef ff ff 	lea    -0x1010(%rbp),%rdx
    3009:	48 8b 85 c8 ef ff ff 	mov    -0x1038(%rbp),%rax
    3010:	48 01 c2             	add    %rax,%rdx
    3013:	48 8b 85 a8 ef ff ff 	mov    -0x1058(%rbp),%rax
    301a:	48 89 d6             	mov    %rdx,%rsi
    301d:	48 89 c7             	mov    %rax,%rdi
    3020:	e8 db e5 ff ff       	callq  1600 <strcpy@plt>
    3025:	48 8b 85 a0 ef ff ff 	mov    -0x1060(%rbp),%rax
    302c:	48 8b 95 a8 ef ff ff 	mov    -0x1058(%rbp),%rdx
    3033:	48 89 10             	mov    %rdx,(%rax)
    3036:	48 8b 85 a8 ef ff ff 	mov    -0x1058(%rbp),%rax
    303d:	48 89 c7             	mov    %rax,%rdi
    3040:	e8 5b e6 ff ff       	callq  16a0 <strlen@plt>
    3045:	48 83 c0 01          	add    $0x1,%rax
    3049:	48 01 85 a8 ef ff ff 	add    %rax,-0x1058(%rbp)
    3050:	e9 40 01 00 00       	jmpq   3195 <_Z27teavpn_server_config_parserPcP14_server_config+0x761>
    3055:	48 8d 95 f0 ef ff ff 	lea    -0x1010(%rbp),%rdx
    305c:	48 8b 85 e8 ef ff ff 	mov    -0x1018(%rbp),%rax
    3063:	48 01 d0             	add    %rdx,%rax
    3066:	48 8d 35 f2 34 00 00 	lea    0x34f2(%rip),%rsi        # 655f <_IO_stdin_used+0x26f>
    306d:	48 89 c7             	mov    %rax,%rdi
    3070:	e8 1b e7 ff ff       	callq  1790 <strcmp@plt>
    3075:	85 c0                	test   %eax,%eax
    3077:	75 2b                	jne    30a4 <_Z27teavpn_server_config_parserPcP14_server_config+0x670>
    3079:	48 8d 95 f0 ef ff ff 	lea    -0x1010(%rbp),%rdx
    3080:	48 8b 85 c8 ef ff ff 	mov    -0x1038(%rbp),%rax
    3087:	48 01 d0             	add    %rdx,%rax
    308a:	48 89 c7             	mov    %rax,%rdi
    308d:	e8 3e e8 ff ff       	callq  18d0 <atoi@plt>
    3092:	89 c2                	mov    %eax,%edx
    3094:	48 8b 85 a0 ef ff ff 	mov    -0x1060(%rbp),%rax
    309b:	66 89 50 3a          	mov    %dx,0x3a(%rax)
    309f:	e9 f1 00 00 00       	jmpq   3195 <_Z27teavpn_server_config_parserPcP14_server_config+0x761>
    30a4:	48 8d 95 f0 ef ff ff 	lea    -0x1010(%rbp),%rdx
    30ab:	48 8b 85 e8 ef ff ff 	mov    -0x1018(%rbp),%rax
    30b2:	48 01 d0             	add    %rdx,%rax
    30b5:	48 8d 35 ad 34 00 00 	lea    0x34ad(%rip),%rsi        # 6569 <_IO_stdin_used+0x279>
    30bc:	48 89 c7             	mov    %rax,%rdi
    30bf:	e8 cc e6 ff ff       	callq  1790 <strcmp@plt>
    30c4:	85 c0                	test   %eax,%eax
    30c6:	75 2a                	jne    30f2 <_Z27teavpn_server_config_parserPcP14_server_config+0x6be>
    30c8:	48 8d 95 f0 ef ff ff 	lea    -0x1010(%rbp),%rdx
    30cf:	48 8b 85 c8 ef ff ff 	mov    -0x1038(%rbp),%rax
    30d6:	48 01 d0             	add    %rdx,%rax
    30d9:	48 89 c7             	mov    %rax,%rdi
    30dc:	e8 ef e7 ff ff       	callq  18d0 <atoi@plt>
    30e1:	89 c2                	mov    %eax,%edx
    30e3:	48 8b 85 a0 ef ff ff 	mov    -0x1060(%rbp),%rax
    30ea:	88 50 3d             	mov    %dl,0x3d(%rax)
    30ed:	e9 a3 00 00 00       	jmpq   3195 <_Z27teavpn_server_config_parserPcP14_server_config+0x761>
    30f2:	48 8d 95 f0 ef ff ff 	lea    -0x1010(%rbp),%rdx
    30f9:	48 8b 85 e8 ef ff ff 	mov    -0x1018(%rbp),%rax
    3100:	48 01 d0             	add    %rdx,%rax
    3103:	48 8d 35 67 34 00 00 	lea    0x3467(%rip),%rsi        # 6571 <_IO_stdin_used+0x281>
    310a:	48 89 c7             	mov    %rax,%rdi
    310d:	e8 7e e6 ff ff       	callq  1790 <strcmp@plt>
    3112:	85 c0                	test   %eax,%eax
    3114:	75 51                	jne    3167 <_Z27teavpn_server_config_parserPcP14_server_config+0x733>
    3116:	48 8d 95 f0 ef ff ff 	lea    -0x1010(%rbp),%rdx
    311d:	48 8b 85 c8 ef ff ff 	mov    -0x1038(%rbp),%rax
    3124:	48 01 c2             	add    %rax,%rdx
    3127:	48 8b 85 a8 ef ff ff 	mov    -0x1058(%rbp),%rax
    312e:	48 89 d6             	mov    %rdx,%rsi
    3131:	48 89 c7             	mov    %rax,%rdi
    3134:	e8 c7 e4 ff ff       	callq  1600 <strcpy@plt>
    3139:	48 8b 85 a0 ef ff ff 	mov    -0x1060(%rbp),%rax
    3140:	48 8b 95 a8 ef ff ff 	mov    -0x1058(%rbp),%rdx
    3147:	48 89 50 18          	mov    %rdx,0x18(%rax)
    314b:	48 8b 85 a8 ef ff ff 	mov    -0x1058(%rbp),%rax
    3152:	48 89 c7             	mov    %rax,%rdi
    3155:	e8 46 e5 ff ff       	callq  16a0 <strlen@plt>
    315a:	48 83 c0 01          	add    $0x1,%rax
    315e:	48 01 85 a8 ef ff ff 	add    %rax,-0x1058(%rbp)
    3165:	eb 2e                	jmp    3195 <_Z27teavpn_server_config_parserPcP14_server_config+0x761>
    3167:	0f b7 85 be ef ff ff 	movzwl -0x1042(%rbp),%eax
    316e:	48 8d 8d f0 ef ff ff 	lea    -0x1010(%rbp),%rcx
    3175:	48 8b 95 e8 ef ff ff 	mov    -0x1018(%rbp),%rdx
    317c:	48 01 d1             	add    %rdx,%rcx
    317f:	89 c2                	mov    %eax,%edx
    3181:	48 89 ce             	mov    %rcx,%rsi
    3184:	48 8d 3d f5 33 00 00 	lea    0x33f5(%rip),%rdi        # 6580 <_IO_stdin_used+0x290>
    318b:	b8 00 00 00 00       	mov    $0x0,%eax
    3190:	e8 5b e5 ff ff       	callq  16f0 <printf@plt>
    3195:	0f b7 85 be ef ff ff 	movzwl -0x1042(%rbp),%eax
    319c:	83 c0 01             	add    $0x1,%eax
    319f:	66 89 85 be ef ff ff 	mov    %ax,-0x1042(%rbp)
    31a6:	e9 15 f9 ff ff       	jmpq   2ac0 <_Z27teavpn_server_config_parserPcP14_server_config+0x8c>
    31ab:	90                   	nop
    31ac:	e9 0f f9 ff ff       	jmpq   2ac0 <_Z27teavpn_server_config_parserPcP14_server_config+0x8c>
    31b1:	90                   	nop
    31b2:	48 8b 85 d8 ef ff ff 	mov    -0x1028(%rbp),%rax
    31b9:	48 89 c7             	mov    %rax,%rdi
    31bc:	e8 cf e4 ff ff       	callq  1690 <fclose@plt>
    31c1:	0f b6 85 bc ef ff ff 	movzbl -0x1044(%rbp),%eax
    31c8:	48 8b 4d f8          	mov    -0x8(%rbp),%rcx
    31cc:	64 48 33 0c 25 28 00 	xor    %fs:0x28,%rcx
    31d3:	00 00 
    31d5:	74 05                	je     31dc <_Z27teavpn_server_config_parserPcP14_server_config+0x7a8>
    31d7:	e8 d4 e4 ff ff       	callq  16b0 <__stack_chk_fail@plt>
    31dc:	c9                   	leaveq 
    31dd:	c3                   	retq   

00000000000031de <_Z27teavpn_client_config_parserPcP14_client_config>:
    31de:	55                   	push   %rbp
    31df:	48 89 e5             	mov    %rsp,%rbp
    31e2:	48 81 ec 60 10 00 00 	sub    $0x1060,%rsp
    31e9:	48 89 bd a8 ef ff ff 	mov    %rdi,-0x1058(%rbp)
    31f0:	48 89 b5 a0 ef ff ff 	mov    %rsi,-0x1060(%rbp)
    31f7:	64 48 8b 04 25 28 00 	mov    %fs:0x28,%rax
    31fe:	00 00 
    3200:	48 89 45 f8          	mov    %rax,-0x8(%rbp)
    3204:	31 c0                	xor    %eax,%eax
    3206:	66 c7 85 be ef ff ff 	movw   $0x1,-0x1042(%rbp)
    320d:	01 00 
    320f:	c6 85 bc ef ff ff 01 	movb   $0x1,-0x1044(%rbp)
    3216:	48 8b 85 a0 ef ff ff 	mov    -0x1060(%rbp),%rax
    321d:	48 8b 40 08          	mov    0x8(%rax),%rax
    3221:	48 8d 35 c2 32 00 00 	lea    0x32c2(%rip),%rsi        # 64ea <_IO_stdin_used+0x1fa>
    3228:	48 89 c7             	mov    %rax,%rdi
    322b:	e8 60 e6 ff ff       	callq  1890 <fopen@plt>
    3230:	48 89 85 d8 ef ff ff 	mov    %rax,-0x1028(%rbp)
    3237:	48 83 bd d8 ef ff ff 	cmpq   $0x0,-0x1028(%rbp)
    323e:	00 
    323f:	75 29                	jne    326a <_Z27teavpn_client_config_parserPcP14_client_config+0x8c>
    3241:	48 8b 85 a0 ef ff ff 	mov    -0x1060(%rbp),%rax
    3248:	48 8b 40 08          	mov    0x8(%rax),%rax
    324c:	48 89 c6             	mov    %rax,%rsi
    324f:	48 8d 3d 96 32 00 00 	lea    0x3296(%rip),%rdi        # 64ec <_IO_stdin_used+0x1fc>
    3256:	b8 00 00 00 00       	mov    $0x0,%eax
    325b:	e8 90 e4 ff ff       	callq  16f0 <printf@plt>
    3260:	b8 00 00 00 00       	mov    $0x0,%eax
    3265:	e9 ba 06 00 00       	jmpq   3924 <_Z27teavpn_client_config_parserPcP14_client_config+0x746>
    326a:	48 8b 95 d8 ef ff ff 	mov    -0x1028(%rbp),%rdx
    3271:	48 8d 85 f0 ef ff ff 	lea    -0x1010(%rbp),%rax
    3278:	be ff 0f 00 00       	mov    $0xfff,%esi
    327d:	48 89 c7             	mov    %rax,%rdi
    3280:	e8 db e4 ff ff       	callq  1760 <fgets@plt>
    3285:	48 85 c0             	test   %rax,%rax
    3288:	0f 95 c0             	setne  %al
    328b:	84 c0                	test   %al,%al
    328d:	0f 84 7a 06 00 00    	je     390d <_Z27teavpn_client_config_parserPcP14_client_config+0x72f>
    3293:	48 8d 85 f0 ef ff ff 	lea    -0x1010(%rbp),%rax
    329a:	48 89 c7             	mov    %rax,%rdi
    329d:	e8 fe e3 ff ff       	callq  16a0 <strlen@plt>
    32a2:	48 89 85 e0 ef ff ff 	mov    %rax,-0x1020(%rbp)
    32a9:	48 8b 85 e0 ef ff ff 	mov    -0x1020(%rbp),%rax
    32b0:	48 83 e8 01          	sub    $0x1,%rax
    32b4:	0f b6 84 05 f0 ef ff 	movzbl -0x1010(%rbp,%rax,1),%eax
    32bb:	ff 
    32bc:	3c 0a                	cmp    $0xa,%al
    32be:	74 27                	je     32e7 <_Z27teavpn_client_config_parserPcP14_client_config+0x109>
    32c0:	48 8d 95 f0 ef ff ff 	lea    -0x1010(%rbp),%rdx
    32c7:	48 8b 85 e0 ef ff ff 	mov    -0x1020(%rbp),%rax
    32ce:	48 01 d0             	add    %rdx,%rax
    32d1:	c6 00 0a             	movb   $0xa,(%rax)
    32d4:	48 8b 85 e0 ef ff ff 	mov    -0x1020(%rbp),%rax
    32db:	48 83 c0 01          	add    $0x1,%rax
    32df:	c6 84 05 f0 ef ff ff 	movb   $0x0,-0x1010(%rbp,%rax,1)
    32e6:	00 
    32e7:	48 c7 85 d0 ef ff ff 	movq   $0x0,-0x1030(%rbp)
    32ee:	00 00 00 00 
    32f2:	48 8b 85 d0 ef ff ff 	mov    -0x1030(%rbp),%rax
    32f9:	48 89 85 c8 ef ff ff 	mov    %rax,-0x1038(%rbp)
    3300:	48 8b 85 c8 ef ff ff 	mov    -0x1038(%rbp),%rax
    3307:	48 89 85 e8 ef ff ff 	mov    %rax,-0x1018(%rbp)
    330e:	48 8b 85 e8 ef ff ff 	mov    -0x1018(%rbp),%rax
    3315:	48 89 85 c0 ef ff ff 	mov    %rax,-0x1040(%rbp)
    331c:	48 8d 95 f0 ef ff ff 	lea    -0x1010(%rbp),%rdx
    3323:	48 8b 85 c0 ef ff ff 	mov    -0x1040(%rbp),%rax
    332a:	48 01 d0             	add    %rdx,%rax
    332d:	0f b6 00             	movzbl (%rax),%eax
    3330:	3c 20                	cmp    $0x20,%al
    3332:	74 30                	je     3364 <_Z27teavpn_client_config_parserPcP14_client_config+0x186>
    3334:	48 8d 95 f0 ef ff ff 	lea    -0x1010(%rbp),%rdx
    333b:	48 8b 85 c0 ef ff ff 	mov    -0x1040(%rbp),%rax
    3342:	48 01 d0             	add    %rdx,%rax
    3345:	0f b6 00             	movzbl (%rax),%eax
    3348:	3c 09                	cmp    $0x9,%al
    334a:	74 18                	je     3364 <_Z27teavpn_client_config_parserPcP14_client_config+0x186>
    334c:	48 8d 95 f0 ef ff ff 	lea    -0x1010(%rbp),%rdx
    3353:	48 8b 85 c0 ef ff ff 	mov    -0x1040(%rbp),%rax
    335a:	48 01 d0             	add    %rdx,%rax
    335d:	0f b6 00             	movzbl (%rax),%eax
    3360:	3c 0d                	cmp    $0xd,%al
    3362:	75 0a                	jne    336e <_Z27teavpn_client_config_parserPcP14_client_config+0x190>
    3364:	48 83 85 c0 ef ff ff 	addq   $0x1,-0x1040(%rbp)
    336b:	01 
    336c:	eb ae                	jmp    331c <_Z27teavpn_client_config_parserPcP14_client_config+0x13e>
    336e:	48 8b 85 c0 ef ff ff 	mov    -0x1040(%rbp),%rax
    3375:	48 89 85 e8 ef ff ff 	mov    %rax,-0x1018(%rbp)
    337c:	48 8d 95 f0 ef ff ff 	lea    -0x1010(%rbp),%rdx
    3383:	48 8b 85 c0 ef ff ff 	mov    -0x1040(%rbp),%rax
    338a:	48 01 d0             	add    %rdx,%rax
    338d:	0f b6 00             	movzbl (%rax),%eax
    3390:	3c 23                	cmp    $0x23,%al
    3392:	0f 84 6f 05 00 00    	je     3907 <_Z27teavpn_client_config_parserPcP14_client_config+0x729>
    3398:	48 8d 95 f0 ef ff ff 	lea    -0x1010(%rbp),%rdx
    339f:	48 8b 85 c0 ef ff ff 	mov    -0x1040(%rbp),%rax
    33a6:	48 01 d0             	add    %rdx,%rax
    33a9:	0f b6 00             	movzbl (%rax),%eax
    33ac:	3c 0a                	cmp    $0xa,%al
    33ae:	0f 84 53 05 00 00    	je     3907 <_Z27teavpn_client_config_parserPcP14_client_config+0x729>
    33b4:	48 8d 95 f0 ef ff ff 	lea    -0x1010(%rbp),%rdx
    33bb:	48 8b 85 c0 ef ff ff 	mov    -0x1040(%rbp),%rax
    33c2:	48 01 d0             	add    %rdx,%rax
    33c5:	0f b6 00             	movzbl (%rax),%eax
    33c8:	3c 3d                	cmp    $0x3d,%al
    33ca:	74 48                	je     3414 <_Z27teavpn_client_config_parserPcP14_client_config+0x236>
    33cc:	48 8d 95 f0 ef ff ff 	lea    -0x1010(%rbp),%rdx
    33d3:	48 8b 85 c0 ef ff ff 	mov    -0x1040(%rbp),%rax
    33da:	48 01 d0             	add    %rdx,%rax
    33dd:	0f b6 00             	movzbl (%rax),%eax
    33e0:	3c 0a                	cmp    $0xa,%al
    33e2:	75 26                	jne    340a <_Z27teavpn_client_config_parserPcP14_client_config+0x22c>
    33e4:	0f b7 85 be ef ff ff 	movzwl -0x1042(%rbp),%eax
    33eb:	89 c6                	mov    %eax,%esi
    33ed:	48 8d 3d 1c 31 00 00 	lea    0x311c(%rip),%rdi        # 6510 <_IO_stdin_used+0x220>
    33f4:	b8 00 00 00 00       	mov    $0x0,%eax
    33f9:	e8 f2 e2 ff ff       	callq  16f0 <printf@plt>
    33fe:	c6 85 bc ef ff ff 00 	movb   $0x0,-0x1044(%rbp)
    3405:	e9 04 05 00 00       	jmpq   390e <_Z27teavpn_client_config_parserPcP14_client_config+0x730>
    340a:	48 83 85 c0 ef ff ff 	addq   $0x1,-0x1040(%rbp)
    3411:	01 
    3412:	eb a0                	jmp    33b4 <_Z27teavpn_client_config_parserPcP14_client_config+0x1d6>
    3414:	48 8d 95 f0 ef ff ff 	lea    -0x1010(%rbp),%rdx
    341b:	48 8b 85 c0 ef ff ff 	mov    -0x1040(%rbp),%rax
    3422:	48 01 d0             	add    %rdx,%rax
    3425:	c6 00 00             	movb   $0x0,(%rax)
    3428:	48 8b 85 c0 ef ff ff 	mov    -0x1040(%rbp),%rax
    342f:	48 83 c0 01          	add    $0x1,%rax
    3433:	48 89 85 c8 ef ff ff 	mov    %rax,-0x1038(%rbp)
    343a:	48 83 ad c0 ef ff ff 	subq   $0x1,-0x1040(%rbp)
    3441:	01 
    3442:	c6 85 bd ef ff ff 00 	movb   $0x0,-0x1043(%rbp)
    3449:	48 8d 95 f0 ef ff ff 	lea    -0x1010(%rbp),%rdx
    3450:	48 8b 85 c0 ef ff ff 	mov    -0x1040(%rbp),%rax
    3457:	48 01 d0             	add    %rdx,%rax
    345a:	0f b6 00             	movzbl (%rax),%eax
    345d:	3c 20                	cmp    $0x20,%al
    345f:	74 30                	je     3491 <_Z27teavpn_client_config_parserPcP14_client_config+0x2b3>
    3461:	48 8d 95 f0 ef ff ff 	lea    -0x1010(%rbp),%rdx
    3468:	48 8b 85 c0 ef ff ff 	mov    -0x1040(%rbp),%rax
    346f:	48 01 d0             	add    %rdx,%rax
    3472:	0f b6 00             	movzbl (%rax),%eax
    3475:	3c 09                	cmp    $0x9,%al
    3477:	74 18                	je     3491 <_Z27teavpn_client_config_parserPcP14_client_config+0x2b3>
    3479:	48 8d 95 f0 ef ff ff 	lea    -0x1010(%rbp),%rdx
    3480:	48 8b 85 c0 ef ff ff 	mov    -0x1040(%rbp),%rax
    3487:	48 01 d0             	add    %rdx,%rax
    348a:	0f b6 00             	movzbl (%rax),%eax
    348d:	3c 0d                	cmp    $0xd,%al
    348f:	75 11                	jne    34a2 <_Z27teavpn_client_config_parserPcP14_client_config+0x2c4>
    3491:	48 83 ad c0 ef ff ff 	subq   $0x1,-0x1040(%rbp)
    3498:	01 
    3499:	c6 85 bd ef ff ff 01 	movb   $0x1,-0x1043(%rbp)
    34a0:	eb a7                	jmp    3449 <_Z27teavpn_client_config_parserPcP14_client_config+0x26b>
    34a2:	80 bd bd ef ff ff 00 	cmpb   $0x0,-0x1043(%rbp)
    34a9:	74 13                	je     34be <_Z27teavpn_client_config_parserPcP14_client_config+0x2e0>
    34ab:	48 8b 85 c0 ef ff ff 	mov    -0x1040(%rbp),%rax
    34b2:	48 83 c0 01          	add    $0x1,%rax
    34b6:	c6 84 05 f0 ef ff ff 	movb   $0x0,-0x1010(%rbp,%rax,1)
    34bd:	00 
    34be:	48 8d 95 f0 ef ff ff 	lea    -0x1010(%rbp),%rdx
    34c5:	48 8b 85 c8 ef ff ff 	mov    -0x1038(%rbp),%rax
    34cc:	48 01 d0             	add    %rdx,%rax
    34cf:	0f b6 00             	movzbl (%rax),%eax
    34d2:	3c 20                	cmp    $0x20,%al
    34d4:	74 30                	je     3506 <_Z27teavpn_client_config_parserPcP14_client_config+0x328>
    34d6:	48 8d 95 f0 ef ff ff 	lea    -0x1010(%rbp),%rdx
    34dd:	48 8b 85 c8 ef ff ff 	mov    -0x1038(%rbp),%rax
    34e4:	48 01 d0             	add    %rdx,%rax
    34e7:	0f b6 00             	movzbl (%rax),%eax
    34ea:	3c 09                	cmp    $0x9,%al
    34ec:	74 18                	je     3506 <_Z27teavpn_client_config_parserPcP14_client_config+0x328>
    34ee:	48 8d 95 f0 ef ff ff 	lea    -0x1010(%rbp),%rdx
    34f5:	48 8b 85 c8 ef ff ff 	mov    -0x1038(%rbp),%rax
    34fc:	48 01 d0             	add    %rdx,%rax
    34ff:	0f b6 00             	movzbl (%rax),%eax
    3502:	3c 0d                	cmp    $0xd,%al
    3504:	75 0a                	jne    3510 <_Z27teavpn_client_config_parserPcP14_client_config+0x332>
    3506:	48 83 85 c8 ef ff ff 	addq   $0x1,-0x1038(%rbp)
    350d:	01 
    350e:	eb ae                	jmp    34be <_Z27teavpn_client_config_parserPcP14_client_config+0x2e0>
    3510:	48 8b 85 c8 ef ff ff 	mov    -0x1038(%rbp),%rax
    3517:	48 89 85 d0 ef ff ff 	mov    %rax,-0x1030(%rbp)
    351e:	48 8d 95 f0 ef ff ff 	lea    -0x1010(%rbp),%rdx
    3525:	48 8b 85 c8 ef ff ff 	mov    -0x1038(%rbp),%rax
    352c:	48 01 d0             	add    %rdx,%rax
    352f:	0f b6 00             	movzbl (%rax),%eax
    3532:	3c 0a                	cmp    $0xa,%al
    3534:	75 19                	jne    354f <_Z27teavpn_client_config_parserPcP14_client_config+0x371>
    3536:	48 8d 95 f0 ef ff ff 	lea    -0x1010(%rbp),%rdx
    353d:	48 8b 85 c8 ef ff ff 	mov    -0x1038(%rbp),%rax
    3544:	48 01 d0             	add    %rdx,%rax
    3547:	c6 00 00             	movb   $0x0,(%rax)
    354a:	e9 fa 00 00 00       	jmpq   3649 <_Z27teavpn_client_config_parserPcP14_client_config+0x46b>
    354f:	48 8d 95 f0 ef ff ff 	lea    -0x1010(%rbp),%rdx
    3556:	48 8b 85 d0 ef ff ff 	mov    -0x1030(%rbp),%rax
    355d:	48 01 d0             	add    %rdx,%rax
    3560:	0f b6 00             	movzbl (%rax),%eax
    3563:	3c 0a                	cmp    $0xa,%al
    3565:	74 4a                	je     35b1 <_Z27teavpn_client_config_parserPcP14_client_config+0x3d3>
    3567:	48 8d 95 f0 ef ff ff 	lea    -0x1010(%rbp),%rdx
    356e:	48 8b 85 d0 ef ff ff 	mov    -0x1030(%rbp),%rax
    3575:	48 01 d0             	add    %rdx,%rax
    3578:	0f b6 00             	movzbl (%rax),%eax
    357b:	3c 23                	cmp    $0x23,%al
    357d:	75 28                	jne    35a7 <_Z27teavpn_client_config_parserPcP14_client_config+0x3c9>
    357f:	48 8b 85 d0 ef ff ff 	mov    -0x1030(%rbp),%rax
    3586:	48 83 c0 01          	add    $0x1,%rax
    358a:	48 89 85 e0 ef ff ff 	mov    %rax,-0x1020(%rbp)
    3591:	48 8d 95 f0 ef ff ff 	lea    -0x1010(%rbp),%rdx
    3598:	48 8b 85 d0 ef ff ff 	mov    -0x1030(%rbp),%rax
    359f:	48 01 d0             	add    %rdx,%rax
    35a2:	c6 00 0a             	movb   $0xa,(%rax)
    35a5:	eb 0a                	jmp    35b1 <_Z27teavpn_client_config_parserPcP14_client_config+0x3d3>
    35a7:	48 83 85 d0 ef ff ff 	addq   $0x1,-0x1030(%rbp)
    35ae:	01 
    35af:	eb 9e                	jmp    354f <_Z27teavpn_client_config_parserPcP14_client_config+0x371>
    35b1:	48 8d 95 f0 ef ff ff 	lea    -0x1010(%rbp),%rdx
    35b8:	48 8b 85 d0 ef ff ff 	mov    -0x1030(%rbp),%rax
    35bf:	48 01 d0             	add    %rdx,%rax
    35c2:	c6 00 00             	movb   $0x0,(%rax)
    35c5:	48 83 ad d0 ef ff ff 	subq   $0x1,-0x1030(%rbp)
    35cc:	01 
    35cd:	c6 85 bd ef ff ff 00 	movb   $0x0,-0x1043(%rbp)
    35d4:	48 8d 95 f0 ef ff ff 	lea    -0x1010(%rbp),%rdx
    35db:	48 8b 85 d0 ef ff ff 	mov    -0x1030(%rbp),%rax
    35e2:	48 01 d0             	add    %rdx,%rax
    35e5:	0f b6 00             	movzbl (%rax),%eax
    35e8:	3c 20                	cmp    $0x20,%al
    35ea:	74 30                	je     361c <_Z27teavpn_client_config_parserPcP14_client_config+0x43e>
    35ec:	48 8d 95 f0 ef ff ff 	lea    -0x1010(%rbp),%rdx
    35f3:	48 8b 85 d0 ef ff ff 	mov    -0x1030(%rbp),%rax
    35fa:	48 01 d0             	add    %rdx,%rax
    35fd:	0f b6 00             	movzbl (%rax),%eax
    3600:	3c 09                	cmp    $0x9,%al
    3602:	74 18                	je     361c <_Z27teavpn_client_config_parserPcP14_client_config+0x43e>
    3604:	48 8d 95 f0 ef ff ff 	lea    -0x1010(%rbp),%rdx
    360b:	48 8b 85 d0 ef ff ff 	mov    -0x1030(%rbp),%rax
    3612:	48 01 d0             	add    %rdx,%rax
    3615:	0f b6 00             	movzbl (%rax),%eax
    3618:	3c 0d                	cmp    $0xd,%al
    361a:	75 11                	jne    362d <_Z27teavpn_client_config_parserPcP14_client_config+0x44f>
    361c:	48 83 ad d0 ef ff ff 	subq   $0x1,-0x1030(%rbp)
    3623:	01 
    3624:	c6 85 bd ef ff ff 01 	movb   $0x1,-0x1043(%rbp)
    362b:	eb a7                	jmp    35d4 <_Z27teavpn_client_config_parserPcP14_client_config+0x3f6>
    362d:	80 bd bd ef ff ff 00 	cmpb   $0x0,-0x1043(%rbp)
    3634:	74 13                	je     3649 <_Z27teavpn_client_config_parserPcP14_client_config+0x46b>
    3636:	48 8b 85 d0 ef ff ff 	mov    -0x1030(%rbp),%rax
    363d:	48 83 c0 01          	add    $0x1,%rax
    3641:	c6 84 05 f0 ef ff ff 	movb   $0x0,-0x1010(%rbp,%rax,1)
    3648:	00 
    3649:	48 8d 95 f0 ef ff ff 	lea    -0x1010(%rbp),%rdx
    3650:	48 8b 85 e8 ef ff ff 	mov    -0x1018(%rbp),%rax
    3657:	48 01 d0             	add    %rdx,%rax
    365a:	48 8d 35 e6 2e 00 00 	lea    0x2ee6(%rip),%rsi        # 6547 <_IO_stdin_used+0x257>
    3661:	48 89 c7             	mov    %rax,%rdi
    3664:	e8 27 e1 ff ff       	callq  1790 <strcmp@plt>
    3669:	85 c0                	test   %eax,%eax
    366b:	75 54                	jne    36c1 <_Z27teavpn_client_config_parserPcP14_client_config+0x4e3>
    366d:	48 8d 95 f0 ef ff ff 	lea    -0x1010(%rbp),%rdx
    3674:	48 8b 85 c8 ef ff ff 	mov    -0x1038(%rbp),%rax
    367b:	48 01 c2             	add    %rax,%rdx
    367e:	48 8b 85 a8 ef ff ff 	mov    -0x1058(%rbp),%rax
    3685:	48 89 d6             	mov    %rdx,%rsi
    3688:	48 89 c7             	mov    %rax,%rdi
    368b:	e8 70 df ff ff       	callq  1600 <strcpy@plt>
    3690:	48 8b 85 a0 ef ff ff 	mov    -0x1060(%rbp),%rax
    3697:	48 8b 95 a8 ef ff ff 	mov    -0x1058(%rbp),%rdx
    369e:	48 89 50 18          	mov    %rdx,0x18(%rax)
    36a2:	48 8b 85 a8 ef ff ff 	mov    -0x1058(%rbp),%rax
    36a9:	48 89 c7             	mov    %rax,%rdi
    36ac:	e8 ef df ff ff       	callq  16a0 <strlen@plt>
    36b1:	48 83 c0 01          	add    $0x1,%rax
    36b5:	48 01 85 a8 ef ff ff 	add    %rax,-0x1058(%rbp)
    36bc:	e9 30 02 00 00       	jmpq   38f1 <_Z27teavpn_client_config_parserPcP14_client_config+0x713>
    36c1:	48 8d 95 f0 ef ff ff 	lea    -0x1010(%rbp),%rdx
    36c8:	48 8b 85 e8 ef ff ff 	mov    -0x1018(%rbp),%rax
    36cf:	48 01 d0             	add    %rdx,%rax
    36d2:	48 8d 35 72 2e 00 00 	lea    0x2e72(%rip),%rsi        # 654b <_IO_stdin_used+0x25b>
    36d9:	48 89 c7             	mov    %rax,%rdi
    36dc:	e8 af e0 ff ff       	callq  1790 <strcmp@plt>
    36e1:	85 c0                	test   %eax,%eax
    36e3:	75 2b                	jne    3710 <_Z27teavpn_client_config_parserPcP14_client_config+0x532>
    36e5:	48 8d 95 f0 ef ff ff 	lea    -0x1010(%rbp),%rdx
    36ec:	48 8b 85 c8 ef ff ff 	mov    -0x1038(%rbp),%rax
    36f3:	48 01 d0             	add    %rdx,%rax
    36f6:	48 89 c7             	mov    %rax,%rdi
    36f9:	e8 d2 e1 ff ff       	callq  18d0 <atoi@plt>
    36fe:	89 c2                	mov    %eax,%edx
    3700:	48 8b 85 a0 ef ff ff 	mov    -0x1060(%rbp),%rax
    3707:	66 89 50 20          	mov    %dx,0x20(%rax)
    370b:	e9 e1 01 00 00       	jmpq   38f1 <_Z27teavpn_client_config_parserPcP14_client_config+0x713>
    3710:	48 8d 95 f0 ef ff ff 	lea    -0x1010(%rbp),%rdx
    3717:	48 8b 85 e8 ef ff ff 	mov    -0x1018(%rbp),%rax
    371e:	48 01 d0             	add    %rdx,%rax
    3721:	48 8d 35 7c 2e 00 00 	lea    0x2e7c(%rip),%rsi        # 65a4 <_IO_stdin_used+0x2b4>
    3728:	48 89 c7             	mov    %rax,%rdi
    372b:	e8 60 e0 ff ff       	callq  1790 <strcmp@plt>
    3730:	85 c0                	test   %eax,%eax
    3732:	75 53                	jne    3787 <_Z27teavpn_client_config_parserPcP14_client_config+0x5a9>
    3734:	48 8d 95 f0 ef ff ff 	lea    -0x1010(%rbp),%rdx
    373b:	48 8b 85 c8 ef ff ff 	mov    -0x1038(%rbp),%rax
    3742:	48 01 c2             	add    %rax,%rdx
    3745:	48 8b 85 a8 ef ff ff 	mov    -0x1058(%rbp),%rax
    374c:	48 89 d6             	mov    %rdx,%rsi
    374f:	48 89 c7             	mov    %rax,%rdi
    3752:	e8 a9 de ff ff       	callq  1600 <strcpy@plt>
    3757:	48 8b 85 a0 ef ff ff 	mov    -0x1060(%rbp),%rax
    375e:	48 8b 95 a8 ef ff ff 	mov    -0x1058(%rbp),%rdx
    3765:	48 89 10             	mov    %rdx,(%rax)
    3768:	48 8b 85 a8 ef ff ff 	mov    -0x1058(%rbp),%rax
    376f:	48 89 c7             	mov    %rax,%rdi
    3772:	e8 29 df ff ff       	callq  16a0 <strlen@plt>
    3777:	48 83 c0 01          	add    $0x1,%rax
    377b:	48 01 85 a8 ef ff ff 	add    %rax,-0x1058(%rbp)
    3782:	e9 6a 01 00 00       	jmpq   38f1 <_Z27teavpn_client_config_parserPcP14_client_config+0x713>
    3787:	48 8d 95 f0 ef ff ff 	lea    -0x1010(%rbp),%rdx
    378e:	48 8b 85 e8 ef ff ff 	mov    -0x1018(%rbp),%rax
    3795:	48 01 d0             	add    %rdx,%rax
    3798:	48 8d 35 0f 2e 00 00 	lea    0x2e0f(%rip),%rsi        # 65ae <_IO_stdin_used+0x2be>
    379f:	48 89 c7             	mov    %rax,%rdi
    37a2:	e8 e9 df ff ff       	callq  1790 <strcmp@plt>
    37a7:	85 c0                	test   %eax,%eax
    37a9:	75 2b                	jne    37d6 <_Z27teavpn_client_config_parserPcP14_client_config+0x5f8>
    37ab:	48 8d 95 f0 ef ff ff 	lea    -0x1010(%rbp),%rdx
    37b2:	48 8b 85 c8 ef ff ff 	mov    -0x1038(%rbp),%rax
    37b9:	48 01 d0             	add    %rdx,%rax
    37bc:	48 89 c7             	mov    %rax,%rdi
    37bf:	e8 0c e1 ff ff       	callq  18d0 <atoi@plt>
    37c4:	89 c2                	mov    %eax,%edx
    37c6:	48 8b 85 a0 ef ff ff 	mov    -0x1060(%rbp),%rax
    37cd:	66 89 50 3a          	mov    %dx,0x3a(%rax)
    37d1:	e9 1b 01 00 00       	jmpq   38f1 <_Z27teavpn_client_config_parserPcP14_client_config+0x713>
    37d6:	48 8d 95 f0 ef ff ff 	lea    -0x1010(%rbp),%rdx
    37dd:	48 8b 85 e8 ef ff ff 	mov    -0x1018(%rbp),%rax
    37e4:	48 01 d0             	add    %rdx,%rax
    37e7:	48 8d 35 cc 2d 00 00 	lea    0x2dcc(%rip),%rsi        # 65ba <_IO_stdin_used+0x2ca>
    37ee:	48 89 c7             	mov    %rax,%rdi
    37f1:	e8 9a df ff ff       	callq  1790 <strcmp@plt>
    37f6:	85 c0                	test   %eax,%eax
    37f8:	75 6e                	jne    3868 <_Z27teavpn_client_config_parserPcP14_client_config+0x68a>
    37fa:	48 8d 95 f0 ef ff ff 	lea    -0x1010(%rbp),%rdx
    3801:	48 8b 85 c8 ef ff ff 	mov    -0x1038(%rbp),%rax
    3808:	48 01 c2             	add    %rax,%rdx
    380b:	48 8b 85 a8 ef ff ff 	mov    -0x1058(%rbp),%rax
    3812:	48 89 d6             	mov    %rdx,%rsi
    3815:	48 89 c7             	mov    %rax,%rdi
    3818:	e8 e3 dd ff ff       	callq  1600 <strcpy@plt>
    381d:	48 8b 85 a0 ef ff ff 	mov    -0x1060(%rbp),%rax
    3824:	48 8b 95 a8 ef ff ff 	mov    -0x1058(%rbp),%rdx
    382b:	48 89 50 28          	mov    %rdx,0x28(%rax)
    382f:	48 8b 85 a8 ef ff ff 	mov    -0x1058(%rbp),%rax
    3836:	48 89 c7             	mov    %rax,%rdi
    3839:	e8 62 de ff ff       	callq  16a0 <strlen@plt>
    383e:	89 c2                	mov    %eax,%edx
    3840:	48 8b 85 a0 ef ff ff 	mov    -0x1060(%rbp),%rax
    3847:	88 50 38             	mov    %dl,0x38(%rax)
    384a:	48 8b 85 a0 ef ff ff 	mov    -0x1060(%rbp),%rax
    3851:	0f b6 40 38          	movzbl 0x38(%rax),%eax
    3855:	0f b6 c0             	movzbl %al,%eax
    3858:	48 83 c0 01          	add    $0x1,%rax
    385c:	48 01 85 a8 ef ff ff 	add    %rax,-0x1058(%rbp)
    3863:	e9 89 00 00 00       	jmpq   38f1 <_Z27teavpn_client_config_parserPcP14_client_config+0x713>
    3868:	48 8d 95 f0 ef ff ff 	lea    -0x1010(%rbp),%rdx
    386f:	48 8b 85 e8 ef ff ff 	mov    -0x1018(%rbp),%rax
    3876:	48 01 d0             	add    %rdx,%rax
    3879:	48 8d 35 43 2d 00 00 	lea    0x2d43(%rip),%rsi        # 65c3 <_IO_stdin_used+0x2d3>
    3880:	48 89 c7             	mov    %rax,%rdi
    3883:	e8 08 df ff ff       	callq  1790 <strcmp@plt>
    3888:	85 c0                	test   %eax,%eax
    388a:	75 65                	jne    38f1 <_Z27teavpn_client_config_parserPcP14_client_config+0x713>
    388c:	48 8d 95 f0 ef ff ff 	lea    -0x1010(%rbp),%rdx
    3893:	48 8b 85 c8 ef ff ff 	mov    -0x1038(%rbp),%rax
    389a:	48 01 c2             	add    %rax,%rdx
    389d:	48 8b 85 a8 ef ff ff 	mov    -0x1058(%rbp),%rax
    38a4:	48 89 d6             	mov    %rdx,%rsi
    38a7:	48 89 c7             	mov    %rax,%rdi
    38aa:	e8 51 dd ff ff       	callq  1600 <strcpy@plt>
    38af:	48 8b 85 a0 ef ff ff 	mov    -0x1060(%rbp),%rax
    38b6:	48 8b 95 a8 ef ff ff 	mov    -0x1058(%rbp),%rdx
    38bd:	48 89 50 30          	mov    %rdx,0x30(%rax)
    38c1:	48 8b 85 a8 ef ff ff 	mov    -0x1058(%rbp),%rax
    38c8:	48 89 c7             	mov    %rax,%rdi
    38cb:	e8 d0 dd ff ff       	callq  16a0 <strlen@plt>
    38d0:	89 c2                	mov    %eax,%edx
    38d2:	48 8b 85 a0 ef ff ff 	mov    -0x1060(%rbp),%rax
    38d9:	88 50 39             	mov    %dl,0x39(%rax)
    38dc:	48 8b 85 a0 ef ff ff 	mov    -0x1060(%rbp),%rax
    38e3:	0f b6 40 39          	movzbl 0x39(%rax),%eax
    38e7:	0f b6 c0             	movzbl %al,%eax
    38ea:	48 01 85 a8 ef ff ff 	add    %rax,-0x1058(%rbp)
    38f1:	0f b7 85 be ef ff ff 	movzwl -0x1042(%rbp),%eax
    38f8:	83 c0 01             	add    $0x1,%eax
    38fb:	66 89 85 be ef ff ff 	mov    %ax,-0x1042(%rbp)
    3902:	e9 63 f9 ff ff       	jmpq   326a <_Z27teavpn_client_config_parserPcP14_client_config+0x8c>
    3907:	90                   	nop
    3908:	e9 5d f9 ff ff       	jmpq   326a <_Z27teavpn_client_config_parserPcP14_client_config+0x8c>
    390d:	90                   	nop
    390e:	48 8b 85 d8 ef ff ff 	mov    -0x1028(%rbp),%rax
    3915:	48 89 c7             	mov    %rax,%rdi
    3918:	e8 73 dd ff ff       	callq  1690 <fclose@plt>
    391d:	0f b6 85 bc ef ff ff 	movzbl -0x1044(%rbp),%eax
    3924:	48 8b 4d f8          	mov    -0x8(%rbp),%rcx
    3928:	64 48 33 0c 25 28 00 	xor    %fs:0x28,%rcx
    392f:	00 00 
    3931:	74 05                	je     3938 <_Z27teavpn_client_config_parserPcP14_client_config+0x75a>
    3933:	e8 78 dd ff ff       	callq  16b0 <__stack_chk_fail@plt>
    3938:	c9                   	leaveq 
    3939:	c3                   	retq   

000000000000393a <_ZL22_teavpn_send_handshakeitP11sockaddr_in>:
    393a:	55                   	push   %rbp
    393b:	48 89 e5             	mov    %rsp,%rbp
    393e:	48 83 ec 10          	sub    $0x10,%rsp
    3942:	89 7d fc             	mov    %edi,-0x4(%rbp)
    3945:	89 f0                	mov    %esi,%eax
    3947:	48 89 55 f0          	mov    %rdx,-0x10(%rbp)
    394b:	66 89 45 f8          	mov    %ax,-0x8(%rbp)
    394f:	48 8b 55 f0          	mov    -0x10(%rbp),%rdx
    3953:	48 8d 75 f8          	lea    -0x8(%rbp),%rsi
    3957:	8b 45 fc             	mov    -0x4(%rbp),%eax
    395a:	41 b9 10 00 00 00    	mov    $0x10,%r9d
    3960:	49 89 d0             	mov    %rdx,%r8
    3963:	b9 00 08 00 00       	mov    $0x800,%ecx
    3968:	ba 02 00 00 00       	mov    $0x2,%edx
    396d:	89 c7                	mov    %eax,%edi
    396f:	e8 bc dd ff ff       	callq  1730 <sendto@plt>
    3974:	48 83 f8 02          	cmp    $0x2,%rax
    3978:	0f 94 c0             	sete   %al
    397b:	c9                   	leaveq 
    397c:	c3                   	retq   

000000000000397d <_ZL10teavpn_syniP11sockaddr_in>:
    397d:	55                   	push   %rbp
    397e:	48 89 e5             	mov    %rsp,%rbp
    3981:	48 83 ec 10          	sub    $0x10,%rsp
    3985:	89 7d fc             	mov    %edi,-0x4(%rbp)
    3988:	48 89 75 f0          	mov    %rsi,-0x10(%rbp)
    398c:	48 8b 55 f0          	mov    -0x10(%rbp),%rdx
    3990:	8b 45 fc             	mov    -0x4(%rbp),%eax
    3993:	be 22 22 00 00       	mov    $0x2222,%esi
    3998:	89 c7                	mov    %eax,%edi
    399a:	e8 9b ff ff ff       	callq  393a <_ZL22_teavpn_send_handshakeitP11sockaddr_in>
    399f:	c9                   	leaveq 
    39a0:	c3                   	retq   

00000000000039a1 <_ZL10teavpn_ackiP11sockaddr_in>:
    39a1:	55                   	push   %rbp
    39a2:	48 89 e5             	mov    %rsp,%rbp
    39a5:	48 83 ec 10          	sub    $0x10,%rsp
    39a9:	89 7d fc             	mov    %edi,-0x4(%rbp)
    39ac:	48 89 75 f0          	mov    %rsi,-0x10(%rbp)
    39b0:	48 8b 55 f0          	mov    -0x10(%rbp),%rdx
    39b4:	8b 45 fc             	mov    -0x4(%rbp),%eax
    39b7:	be 11 11 00 00       	mov    $0x1111,%esi
    39bc:	89 c7                	mov    %eax,%edi
    39be:	e8 77 ff ff ff       	callq  393a <_ZL22_teavpn_send_handshakeitP11sockaddr_in>
    39c3:	c9                   	leaveq 
    39c4:	c3                   	retq   

00000000000039c5 <_ZL10teavpn_nakiP11sockaddr_in>:
    39c5:	55                   	push   %rbp
    39c6:	48 89 e5             	mov    %rsp,%rbp
    39c9:	48 83 ec 10          	sub    $0x10,%rsp
    39cd:	89 7d fc             	mov    %edi,-0x4(%rbp)
    39d0:	48 89 75 f0          	mov    %rsi,-0x10(%rbp)
    39d4:	48 8b 55 f0          	mov    -0x10(%rbp),%rdx
    39d8:	8b 45 fc             	mov    -0x4(%rbp),%eax
    39db:	be 33 33 00 00       	mov    $0x3333,%esi
    39e0:	89 c7                	mov    %eax,%edi
    39e2:	e8 53 ff ff ff       	callq  393a <_ZL22_teavpn_send_handshakeitP11sockaddr_in>
    39e7:	c9                   	leaveq 
    39e8:	c3                   	retq   

00000000000039e9 <_ZL13teavpn_synackiP11sockaddr_in>:
    39e9:	55                   	push   %rbp
    39ea:	48 89 e5             	mov    %rsp,%rbp
    39ed:	48 83 ec 10          	sub    $0x10,%rsp
    39f1:	89 7d fc             	mov    %edi,-0x4(%rbp)
    39f4:	48 89 75 f0          	mov    %rsi,-0x10(%rbp)
    39f8:	48 8b 55 f0          	mov    -0x10(%rbp),%rdx
    39fc:	8b 45 fc             	mov    -0x4(%rbp),%eax
    39ff:	be 44 44 00 00       	mov    $0x4444,%esi
    3a04:	89 c7                	mov    %eax,%edi
    3a06:	e8 2f ff ff ff       	callq  393a <_ZL22_teavpn_send_handshakeitP11sockaddr_in>
    3a0b:	c9                   	leaveq 
    3a0c:	c3                   	retq   

0000000000003a0d <_ZL13get_handshakeiP11sockaddr_in>:
    3a0d:	55                   	push   %rbp
    3a0e:	48 89 e5             	mov    %rsp,%rbp
    3a11:	48 83 ec 30          	sub    $0x30,%rsp
    3a15:	89 7d dc             	mov    %edi,-0x24(%rbp)
    3a18:	48 89 75 d0          	mov    %rsi,-0x30(%rbp)
    3a1c:	64 48 8b 04 25 28 00 	mov    %fs:0x28,%rax
    3a23:	00 00 
    3a25:	48 89 45 f8          	mov    %rax,-0x8(%rbp)
    3a29:	31 c0                	xor    %eax,%eax
    3a2b:	48 8b 55 d0          	mov    -0x30(%rbp),%rdx
    3a2f:	48 8d 75 ee          	lea    -0x12(%rbp),%rsi
    3a33:	8b 45 dc             	mov    -0x24(%rbp),%eax
    3a36:	4c 8d 0d cb 57 20 00 	lea    0x2057cb(%rip),%r9        # 209208 <_ZZL13get_handshakeiP11sockaddr_inE10remote_len>
    3a3d:	49 89 d0             	mov    %rdx,%r8
    3a40:	b9 00 01 00 00       	mov    $0x100,%ecx
    3a45:	ba 02 00 00 00       	mov    $0x2,%edx
    3a4a:	89 c7                	mov    %eax,%edi
    3a4c:	e8 ff dd ff ff       	callq  1850 <recvfrom@plt>
    3a51:	48 89 45 f0          	mov    %rax,-0x10(%rbp)
    3a55:	48 83 7d f0 02       	cmpq   $0x2,-0x10(%rbp)
    3a5a:	74 13                	je     3a6f <_ZL13get_handshakeiP11sockaddr_in+0x62>
    3a5c:	48 8d 3d 6d 2b 00 00 	lea    0x2b6d(%rip),%rdi        # 65d0 <_IO_stdin_used+0x2e0>
    3a63:	e8 38 de ff ff       	callq  18a0 <perror@plt>
    3a68:	b8 00 00 00 00       	mov    $0x0,%eax
    3a6d:	eb 04                	jmp    3a73 <_ZL13get_handshakeiP11sockaddr_in+0x66>
    3a6f:	0f b7 45 ee          	movzwl -0x12(%rbp),%eax
    3a73:	48 8b 4d f8          	mov    -0x8(%rbp),%rcx
    3a77:	64 48 33 0c 25 28 00 	xor    %fs:0x28,%rcx
    3a7e:	00 00 
    3a80:	74 05                	je     3a87 <_ZL13get_handshakeiP11sockaddr_in+0x7a>
    3a82:	e8 29 dc ff ff       	callq  16b0 <__stack_chk_fail@plt>
    3a87:	c9                   	leaveq 
    3a88:	c3                   	retq   

0000000000003a89 <_Z17teavpn_tcp_serverP14_server_config>:
    3a89:	55                   	push   %rbp
    3a8a:	48 89 e5             	mov    %rsp,%rbp
    3a8d:	53                   	push   %rbx
    3a8e:	48 81 ec 58 a7 00 00 	sub    $0xa758,%rsp
    3a95:	48 89 bd a8 58 ff ff 	mov    %rdi,-0xa758(%rbp)
    3a9c:	64 48 8b 04 25 28 00 	mov    %fs:0x28,%rax
    3aa3:	00 00 
    3aa5:	48 89 45 e8          	mov    %rax,-0x18(%rbp)
    3aa9:	31 c0                	xor    %eax,%eax
    3aab:	48 c7 85 d8 58 ff ff 	movq   $0x0,-0xa728(%rbp)
    3ab2:	00 00 00 00 
    3ab6:	48 c7 85 e0 58 ff ff 	movq   $0x0,-0xa720(%rbp)
    3abd:	00 00 00 00 
    3ac1:	48 8d 85 80 59 ff ff 	lea    -0xa680(%rbp),%rax
    3ac8:	48 89 05 e9 57 20 00 	mov    %rax,0x2057e9(%rip)        # 2092b8 <_ZL7entries>
    3acf:	48 8d 85 20 5f ff ff 	lea    -0xa0e0(%rbp),%rax
    3ad6:	48 89 05 d3 57 20 00 	mov    %rax,0x2057d3(%rip)        # 2092b0 <_ZL7bufchan>
    3add:	c6 85 b8 58 ff ff 00 	movb   $0x0,-0xa748(%rbp)
    3ae4:	80 bd b8 58 ff ff 1d 	cmpb   $0x1d,-0xa748(%rbp)
    3aeb:	77 33                	ja     3b20 <_Z17teavpn_tcp_serverP14_server_config+0x97>
    3aed:	48 8b 0d c4 57 20 00 	mov    0x2057c4(%rip),%rcx        # 2092b8 <_ZL7entries>
    3af4:	0f b6 95 b8 58 ff ff 	movzbl -0xa748(%rbp),%edx
    3afb:	48 89 d0             	mov    %rdx,%rax
    3afe:	48 01 c0             	add    %rax,%rax
    3b01:	48 01 d0             	add    %rdx,%rax
    3b04:	48 c1 e0 04          	shl    $0x4,%rax
    3b08:	48 01 c8             	add    %rcx,%rax
    3b0b:	c6 00 00             	movb   $0x0,(%rax)
    3b0e:	0f b6 85 b8 58 ff ff 	movzbl -0xa748(%rbp),%eax
    3b15:	83 c0 01             	add    $0x1,%eax
    3b18:	88 85 b8 58 ff ff    	mov    %al,-0xa748(%rbp)
    3b1e:	eb c4                	jmp    3ae4 <_Z17teavpn_tcp_serverP14_server_config+0x5b>
    3b20:	c6 85 b9 58 ff ff 00 	movb   $0x0,-0xa747(%rbp)
    3b27:	80 bd b9 58 ff ff 17 	cmpb   $0x17,-0xa747(%rbp)
    3b2e:	77 75                	ja     3ba5 <_Z17teavpn_tcp_serverP14_server_config+0x11c>
    3b30:	48 8b 15 79 57 20 00 	mov    0x205779(%rip),%rdx        # 2092b0 <_ZL7bufchan>
    3b37:	0f b6 85 b9 58 ff ff 	movzbl -0xa747(%rbp),%eax
    3b3e:	48 69 c0 08 06 00 00 	imul   $0x608,%rax,%rax
    3b45:	48 01 d0             	add    %rdx,%rax
    3b48:	ba 08 06 00 00       	mov    $0x608,%edx
    3b4d:	be 00 00 00 00       	mov    $0x0,%esi
    3b52:	48 89 c7             	mov    %rax,%rdi
    3b55:	e8 b6 db ff ff       	callq  1710 <memset@plt>
    3b5a:	48 8b 15 4f 57 20 00 	mov    0x20574f(%rip),%rdx        # 2092b0 <_ZL7bufchan>
    3b61:	0f b6 85 b9 58 ff ff 	movzbl -0xa747(%rbp),%eax
    3b68:	48 69 c0 08 06 00 00 	imul   $0x608,%rax,%rax
    3b6f:	48 8d 0c 02          	lea    (%rdx,%rax,1),%rcx
    3b73:	48 8b 15 36 57 20 00 	mov    0x205736(%rip),%rdx        # 2092b0 <_ZL7bufchan>
    3b7a:	0f b6 85 b9 58 ff ff 	movzbl -0xa747(%rbp),%eax
    3b81:	48 69 c0 08 06 00 00 	imul   $0x608,%rax,%rax
    3b88:	48 01 d0             	add    %rdx,%rax
    3b8b:	48 8d 51 18          	lea    0x18(%rcx),%rdx
    3b8f:	48 89 50 10          	mov    %rdx,0x10(%rax)
    3b93:	0f b6 85 b9 58 ff ff 	movzbl -0xa747(%rbp),%eax
    3b9a:	83 c0 01             	add    $0x1,%eax
    3b9d:	88 85 b9 58 ff ff    	mov    %al,-0xa747(%rbp)
    3ba3:	eb 82                	jmp    3b27 <_Z17teavpn_tcp_serverP14_server_config+0x9e>
    3ba5:	48 8b 85 a8 58 ff ff 	mov    -0xa758(%rbp),%rax
    3bac:	48 8b 40 08          	mov    0x8(%rax),%rax
    3bb0:	48 85 c0             	test   %rax,%rax
    3bb3:	74 36                	je     3beb <_Z17teavpn_tcp_serverP14_server_config+0x162>
    3bb5:	48 8b 95 a8 58 ff ff 	mov    -0xa758(%rbp),%rdx
    3bbc:	48 8d 85 e0 ef ff ff 	lea    -0x1020(%rbp),%rax
    3bc3:	48 89 d6             	mov    %rdx,%rsi
    3bc6:	48 89 c7             	mov    %rax,%rdi
    3bc9:	e8 66 ee ff ff       	callq  2a34 <_Z27teavpn_server_config_parserPcP14_server_config>
    3bce:	83 f0 01             	xor    $0x1,%eax
    3bd1:	84 c0                	test   %al,%al
    3bd3:	74 16                	je     3beb <_Z17teavpn_tcp_serverP14_server_config+0x162>
    3bd5:	48 8d 3d 0e 2a 00 00 	lea    0x2a0e(%rip),%rdi        # 65ea <_IO_stdin_used+0x2fa>
    3bdc:	e8 3f da ff ff       	callq  1620 <puts@plt>
    3be1:	b8 01 00 00 00       	mov    $0x1,%eax
    3be6:	e9 e9 06 00 00       	jmpq   42d4 <_Z17teavpn_tcp_serverP14_server_config+0x84b>
    3beb:	48 8b 85 a8 58 ff ff 	mov    -0xa758(%rbp),%rax
    3bf2:	0f b6 40 3c          	movzbl 0x3c(%rax),%eax
    3bf6:	88 05 c4 56 20 00    	mov    %al,0x2056c4(%rip)        # 2092c0 <verbose_level>
    3bfc:	48 8b 85 a8 58 ff ff 	mov    -0xa758(%rbp),%rax
    3c03:	48 8b 40 18          	mov    0x18(%rax),%rax
    3c07:	48 85 c0             	test   %rax,%rax
    3c0a:	75 16                	jne    3c22 <_Z17teavpn_tcp_serverP14_server_config+0x199>
    3c0c:	48 8d 3d e5 29 00 00 	lea    0x29e5(%rip),%rdi        # 65f8 <_IO_stdin_used+0x308>
    3c13:	e8 08 da ff ff       	callq  1620 <puts@plt>
    3c18:	b8 01 00 00 00       	mov    $0x1,%eax
    3c1d:	e9 b2 06 00 00       	jmpq   42d4 <_Z17teavpn_tcp_serverP14_server_config+0x84b>
    3c22:	48 8d 35 ef 29 00 00 	lea    0x29ef(%rip),%rsi        # 6618 <_IO_stdin_used+0x328>
    3c29:	bf 02 00 00 00       	mov    $0x2,%edi
    3c2e:	b8 00 00 00 00       	mov    $0x0,%eax
    3c33:	e8 a3 12 00 00       	callq  4edb <_Z9debug_loghPKcz>
    3c38:	48 8b 85 a8 58 ff ff 	mov    -0xa758(%rbp),%rax
    3c3f:	48 8b 40 20          	mov    0x20(%rax),%rax
    3c43:	be 01 00 00 00       	mov    $0x1,%esi
    3c48:	48 89 c7             	mov    %rax,%rdi
    3c4b:	e8 7c 13 00 00       	callq  4fcc <_Z9tun_allocPci>
    3c50:	89 05 4a 56 20 00    	mov    %eax,0x20564a(%rip)        # 2092a0 <_ZL6tap_fd>
    3c56:	8b 05 44 56 20 00    	mov    0x205644(%rip),%eax        # 2092a0 <_ZL6tap_fd>
    3c5c:	c1 e8 1f             	shr    $0x1f,%eax
    3c5f:	84 c0                	test   %al,%al
    3c61:	74 29                	je     3c8c <_Z17teavpn_tcp_serverP14_server_config+0x203>
    3c63:	48 8b 85 a8 58 ff ff 	mov    -0xa758(%rbp),%rax
    3c6a:	48 8b 40 20          	mov    0x20(%rax),%rax
    3c6e:	48 89 c6             	mov    %rax,%rsi
    3c71:	48 8d 3d c0 29 00 00 	lea    0x29c0(%rip),%rdi        # 6638 <_IO_stdin_used+0x348>
    3c78:	b8 00 00 00 00       	mov    $0x0,%eax
    3c7d:	e8 6e da ff ff       	callq  16f0 <printf@plt>
    3c82:	b8 01 00 00 00       	mov    $0x1,%eax
    3c87:	e9 48 06 00 00       	jmpq   42d4 <_Z17teavpn_tcp_serverP14_server_config+0x84b>
    3c8c:	48 8d 35 d0 29 00 00 	lea    0x29d0(%rip),%rsi        # 6663 <_IO_stdin_used+0x373>
    3c93:	bf 02 00 00 00       	mov    $0x2,%edi
    3c98:	b8 00 00 00 00       	mov    $0x0,%eax
    3c9d:	e8 39 12 00 00       	callq  4edb <_Z9debug_loghPKcz>
    3ca2:	48 8b 85 a8 58 ff ff 	mov    -0xa758(%rbp),%rax
    3ca9:	48 8b 40 20          	mov    0x20(%rax),%rax
    3cad:	48 89 c2             	mov    %rax,%rdx
    3cb0:	48 8d 35 b1 29 00 00 	lea    0x29b1(%rip),%rsi        # 6668 <_IO_stdin_used+0x378>
    3cb7:	bf 00 00 00 00       	mov    $0x0,%edi
    3cbc:	b8 00 00 00 00       	mov    $0x0,%eax
    3cc1:	e8 15 12 00 00       	callq  4edb <_Z9debug_loghPKcz>
    3cc6:	48 8b 85 a8 58 ff ff 	mov    -0xa758(%rbp),%rax
    3ccd:	48 89 c7             	mov    %rax,%rdi
    3cd0:	e8 4d 0d 00 00       	callq  4a22 <_ZL24teavpn_server_init_ifaceP14_server_config>
    3cd5:	48 8d 35 b8 29 00 00 	lea    0x29b8(%rip),%rsi        # 6694 <_IO_stdin_used+0x3a4>
    3cdc:	bf 01 00 00 00       	mov    $0x1,%edi
    3ce1:	b8 00 00 00 00       	mov    $0x0,%eax
    3ce6:	e8 f0 11 00 00       	callq  4edb <_Z9debug_loghPKcz>
    3ceb:	ba 00 00 00 00       	mov    $0x0,%edx
    3cf0:	be 01 00 00 00       	mov    $0x1,%esi
    3cf5:	bf 02 00 00 00       	mov    $0x2,%edi
    3cfa:	e8 51 dc ff ff       	callq  1950 <socket@plt>
    3cff:	89 05 9f 55 20 00    	mov    %eax,0x20559f(%rip)        # 2092a4 <_ZL6net_fd>
    3d05:	8b 05 99 55 20 00    	mov    0x205599(%rip),%eax        # 2092a4 <_ZL6net_fd>
    3d0b:	c1 e8 1f             	shr    $0x1f,%eax
    3d0e:	84 c0                	test   %al,%al
    3d10:	74 16                	je     3d28 <_Z17teavpn_tcp_serverP14_server_config+0x29f>
    3d12:	48 8d 3d 93 29 00 00 	lea    0x2993(%rip),%rdi        # 66ac <_IO_stdin_used+0x3bc>
    3d19:	e8 82 db ff ff       	callq  18a0 <perror@plt>
    3d1e:	b8 01 00 00 00       	mov    $0x1,%eax
    3d23:	e9 ac 05 00 00       	jmpq   42d4 <_Z17teavpn_tcp_serverP14_server_config+0x84b>
    3d28:	48 8d 35 99 29 00 00 	lea    0x2999(%rip),%rsi        # 66c8 <_IO_stdin_used+0x3d8>
    3d2f:	bf 01 00 00 00       	mov    $0x1,%edi
    3d34:	b8 00 00 00 00       	mov    $0x0,%eax
    3d39:	e8 9d 11 00 00       	callq  4edb <_Z9debug_loghPKcz>
    3d3e:	48 8d 35 ab 29 00 00 	lea    0x29ab(%rip),%rsi        # 66f0 <_IO_stdin_used+0x400>
    3d45:	bf 01 00 00 00       	mov    $0x1,%edi
    3d4a:	b8 00 00 00 00       	mov    $0x0,%eax
    3d4f:	e8 87 11 00 00       	callq  4edb <_Z9debug_loghPKcz>
    3d54:	8b 05 4a 55 20 00    	mov    0x20554a(%rip),%eax        # 2092a4 <_ZL6net_fd>
    3d5a:	89 c7                	mov    %eax,%edi
    3d5c:	e8 4a 0c 00 00       	callq  49ab <_ZL26teavpn_server_socket_setupi>
    3d61:	83 f0 01             	xor    $0x1,%eax
    3d64:	84 c0                	test   %al,%al
    3d66:	74 0a                	je     3d72 <_Z17teavpn_tcp_serverP14_server_config+0x2e9>
    3d68:	b8 01 00 00 00       	mov    $0x1,%eax
    3d6d:	e9 62 05 00 00       	jmpq   42d4 <_Z17teavpn_tcp_serverP14_server_config+0x84b>
    3d72:	48 8d 35 9f 29 00 00 	lea    0x299f(%rip),%rsi        # 6718 <_IO_stdin_used+0x428>
    3d79:	bf 01 00 00 00       	mov    $0x1,%edi
    3d7e:	b8 00 00 00 00       	mov    $0x0,%eax
    3d83:	e8 53 11 00 00       	callq  4edb <_Z9debug_loghPKcz>
    3d88:	48 8d 35 b5 29 00 00 	lea    0x29b5(%rip),%rsi        # 6744 <_IO_stdin_used+0x454>
    3d8f:	bf 01 00 00 00       	mov    $0x1,%edi
    3d94:	b8 00 00 00 00       	mov    $0x0,%eax
    3d99:	e8 3d 11 00 00       	callq  4edb <_Z9debug_loghPKcz>
    3d9e:	48 8b 85 a8 58 ff ff 	mov    -0xa758(%rbp),%rax
    3da5:	0f b6 40 3d          	movzbl 0x3d(%rax),%eax
    3da9:	0f b6 c0             	movzbl %al,%eax
    3dac:	89 c7                	mov    %eax,%edi
    3dae:	e8 a2 dc ff ff       	callq  1a55 <thpool_init>
    3db3:	48 89 85 e8 58 ff ff 	mov    %rax,-0xa718(%rbp)
    3dba:	48 8d 35 a7 29 00 00 	lea    0x29a7(%rip),%rsi        # 6768 <_IO_stdin_used+0x478>
    3dc1:	bf 01 00 00 00       	mov    $0x1,%edi
    3dc6:	b8 00 00 00 00       	mov    $0x0,%eax
    3dcb:	e8 0b 11 00 00       	callq  4edb <_Z9debug_loghPKcz>
    3dd0:	48 8d 85 f0 58 ff ff 	lea    -0xa710(%rbp),%rax
    3dd7:	ba 10 00 00 00       	mov    $0x10,%edx
    3ddc:	be 00 00 00 00       	mov    $0x0,%esi
    3de1:	48 89 c7             	mov    %rax,%rdi
    3de4:	e8 27 d9 ff ff       	callq  1710 <memset@plt>
    3de9:	66 c7 85 f0 58 ff ff 	movw   $0x2,-0xa710(%rbp)
    3df0:	02 00 
    3df2:	48 8b 85 a8 58 ff ff 	mov    -0xa758(%rbp),%rax
    3df9:	48 8b 00             	mov    (%rax),%rax
    3dfc:	48 89 c7             	mov    %rax,%rdi
    3dff:	e8 7c d9 ff ff       	callq  1780 <inet_addr@plt>
    3e04:	89 85 f4 58 ff ff    	mov    %eax,-0xa70c(%rbp)
    3e0a:	48 8b 85 a8 58 ff ff 	mov    -0xa758(%rbp),%rax
    3e11:	0f b7 40 3a          	movzwl 0x3a(%rax),%eax
    3e15:	0f b7 c0             	movzwl %ax,%eax
    3e18:	89 c7                	mov    %eax,%edi
    3e1a:	e8 c1 d8 ff ff       	callq  16e0 <htons@plt>
    3e1f:	66 89 85 f2 58 ff ff 	mov    %ax,-0xa70e(%rbp)
    3e26:	8b 05 78 54 20 00    	mov    0x205478(%rip),%eax        # 2092a4 <_ZL6net_fd>
    3e2c:	48 8d 8d f0 58 ff ff 	lea    -0xa710(%rbp),%rcx
    3e33:	ba 10 00 00 00       	mov    $0x10,%edx
    3e38:	48 89 ce             	mov    %rcx,%rsi
    3e3b:	89 c7                	mov    %eax,%edi
    3e3d:	e8 2e da ff ff       	callq  1870 <bind@plt>
    3e42:	c1 e8 1f             	shr    $0x1f,%eax
    3e45:	84 c0                	test   %al,%al
    3e47:	74 16                	je     3e5f <_Z17teavpn_tcp_serverP14_server_config+0x3d6>
    3e49:	48 8d 3d 3c 29 00 00 	lea    0x293c(%rip),%rdi        # 678c <_IO_stdin_used+0x49c>
    3e50:	e8 4b da ff ff       	callq  18a0 <perror@plt>
    3e55:	b8 01 00 00 00       	mov    $0x1,%eax
    3e5a:	e9 75 04 00 00       	jmpq   42d4 <_Z17teavpn_tcp_serverP14_server_config+0x84b>
    3e5f:	8b 05 3f 54 20 00    	mov    0x20543f(%rip),%eax        # 2092a4 <_ZL6net_fd>
    3e65:	be 03 00 00 00       	mov    $0x3,%esi
    3e6a:	89 c7                	mov    %eax,%edi
    3e6c:	e8 cf d9 ff ff       	callq  1840 <listen@plt>
    3e71:	c1 e8 1f             	shr    $0x1f,%eax
    3e74:	84 c0                	test   %al,%al
    3e76:	74 16                	je     3e8e <_Z17teavpn_tcp_serverP14_server_config+0x405>
    3e78:	48 8d 3d 19 29 00 00 	lea    0x2919(%rip),%rdi        # 6798 <_IO_stdin_used+0x4a8>
    3e7f:	e8 1c da ff ff       	callq  18a0 <perror@plt>
    3e84:	b8 01 00 00 00       	mov    $0x1,%eax
    3e89:	e9 46 04 00 00       	jmpq   42d4 <_Z17teavpn_tcp_serverP14_server_config+0x84b>
    3e8e:	48 8b 85 a8 58 ff ff 	mov    -0xa758(%rbp),%rax
    3e95:	0f b7 40 3a          	movzwl 0x3a(%rax),%eax
    3e99:	0f b7 d0             	movzwl %ax,%edx
    3e9c:	48 8b 85 a8 58 ff ff 	mov    -0xa758(%rbp),%rax
    3ea3:	48 8b 00             	mov    (%rax),%rax
    3ea6:	89 d1                	mov    %edx,%ecx
    3ea8:	48 89 c2             	mov    %rax,%rdx
    3eab:	48 8d 35 f4 28 00 00 	lea    0x28f4(%rip),%rsi        # 67a6 <_IO_stdin_used+0x4b6>
    3eb2:	bf 00 00 00 00       	mov    $0x0,%edi
    3eb7:	b8 00 00 00 00       	mov    $0x0,%eax
    3ebc:	e8 1a 10 00 00       	callq  4edb <_Z9debug_loghPKcz>
    3ec1:	be 01 00 00 00       	mov    $0x1,%esi
    3ec6:	bf 0d 00 00 00       	mov    $0xd,%edi
    3ecb:	e8 d0 d8 ff ff       	callq  17a0 <signal@plt>
    3ed0:	48 8b 95 a8 58 ff ff 	mov    -0xa758(%rbp),%rdx
    3ed7:	48 8d 85 d0 58 ff ff 	lea    -0xa730(%rbp),%rax
    3ede:	48 89 d1             	mov    %rdx,%rcx
    3ee1:	48 8d 15 0a 04 00 00 	lea    0x40a(%rip),%rdx        # 42f2 <_ZL24teavpn_accept_connectionPv>
    3ee8:	be 00 00 00 00       	mov    $0x0,%esi
    3eed:	48 89 c7             	mov    %rax,%rdi
    3ef0:	e8 cb d6 ff ff       	callq  15c0 <pthread_create@plt>
    3ef5:	8b 05 a5 53 20 00    	mov    0x2053a5(%rip),%eax        # 2092a0 <_ZL6tap_fd>
    3efb:	89 85 c0 58 ff ff    	mov    %eax,-0xa740(%rbp)
    3f01:	b8 00 00 00 00       	mov    $0x0,%eax
    3f06:	b9 10 00 00 00       	mov    $0x10,%ecx
    3f0b:	48 8d 95 00 59 ff ff 	lea    -0xa700(%rbp),%rdx
    3f12:	48 89 d7             	mov    %rdx,%rdi
    3f15:	fc                   	cld    
    3f16:	f3 48 ab             	rep stos %rax,%es:(%rdi)
    3f19:	89 f8                	mov    %edi,%eax
    3f1b:	89 ca                	mov    %ecx,%edx
    3f1d:	89 95 c4 58 ff ff    	mov    %edx,-0xa73c(%rbp)
    3f23:	89 85 c8 58 ff ff    	mov    %eax,-0xa738(%rbp)
    3f29:	8b 05 71 53 20 00    	mov    0x205371(%rip),%eax        # 2092a0 <_ZL6tap_fd>
    3f2f:	8d 50 3f             	lea    0x3f(%rax),%edx
    3f32:	85 c0                	test   %eax,%eax
    3f34:	0f 48 c2             	cmovs  %edx,%eax
    3f37:	c1 f8 06             	sar    $0x6,%eax
    3f3a:	89 c6                	mov    %eax,%esi
    3f3c:	48 63 c6             	movslq %esi,%rax
    3f3f:	48 8b bc c5 00 59 ff 	mov    -0xa700(%rbp,%rax,8),%rdi
    3f46:	ff 
    3f47:	8b 05 53 53 20 00    	mov    0x205353(%rip),%eax        # 2092a0 <_ZL6tap_fd>
    3f4d:	99                   	cltd   
    3f4e:	c1 ea 1a             	shr    $0x1a,%edx
    3f51:	01 d0                	add    %edx,%eax
    3f53:	83 e0 3f             	and    $0x3f,%eax
    3f56:	29 d0                	sub    %edx,%eax
    3f58:	ba 01 00 00 00       	mov    $0x1,%edx
    3f5d:	89 c1                	mov    %eax,%ecx
    3f5f:	48 d3 e2             	shl    %cl,%rdx
    3f62:	48 89 d0             	mov    %rdx,%rax
    3f65:	48 09 c7             	or     %rax,%rdi
    3f68:	48 89 fa             	mov    %rdi,%rdx
    3f6b:	48 63 c6             	movslq %esi,%rax
    3f6e:	48 89 94 c5 00 59 ff 	mov    %rdx,-0xa700(%rbp,%rax,8)
    3f75:	ff 
    3f76:	66 c7 85 ba 58 ff ff 	movw   $0x0,-0xa746(%rbp)
    3f7d:	00 00 
    3f7f:	0f b7 05 22 53 20 00 	movzwl 0x205322(%rip),%eax        # 2092a8 <_ZL11entry_count>
    3f86:	66 39 85 ba 58 ff ff 	cmp    %ax,-0xa746(%rbp)
    3f8d:	0f 83 12 01 00 00    	jae    40a5 <_Z17teavpn_tcp_serverP14_server_config+0x61c>
    3f93:	48 8b 0d 1e 53 20 00 	mov    0x20531e(%rip),%rcx        # 2092b8 <_ZL7entries>
    3f9a:	0f b7 95 ba 58 ff ff 	movzwl -0xa746(%rbp),%edx
    3fa1:	48 89 d0             	mov    %rdx,%rax
    3fa4:	48 01 c0             	add    %rax,%rax
    3fa7:	48 01 d0             	add    %rdx,%rax
    3faa:	48 c1 e0 04          	shl    $0x4,%rax
    3fae:	48 01 c8             	add    %rcx,%rax
    3fb1:	0f b6 00             	movzbl (%rax),%eax
    3fb4:	84 c0                	test   %al,%al
    3fb6:	0f 84 d3 00 00 00    	je     408f <_Z17teavpn_tcp_serverP14_server_config+0x606>
    3fbc:	48 8b 0d f5 52 20 00 	mov    0x2052f5(%rip),%rcx        # 2092b8 <_ZL7entries>
    3fc3:	0f b7 95 ba 58 ff ff 	movzwl -0xa746(%rbp),%edx
    3fca:	48 89 d0             	mov    %rdx,%rax
    3fcd:	48 01 c0             	add    %rax,%rax
    3fd0:	48 01 d0             	add    %rdx,%rax
    3fd3:	48 c1 e0 04          	shl    $0x4,%rax
    3fd7:	48 01 c8             	add    %rcx,%rax
    3fda:	8b 40 04             	mov    0x4(%rax),%eax
    3fdd:	39 85 c0 58 ff ff    	cmp    %eax,-0xa740(%rbp)
    3fe3:	7d 27                	jge    400c <_Z17teavpn_tcp_serverP14_server_config+0x583>
    3fe5:	48 8b 0d cc 52 20 00 	mov    0x2052cc(%rip),%rcx        # 2092b8 <_ZL7entries>
    3fec:	0f b7 95 ba 58 ff ff 	movzwl -0xa746(%rbp),%edx
    3ff3:	48 89 d0             	mov    %rdx,%rax
    3ff6:	48 01 c0             	add    %rax,%rax
    3ff9:	48 01 d0             	add    %rdx,%rax
    3ffc:	48 c1 e0 04          	shl    $0x4,%rax
    4000:	48 01 c8             	add    %rcx,%rax
    4003:	8b 40 04             	mov    0x4(%rax),%eax
    4006:	89 85 c0 58 ff ff    	mov    %eax,-0xa740(%rbp)
    400c:	48 8b 0d a5 52 20 00 	mov    0x2052a5(%rip),%rcx        # 2092b8 <_ZL7entries>
    4013:	0f b7 95 ba 58 ff ff 	movzwl -0xa746(%rbp),%edx
    401a:	48 89 d0             	mov    %rdx,%rax
    401d:	48 01 c0             	add    %rax,%rax
    4020:	48 01 d0             	add    %rdx,%rax
    4023:	48 c1 e0 04          	shl    $0x4,%rax
    4027:	48 01 c8             	add    %rcx,%rax
    402a:	8b 40 04             	mov    0x4(%rax),%eax
    402d:	8d 50 3f             	lea    0x3f(%rax),%edx
    4030:	85 c0                	test   %eax,%eax
    4032:	0f 48 c2             	cmovs  %edx,%eax
    4035:	c1 f8 06             	sar    $0x6,%eax
    4038:	89 c6                	mov    %eax,%esi
    403a:	48 63 c6             	movslq %esi,%rax
    403d:	48 8b bc c5 00 59 ff 	mov    -0xa700(%rbp,%rax,8),%rdi
    4044:	ff 
    4045:	48 8b 0d 6c 52 20 00 	mov    0x20526c(%rip),%rcx        # 2092b8 <_ZL7entries>
    404c:	0f b7 95 ba 58 ff ff 	movzwl -0xa746(%rbp),%edx
    4053:	48 89 d0             	mov    %rdx,%rax
    4056:	48 01 c0             	add    %rax,%rax
    4059:	48 01 d0             	add    %rdx,%rax
    405c:	48 c1 e0 04          	shl    $0x4,%rax
    4060:	48 01 c8             	add    %rcx,%rax
    4063:	8b 40 04             	mov    0x4(%rax),%eax
    4066:	99                   	cltd   
    4067:	c1 ea 1a             	shr    $0x1a,%edx
    406a:	01 d0                	add    %edx,%eax
    406c:	83 e0 3f             	and    $0x3f,%eax
    406f:	29 d0                	sub    %edx,%eax
    4071:	ba 01 00 00 00       	mov    $0x1,%edx
    4076:	89 c1                	mov    %eax,%ecx
    4078:	48 d3 e2             	shl    %cl,%rdx
    407b:	48 89 d0             	mov    %rdx,%rax
    407e:	48 09 c7             	or     %rax,%rdi
    4081:	48 89 fa             	mov    %rdi,%rdx
    4084:	48 63 c6             	movslq %esi,%rax
    4087:	48 89 94 c5 00 59 ff 	mov    %rdx,-0xa700(%rbp,%rax,8)
    408e:	ff 
    408f:	0f b7 85 ba 58 ff ff 	movzwl -0xa746(%rbp),%eax
    4096:	83 c0 01             	add    $0x1,%eax
    4099:	66 89 85 ba 58 ff ff 	mov    %ax,-0xa746(%rbp)
    40a0:	e9 da fe ff ff       	jmpq   3f7f <_Z17teavpn_tcp_serverP14_server_config+0x4f6>
    40a5:	e8 b7 08 00 00       	callq  4961 <_ZL24get_buffer_channel_indexv>
    40aa:	66 89 85 be 58 ff ff 	mov    %ax,-0xa742(%rbp)
    40b1:	66 83 bd be 58 ff ff 	cmpw   $0xffff,-0xa742(%rbp)
    40b8:	ff 
    40b9:	75 02                	jne    40bd <_Z17teavpn_tcp_serverP14_server_config+0x634>
    40bb:	eb e8                	jmp    40a5 <_Z17teavpn_tcp_serverP14_server_config+0x61c>
    40bd:	8b 85 c0 58 ff ff    	mov    -0xa740(%rbp),%eax
    40c3:	8d 78 01             	lea    0x1(%rax),%edi
    40c6:	48 8d 85 00 59 ff ff 	lea    -0xa700(%rbp),%rax
    40cd:	41 b8 00 00 00 00    	mov    $0x0,%r8d
    40d3:	b9 00 00 00 00       	mov    $0x0,%ecx
    40d8:	ba 00 00 00 00       	mov    $0x0,%edx
    40dd:	48 89 c6             	mov    %rax,%rsi
    40e0:	e8 0b d7 ff ff       	callq  17f0 <select@plt>
    40e5:	89 85 cc 58 ff ff    	mov    %eax,-0xa734(%rbp)
    40eb:	83 bd cc 58 ff ff 00 	cmpl   $0x0,-0xa734(%rbp)
    40f2:	79 10                	jns    4104 <_Z17teavpn_tcp_serverP14_server_config+0x67b>
    40f4:	e8 e7 d4 ff ff       	callq  15e0 <__errno_location@plt>
    40f9:	8b 00                	mov    (%rax),%eax
    40fb:	83 f8 04             	cmp    $0x4,%eax
    40fe:	0f 84 ca 01 00 00    	je     42ce <_Z17teavpn_tcp_serverP14_server_config+0x845>
    4104:	83 bd cc 58 ff ff 00 	cmpl   $0x0,-0xa734(%rbp)
    410b:	79 11                	jns    411e <_Z17teavpn_tcp_serverP14_server_config+0x695>
    410d:	48 8d 3d a9 26 00 00 	lea    0x26a9(%rip),%rdi        # 67bd <_IO_stdin_used+0x4cd>
    4114:	e8 87 d7 ff ff       	callq  18a0 <perror@plt>
    4119:	e9 b1 01 00 00       	jmpq   42cf <_Z17teavpn_tcp_serverP14_server_config+0x846>
    411e:	8b 05 7c 51 20 00    	mov    0x20517c(%rip),%eax        # 2092a0 <_ZL6tap_fd>
    4124:	8d 50 3f             	lea    0x3f(%rax),%edx
    4127:	85 c0                	test   %eax,%eax
    4129:	0f 48 c2             	cmovs  %edx,%eax
    412c:	c1 f8 06             	sar    $0x6,%eax
    412f:	48 98                	cltq   
    4131:	48 8b b4 c5 00 59 ff 	mov    -0xa700(%rbp,%rax,8),%rsi
    4138:	ff 
    4139:	8b 05 61 51 20 00    	mov    0x205161(%rip),%eax        # 2092a0 <_ZL6tap_fd>
    413f:	99                   	cltd   
    4140:	c1 ea 1a             	shr    $0x1a,%edx
    4143:	01 d0                	add    %edx,%eax
    4145:	83 e0 3f             	and    $0x3f,%eax
    4148:	29 d0                	sub    %edx,%eax
    414a:	ba 01 00 00 00       	mov    $0x1,%edx
    414f:	89 c1                	mov    %eax,%ecx
    4151:	48 d3 e2             	shl    %cl,%rdx
    4154:	48 89 d0             	mov    %rdx,%rax
    4157:	48 21 f0             	and    %rsi,%rax
    415a:	48 85 c0             	test   %rax,%rax
    415d:	0f 84 8c 00 00 00    	je     41ef <_Z17teavpn_tcp_serverP14_server_config+0x766>
    4163:	48 83 85 d8 58 ff ff 	addq   $0x1,-0xa728(%rbp)
    416a:	01 
    416b:	48 8b 15 3e 51 20 00 	mov    0x20513e(%rip),%rdx        # 2092b0 <_ZL7bufchan>
    4172:	48 0f bf 85 be 58 ff 	movswq -0xa742(%rbp),%rax
    4179:	ff 
    417a:	48 69 c0 08 06 00 00 	imul   $0x608,%rax,%rax
    4181:	48 01 d0             	add    %rdx,%rax
    4184:	48 8d 48 18          	lea    0x18(%rax),%rcx
    4188:	8b 05 12 51 20 00    	mov    0x205112(%rip),%eax        # 2092a0 <_ZL6tap_fd>
    418e:	48 8b 35 1b 51 20 00 	mov    0x20511b(%rip),%rsi        # 2092b0 <_ZL7bufchan>
    4195:	48 0f bf 95 be 58 ff 	movswq -0xa742(%rbp),%rdx
    419c:	ff 
    419d:	48 69 d2 08 06 00 00 	imul   $0x608,%rdx,%rdx
    41a4:	48 8d 1c 16          	lea    (%rsi,%rdx,1),%rbx
    41a8:	ba dc 05 00 00       	mov    $0x5dc,%edx
    41ad:	48 89 ce             	mov    %rcx,%rsi
    41b0:	89 c7                	mov    %eax,%edi
    41b2:	e8 99 d5 ff ff       	callq  1750 <read@plt>
    41b7:	48 89 03             	mov    %rax,(%rbx)
    41ba:	48 8b 15 ef 50 20 00 	mov    0x2050ef(%rip),%rdx        # 2092b0 <_ZL7bufchan>
    41c1:	48 0f bf 85 be 58 ff 	movswq -0xa742(%rbp),%rax
    41c8:	ff 
    41c9:	48 69 c0 08 06 00 00 	imul   $0x608,%rax,%rax
    41d0:	48 01 d0             	add    %rdx,%rax
    41d3:	48 8b 00             	mov    (%rax),%rax
    41d6:	48 89 c2             	mov    %rax,%rdx
    41d9:	48 8d 35 e6 25 00 00 	lea    0x25e6(%rip),%rsi        # 67c6 <_IO_stdin_used+0x4d6>
    41e0:	bf 01 00 00 00       	mov    $0x1,%edi
    41e5:	b8 00 00 00 00       	mov    $0x0,%eax
    41ea:	e8 ec 0c 00 00       	callq  4edb <_Z9debug_loghPKcz>
    41ef:	66 c7 85 bc 58 ff ff 	movw   $0x0,-0xa744(%rbp)
    41f6:	00 00 
    41f8:	0f b7 05 a9 50 20 00 	movzwl 0x2050a9(%rip),%eax        # 2092a8 <_ZL11entry_count>
    41ff:	66 39 85 bc 58 ff ff 	cmp    %ax,-0xa744(%rbp)
    4206:	0f 83 e9 fc ff ff    	jae    3ef5 <_Z17teavpn_tcp_serverP14_server_config+0x46c>
    420c:	48 8b 0d a5 50 20 00 	mov    0x2050a5(%rip),%rcx        # 2092b8 <_ZL7entries>
    4213:	0f b7 95 bc 58 ff ff 	movzwl -0xa744(%rbp),%edx
    421a:	48 89 d0             	mov    %rdx,%rax
    421d:	48 01 c0             	add    %rax,%rax
    4220:	48 01 d0             	add    %rdx,%rax
    4223:	48 c1 e0 04          	shl    $0x4,%rax
    4227:	48 01 c8             	add    %rcx,%rax
    422a:	0f b6 00             	movzbl (%rax),%eax
    422d:	84 c0                	test   %al,%al
    422f:	0f 84 83 00 00 00    	je     42b8 <_Z17teavpn_tcp_serverP14_server_config+0x82f>
    4235:	48 8b 0d 7c 50 20 00 	mov    0x20507c(%rip),%rcx        # 2092b8 <_ZL7entries>
    423c:	0f b7 95 bc 58 ff ff 	movzwl -0xa744(%rbp),%edx
    4243:	48 89 d0             	mov    %rdx,%rax
    4246:	48 01 c0             	add    %rax,%rax
    4249:	48 01 d0             	add    %rdx,%rax
    424c:	48 c1 e0 04          	shl    $0x4,%rax
    4250:	48 01 c8             	add    %rcx,%rax
    4253:	8b 40 04             	mov    0x4(%rax),%eax
    4256:	8d 50 3f             	lea    0x3f(%rax),%edx
    4259:	85 c0                	test   %eax,%eax
    425b:	0f 48 c2             	cmovs  %edx,%eax
    425e:	c1 f8 06             	sar    $0x6,%eax
    4261:	89 c6                	mov    %eax,%esi
    4263:	48 63 c6             	movslq %esi,%rax
    4266:	48 8b bc c5 00 59 ff 	mov    -0xa700(%rbp,%rax,8),%rdi
    426d:	ff 
    426e:	48 8b 0d 43 50 20 00 	mov    0x205043(%rip),%rcx        # 2092b8 <_ZL7entries>
    4275:	0f b7 95 bc 58 ff ff 	movzwl -0xa744(%rbp),%edx
    427c:	48 89 d0             	mov    %rdx,%rax
    427f:	48 01 c0             	add    %rax,%rax
    4282:	48 01 d0             	add    %rdx,%rax
    4285:	48 c1 e0 04          	shl    $0x4,%rax
    4289:	48 01 c8             	add    %rcx,%rax
    428c:	8b 40 04             	mov    0x4(%rax),%eax
    428f:	99                   	cltd   
    4290:	c1 ea 1a             	shr    $0x1a,%edx
    4293:	01 d0                	add    %edx,%eax
    4295:	83 e0 3f             	and    $0x3f,%eax
    4298:	29 d0                	sub    %edx,%eax
    429a:	ba 01 00 00 00       	mov    $0x1,%edx
    429f:	89 c1                	mov    %eax,%ecx
    42a1:	48 d3 e2             	shl    %cl,%rdx
    42a4:	48 89 d0             	mov    %rdx,%rax
    42a7:	48 09 c7             	or     %rax,%rdi
    42aa:	48 89 fa             	mov    %rdi,%rdx
    42ad:	48 63 c6             	movslq %esi,%rax
    42b0:	48 89 94 c5 00 59 ff 	mov    %rdx,-0xa700(%rbp,%rax,8)
    42b7:	ff 
    42b8:	0f b7 85 bc 58 ff ff 	movzwl -0xa744(%rbp),%eax
    42bf:	83 c0 01             	add    $0x1,%eax
    42c2:	66 89 85 bc 58 ff ff 	mov    %ax,-0xa744(%rbp)
    42c9:	e9 2a ff ff ff       	jmpq   41f8 <_Z17teavpn_tcp_serverP14_server_config+0x76f>
    42ce:	90                   	nop
    42cf:	e9 21 fc ff ff       	jmpq   3ef5 <_Z17teavpn_tcp_serverP14_server_config+0x46c>
    42d4:	48 8b 5d e8          	mov    -0x18(%rbp),%rbx
    42d8:	64 48 33 1c 25 28 00 	xor    %fs:0x28,%rbx
    42df:	00 00 
    42e1:	74 05                	je     42e8 <_Z17teavpn_tcp_serverP14_server_config+0x85f>
    42e3:	e8 c8 d3 ff ff       	callq  16b0 <__stack_chk_fail@plt>
    42e8:	48 81 c4 58 a7 00 00 	add    $0xa758,%rsp
    42ef:	5b                   	pop    %rbx
    42f0:	5d                   	pop    %rbp
    42f1:	c3                   	retq   

00000000000042f2 <_ZL24teavpn_accept_connectionPv>:
    42f2:	55                   	push   %rbp
    42f3:	48 89 e5             	mov    %rsp,%rbp
    42f6:	53                   	push   %rbx
    42f7:	48 81 ec 88 06 00 00 	sub    $0x688,%rsp
    42fe:	48 89 bd 78 f9 ff ff 	mov    %rdi,-0x688(%rbp)
    4305:	64 48 8b 04 25 28 00 	mov    %fs:0x28,%rax
    430c:	00 00 
    430e:	48 89 45 e8          	mov    %rax,-0x18(%rbp)
    4312:	31 c0                	xor    %eax,%eax
    4314:	48 8d 35 c7 24 00 00 	lea    0x24c7(%rip),%rsi        # 67e2 <_IO_stdin_used+0x4f2>
    431b:	bf 01 00 00 00       	mov    $0x1,%edi
    4320:	b8 00 00 00 00       	mov    $0x0,%eax
    4325:	e8 b1 0b 00 00       	callq  4edb <_Z9debug_loghPKcz>
    432a:	8b 05 74 4f 20 00    	mov    0x204f74(%rip),%eax        # 2092a4 <_ZL6net_fd>
    4330:	48 8d 95 b0 f9 ff ff 	lea    -0x650(%rbp),%rdx
    4337:	48 8d 8a 51 01 00 00 	lea    0x151(%rdx),%rcx
    433e:	48 8d 15 c7 4e 20 00 	lea    0x204ec7(%rip),%rdx        # 20920c <_ZZL24teavpn_accept_connectionPvE4rlen>
    4345:	48 89 ce             	mov    %rcx,%rsi
    4348:	89 c7                	mov    %eax,%edi
    434a:	e8 71 d5 ff ff       	callq  18c0 <accept@plt>
    434f:	89 85 84 f9 ff ff    	mov    %eax,-0x67c(%rbp)
    4355:	83 bd 84 f9 ff ff 00 	cmpl   $0x0,-0x67c(%rbp)
    435c:	79 11                	jns    436f <_ZL24teavpn_accept_connectionPv+0x7d>
    435e:	48 8d 3d 96 24 00 00 	lea    0x2496(%rip),%rdi        # 67fb <_IO_stdin_used+0x50b>
    4365:	e8 36 d5 ff ff       	callq  18a0 <perror@plt>
    436a:	e9 ed 05 00 00       	jmpq   495c <_ZL24teavpn_accept_connectionPv+0x66a>
    436f:	48 8d 8d b0 f9 ff ff 	lea    -0x650(%rbp),%rcx
    4376:	8b 85 84 f9 ff ff    	mov    -0x67c(%rbp),%eax
    437c:	ba f0 05 00 00       	mov    $0x5f0,%edx
    4381:	48 89 ce             	mov    %rcx,%rsi
    4384:	89 c7                	mov    %eax,%edi
    4386:	e8 c5 d3 ff ff       	callq  1750 <read@plt>
    438b:	48 89 85 90 f9 ff ff 	mov    %rax,-0x670(%rbp)
    4392:	48 83 bd 90 f9 ff ff 	cmpq   $0x0,-0x670(%rbp)
    4399:	00 
    439a:	79 11                	jns    43ad <_ZL24teavpn_accept_connectionPv+0xbb>
    439c:	48 8d 3d 75 24 00 00 	lea    0x2475(%rip),%rdi        # 6818 <_IO_stdin_used+0x528>
    43a3:	e8 f8 d4 ff ff       	callq  18a0 <perror@plt>
    43a8:	e9 af 05 00 00       	jmpq   495c <_ZL24teavpn_accept_connectionPv+0x66a>
    43ad:	8b 85 b0 f9 ff ff    	mov    -0x650(%rbp),%eax
    43b3:	83 f8 01             	cmp    $0x1,%eax
    43b6:	0f 85 93 05 00 00    	jne    494f <_ZL24teavpn_accept_connectionPv+0x65d>
    43bc:	48 8d 85 b0 f9 ff ff 	lea    -0x650(%rbp),%rax
    43c3:	48 05 51 01 00 00    	add    $0x151,%rax
    43c9:	0f b7 40 02          	movzwl 0x2(%rax),%eax
    43cd:	0f b7 c0             	movzwl %ax,%eax
    43d0:	89 c7                	mov    %eax,%edi
    43d2:	e8 89 d4 ff ff       	callq  1860 <ntohs@plt>
    43d7:	0f b7 d8             	movzwl %ax,%ebx
    43da:	48 8d 85 b0 f9 ff ff 	lea    -0x650(%rbp),%rax
    43e1:	48 05 51 01 00 00    	add    $0x151,%rax
    43e7:	8b 40 04             	mov    0x4(%rax),%eax
    43ea:	89 c7                	mov    %eax,%edi
    43ec:	e8 7f d2 ff ff       	callq  1670 <inet_ntoa@plt>
    43f1:	89 d9                	mov    %ebx,%ecx
    43f3:	48 89 c2             	mov    %rax,%rdx
    43f6:	48 8d 35 3b 24 00 00 	lea    0x243b(%rip),%rsi        # 6838 <_IO_stdin_used+0x548>
    43fd:	bf 01 00 00 00       	mov    $0x1,%edi
    4402:	b8 00 00 00 00       	mov    $0x0,%eax
    4407:	e8 cf 0a 00 00       	callq  4edb <_Z9debug_loghPKcz>
    440c:	48 8d 85 b0 f9 ff ff 	lea    -0x650(%rbp),%rax
    4413:	48 83 c0 10          	add    $0x10,%rax
    4417:	0f b6 00             	movzbl (%rax),%eax
    441a:	0f b6 c0             	movzbl %al,%eax
    441d:	89 c6                	mov    %eax,%esi
    441f:	48 8d 3d 34 24 00 00 	lea    0x2434(%rip),%rdi        # 685a <_IO_stdin_used+0x56a>
    4426:	b8 00 00 00 00       	mov    $0x0,%eax
    442b:	e8 c0 d2 ff ff       	callq  16f0 <printf@plt>
    4430:	48 8d 85 b0 f9 ff ff 	lea    -0x650(%rbp),%rax
    4437:	48 83 c0 10          	add    $0x10,%rax
    443b:	0f b6 40 01          	movzbl 0x1(%rax),%eax
    443f:	0f b6 c0             	movzbl %al,%eax
    4442:	89 c6                	mov    %eax,%esi
    4444:	48 8d 3d 24 24 00 00 	lea    0x2424(%rip),%rdi        # 686f <_IO_stdin_used+0x57f>
    444b:	b8 00 00 00 00       	mov    $0x0,%eax
    4450:	e8 9b d2 ff ff       	callq  16f0 <printf@plt>
    4455:	48 8d 85 b0 f9 ff ff 	lea    -0x650(%rbp),%rax
    445c:	48 83 c0 10          	add    $0x10,%rax
    4460:	48 83 c0 02          	add    $0x2,%rax
    4464:	48 89 c6             	mov    %rax,%rsi
    4467:	48 8d 3d 16 24 00 00 	lea    0x2416(%rip),%rdi        # 6884 <_IO_stdin_used+0x594>
    446e:	b8 00 00 00 00       	mov    $0x0,%eax
    4473:	e8 78 d2 ff ff       	callq  16f0 <printf@plt>
    4478:	48 8d 85 b0 f9 ff ff 	lea    -0x650(%rbp),%rax
    447f:	48 83 c0 10          	add    $0x10,%rax
    4483:	48 83 c0 42          	add    $0x42,%rax
    4487:	48 89 c6             	mov    %rax,%rsi
    448a:	48 8d 3d 03 24 00 00 	lea    0x2403(%rip),%rdi        # 6894 <_IO_stdin_used+0x5a4>
    4491:	b8 00 00 00 00       	mov    $0x0,%eax
    4496:	e8 55 d2 ff ff       	callq  16f0 <printf@plt>
    449b:	48 8b 05 be 4d 20 00 	mov    0x204dbe(%rip),%rax        # 209260 <stdout@@GLIBC_2.2.5>
    44a2:	48 89 c7             	mov    %rax,%rdi
    44a5:	e8 86 d3 ff ff       	callq  1830 <fflush@plt>
    44aa:	48 8d 85 b0 f9 ff ff 	lea    -0x650(%rbp),%rax
    44b1:	48 8d 50 10          	lea    0x10(%rax),%rdx
    44b5:	48 8b 85 78 f9 ff ff 	mov    -0x688(%rbp),%rax
    44bc:	48 89 d6             	mov    %rdx,%rsi
    44bf:	48 89 c7             	mov    %rax,%rdi
    44c2:	e8 15 08 00 00       	callq  4cdc <_Z17teavpn_auth_checkP14_server_configP18teavpn_packet_auth>
    44c7:	48 89 85 98 f9 ff ff 	mov    %rax,-0x668(%rbp)
    44ce:	48 83 bd 98 f9 ff ff 	cmpq   $0x0,-0x668(%rbp)
    44d5:	00 
    44d6:	0f 84 61 04 00 00    	je     493d <_ZL24teavpn_accept_connectionPv+0x64b>
    44dc:	48 c7 85 88 f9 ff ff 	movq   $0x0,-0x678(%rbp)
    44e3:	00 00 00 00 
    44e7:	48 8d 45 a0          	lea    -0x60(%rbp),%rax
    44eb:	ba 40 00 00 00       	mov    $0x40,%edx
    44f0:	be 00 00 00 00       	mov    $0x0,%esi
    44f5:	48 89 c7             	mov    %rax,%rdi
    44f8:	e8 13 d2 ff ff       	callq  1710 <memset@plt>
    44fd:	48 8b 95 98 f9 ff ff 	mov    -0x668(%rbp),%rdx
    4504:	48 8d 45 a0          	lea    -0x60(%rbp),%rax
    4508:	be 3f 00 00 00       	mov    $0x3f,%esi
    450d:	48 89 c7             	mov    %rax,%rdi
    4510:	e8 4b d2 ff ff       	callq  1760 <fgets@plt>
    4515:	48 8d 45 a0          	lea    -0x60(%rbp),%rax
    4519:	48 89 c7             	mov    %rax,%rdi
    451c:	e8 7f d1 ff ff       	callq  16a0 <strlen@plt>
    4521:	48 89 85 a0 f9 ff ff 	mov    %rax,-0x660(%rbp)
    4528:	48 8d 55 a0          	lea    -0x60(%rbp),%rdx
    452c:	48 8b 85 88 f9 ff ff 	mov    -0x678(%rbp),%rax
    4533:	48 01 d0             	add    %rdx,%rax
    4536:	0f b6 00             	movzbl (%rax),%eax
    4539:	3c 20                	cmp    $0x20,%al
    453b:	74 63                	je     45a0 <_ZL24teavpn_accept_connectionPv+0x2ae>
    453d:	48 8b 85 88 f9 ff ff 	mov    -0x678(%rbp),%rax
    4544:	48 3b 85 a0 f9 ff ff 	cmp    -0x660(%rbp),%rax
    454b:	72 49                	jb     4596 <_ZL24teavpn_accept_connectionPv+0x2a4>
    454d:	48 8b 85 98 f9 ff ff 	mov    -0x668(%rbp),%rax
    4554:	48 89 c7             	mov    %rax,%rdi
    4557:	e8 34 d1 ff ff       	callq  1690 <fclose@plt>
    455c:	8b 85 84 f9 ff ff    	mov    -0x67c(%rbp),%eax
    4562:	89 c7                	mov    %eax,%edi
    4564:	e8 d7 d1 ff ff       	callq  1740 <close@plt>
    4569:	48 8d 85 b0 f9 ff ff 	lea    -0x650(%rbp),%rax
    4570:	48 83 c0 10          	add    $0x10,%rax
    4574:	48 83 c0 02          	add    $0x2,%rax
    4578:	48 89 c2             	mov    %rax,%rdx
    457b:	48 8d 35 26 23 00 00 	lea    0x2326(%rip),%rsi        # 68a8 <_IO_stdin_used+0x5b8>
    4582:	bf 01 00 00 00       	mov    $0x1,%edi
    4587:	b8 00 00 00 00       	mov    $0x0,%eax
    458c:	e8 4a 09 00 00       	callq  4edb <_Z9debug_loghPKcz>
    4591:	e9 c6 03 00 00       	jmpq   495c <_ZL24teavpn_accept_connectionPv+0x66a>
    4596:	48 83 85 88 f9 ff ff 	addq   $0x1,-0x678(%rbp)
    459d:	01 
    459e:	eb 88                	jmp    4528 <_ZL24teavpn_accept_connectionPv+0x236>
    45a0:	48 83 bd 88 f9 ff ff 	cmpq   $0x13,-0x678(%rbp)
    45a7:	13 
    45a8:	76 49                	jbe    45f3 <_ZL24teavpn_accept_connectionPv+0x301>
    45aa:	48 8b 85 98 f9 ff ff 	mov    -0x668(%rbp),%rax
    45b1:	48 89 c7             	mov    %rax,%rdi
    45b4:	e8 d7 d0 ff ff       	callq  1690 <fclose@plt>
    45b9:	8b 85 84 f9 ff ff    	mov    -0x67c(%rbp),%eax
    45bf:	89 c7                	mov    %eax,%edi
    45c1:	e8 7a d1 ff ff       	callq  1740 <close@plt>
    45c6:	48 8d 85 b0 f9 ff ff 	lea    -0x650(%rbp),%rax
    45cd:	48 83 c0 10          	add    $0x10,%rax
    45d1:	48 83 c0 02          	add    $0x2,%rax
    45d5:	48 89 c2             	mov    %rax,%rdx
    45d8:	48 8d 35 c9 22 00 00 	lea    0x22c9(%rip),%rsi        # 68a8 <_IO_stdin_used+0x5b8>
    45df:	bf 01 00 00 00       	mov    $0x1,%edi
    45e4:	b8 00 00 00 00       	mov    $0x0,%eax
    45e9:	e8 ed 08 00 00       	callq  4edb <_Z9debug_loghPKcz>
    45ee:	e9 69 03 00 00       	jmpq   495c <_ZL24teavpn_accept_connectionPv+0x66a>
    45f3:	48 8b 85 a0 f9 ff ff 	mov    -0x660(%rbp),%rax
    45fa:	48 2b 85 88 f9 ff ff 	sub    -0x678(%rbp),%rax
    4601:	48 83 c0 01          	add    $0x1,%rax
    4605:	48 83 f8 10          	cmp    $0x10,%rax
    4609:	76 49                	jbe    4654 <_ZL24teavpn_accept_connectionPv+0x362>
    460b:	48 8b 85 98 f9 ff ff 	mov    -0x668(%rbp),%rax
    4612:	48 89 c7             	mov    %rax,%rdi
    4615:	e8 76 d0 ff ff       	callq  1690 <fclose@plt>
    461a:	8b 85 84 f9 ff ff    	mov    -0x67c(%rbp),%eax
    4620:	89 c7                	mov    %eax,%edi
    4622:	e8 19 d1 ff ff       	callq  1740 <close@plt>
    4627:	48 8d 85 b0 f9 ff ff 	lea    -0x650(%rbp),%rax
    462e:	48 83 c0 10          	add    $0x10,%rax
    4632:	48 83 c0 02          	add    $0x2,%rax
    4636:	48 89 c2             	mov    %rax,%rdx
    4639:	48 8d 35 68 22 00 00 	lea    0x2268(%rip),%rsi        # 68a8 <_IO_stdin_used+0x5b8>
    4640:	bf 01 00 00 00       	mov    $0x1,%edi
    4645:	b8 00 00 00 00       	mov    $0x0,%eax
    464a:	e8 8c 08 00 00       	callq  4edb <_Z9debug_loghPKcz>
    464f:	e9 08 03 00 00       	jmpq   495c <_ZL24teavpn_accept_connectionPv+0x66a>
    4654:	48 8d 85 b0 f9 ff ff 	lea    -0x650(%rbp),%rax
    465b:	48 05 51 01 00 00    	add    $0x151,%rax
    4661:	0f b7 40 02          	movzwl 0x2(%rax),%eax
    4665:	0f b7 c0             	movzwl %ax,%eax
    4668:	89 c7                	mov    %eax,%edi
    466a:	e8 f1 d1 ff ff       	callq  1860 <ntohs@plt>
    466f:	0f b7 d8             	movzwl %ax,%ebx
    4672:	48 8d 85 b0 f9 ff ff 	lea    -0x650(%rbp),%rax
    4679:	48 05 51 01 00 00    	add    $0x151,%rax
    467f:	8b 40 04             	mov    0x4(%rax),%eax
    4682:	89 c7                	mov    %eax,%edi
    4684:	e8 e7 cf ff ff       	callq  1670 <inet_ntoa@plt>
    4689:	48 89 c2             	mov    %rax,%rdx
    468c:	48 8d 85 b0 f9 ff ff 	lea    -0x650(%rbp),%rax
    4693:	48 83 c0 10          	add    $0x10,%rax
    4697:	48 83 c0 02          	add    $0x2,%rax
    469b:	48 8d 4d a0          	lea    -0x60(%rbp),%rcx
    469f:	49 89 c9             	mov    %rcx,%r9
    46a2:	41 89 d8             	mov    %ebx,%r8d
    46a5:	48 89 d1             	mov    %rdx,%rcx
    46a8:	48 89 c2             	mov    %rax,%rdx
    46ab:	48 8d 35 26 22 00 00 	lea    0x2226(%rip),%rsi        # 68d8 <_IO_stdin_used+0x5e8>
    46b2:	bf 01 00 00 00       	mov    $0x1,%edi
    46b7:	b8 00 00 00 00       	mov    $0x0,%eax
    46bc:	e8 1a 08 00 00       	callq  4edb <_Z9debug_loghPKcz>
    46c1:	48 8b 0d f0 4b 20 00 	mov    0x204bf0(%rip),%rcx        # 2092b8 <_ZL7entries>
    46c8:	0f b7 05 d9 4b 20 00 	movzwl 0x204bd9(%rip),%eax        # 2092a8 <_ZL11entry_count>
    46cf:	0f b7 d0             	movzwl %ax,%edx
    46d2:	48 89 d0             	mov    %rdx,%rax
    46d5:	48 01 c0             	add    %rax,%rax
    46d8:	48 01 d0             	add    %rdx,%rax
    46db:	48 c1 e0 04          	shl    $0x4,%rax
    46df:	48 8d 14 01          	lea    (%rcx,%rax,1),%rdx
    46e3:	8b 85 84 f9 ff ff    	mov    -0x67c(%rbp),%eax
    46e9:	89 42 04             	mov    %eax,0x4(%rdx)
    46ec:	48 8b 0d c5 4b 20 00 	mov    0x204bc5(%rip),%rcx        # 2092b8 <_ZL7entries>
    46f3:	0f b7 05 ae 4b 20 00 	movzwl 0x204bae(%rip),%eax        # 2092a8 <_ZL11entry_count>
    46fa:	0f b7 d0             	movzwl %ax,%edx
    46fd:	48 89 d0             	mov    %rdx,%rax
    4700:	48 01 c0             	add    %rax,%rax
    4703:	48 01 d0             	add    %rdx,%rax
    4706:	48 c1 e0 04          	shl    $0x4,%rax
    470a:	48 8d 1c 01          	lea    (%rcx,%rax,1),%rbx
    470e:	48 8d 45 a0          	lea    -0x60(%rbp),%rax
    4712:	48 89 c7             	mov    %rax,%rdi
    4715:	e8 42 11 00 00       	callq  585c <_Z12ip_read_convPc>
    471a:	89 43 08             	mov    %eax,0x8(%rbx)
    471d:	48 8b 0d 94 4b 20 00 	mov    0x204b94(%rip),%rcx        # 2092b8 <_ZL7entries>
    4724:	0f b7 05 7d 4b 20 00 	movzwl 0x204b7d(%rip),%eax        # 2092a8 <_ZL11entry_count>
    472b:	0f b7 d0             	movzwl %ax,%edx
    472e:	48 89 d0             	mov    %rdx,%rax
    4731:	48 01 c0             	add    %rax,%rax
    4734:	48 01 d0             	add    %rdx,%rax
    4737:	48 c1 e0 04          	shl    $0x4,%rax
    473b:	48 01 c8             	add    %rcx,%rax
    473e:	48 c7 40 10 00 00 00 	movq   $0x0,0x10(%rax)
    4745:	00 
    4746:	48 8b 0d 6b 4b 20 00 	mov    0x204b6b(%rip),%rcx        # 2092b8 <_ZL7entries>
    474d:	0f b7 05 54 4b 20 00 	movzwl 0x204b54(%rip),%eax        # 2092a8 <_ZL11entry_count>
    4754:	0f b7 d0             	movzwl %ax,%edx
    4757:	48 89 d0             	mov    %rdx,%rax
    475a:	48 01 c0             	add    %rax,%rax
    475d:	48 01 d0             	add    %rdx,%rax
    4760:	48 c1 e0 04          	shl    $0x4,%rax
    4764:	48 01 c8             	add    %rcx,%rax
    4767:	48 c7 40 18 00 00 00 	movq   $0x0,0x18(%rax)
    476e:	00 
    476f:	48 8d 85 b0 f9 ff ff 	lea    -0x650(%rbp),%rax
    4776:	48 8d b0 51 01 00 00 	lea    0x151(%rax),%rsi
    477d:	48 8b 0d 34 4b 20 00 	mov    0x204b34(%rip),%rcx        # 2092b8 <_ZL7entries>
    4784:	0f b7 05 1d 4b 20 00 	movzwl 0x204b1d(%rip),%eax        # 2092a8 <_ZL11entry_count>
    478b:	0f b7 d0             	movzwl %ax,%edx
    478e:	48 89 d0             	mov    %rdx,%rax
    4791:	48 01 c0             	add    %rax,%rax
    4794:	48 01 d0             	add    %rdx,%rax
    4797:	48 c1 e0 04          	shl    $0x4,%rax
    479b:	48 01 c1             	add    %rax,%rcx
    479e:	48 8b 06             	mov    (%rsi),%rax
    47a1:	48 8b 56 08          	mov    0x8(%rsi),%rdx
    47a5:	48 89 41 20          	mov    %rax,0x20(%rcx)
    47a9:	48 89 51 28          	mov    %rdx,0x28(%rcx)
    47ad:	48 8b 0d 04 4b 20 00 	mov    0x204b04(%rip),%rcx        # 2092b8 <_ZL7entries>
    47b4:	0f b7 05 ed 4a 20 00 	movzwl 0x204aed(%rip),%eax        # 2092a8 <_ZL11entry_count>
    47bb:	0f b7 d0             	movzwl %ax,%edx
    47be:	48 89 d0             	mov    %rdx,%rax
    47c1:	48 01 c0             	add    %rax,%rax
    47c4:	48 01 d0             	add    %rdx,%rax
    47c7:	48 c1 e0 04          	shl    $0x4,%rax
    47cb:	48 01 c8             	add    %rcx,%rax
    47ce:	8b 40 08             	mov    0x8(%rax),%eax
    47d1:	89 c6                	mov    %eax,%esi
    47d3:	48 8d 3d 1e 21 00 00 	lea    0x211e(%rip),%rdi        # 68f8 <_IO_stdin_used+0x608>
    47da:	b8 00 00 00 00       	mov    $0x0,%eax
    47df:	e8 0c cf ff ff       	callq  16f0 <printf@plt>
    47e4:	48 8b 05 75 4a 20 00 	mov    0x204a75(%rip),%rax        # 209260 <stdout@@GLIBC_2.2.5>
    47eb:	48 89 c7             	mov    %rax,%rdi
    47ee:	e8 3d d0 ff ff       	callq  1830 <fflush@plt>
    47f3:	48 8b 85 98 f9 ff ff 	mov    -0x668(%rbp),%rax
    47fa:	48 89 c7             	mov    %rax,%rdi
    47fd:	e8 8e ce ff ff       	callq  1690 <fclose@plt>
    4802:	48 8d 85 b0 f9 ff ff 	lea    -0x650(%rbp),%rax
    4809:	48 83 c0 10          	add    $0x10,%rax
    480d:	48 89 c1             	mov    %rax,%rcx
    4810:	48 8b 95 88 f9 ff ff 	mov    -0x678(%rbp),%rdx
    4817:	48 8d 45 a0          	lea    -0x60(%rbp),%rax
    481b:	48 89 c6             	mov    %rax,%rsi
    481e:	48 89 cf             	mov    %rcx,%rdi
    4821:	e8 9a cf ff ff       	callq  17c0 <memcpy@plt>
    4826:	48 8d 85 b0 f9 ff ff 	lea    -0x650(%rbp),%rax
    482d:	48 8d 50 10          	lea    0x10(%rax),%rdx
    4831:	48 8b 85 88 f9 ff ff 	mov    -0x678(%rbp),%rax
    4838:	48 01 d0             	add    %rdx,%rax
    483b:	c6 00 00             	movb   $0x0,(%rax)
    483e:	48 8b 85 88 f9 ff ff 	mov    -0x678(%rbp),%rax
    4845:	48 8d 50 01          	lea    0x1(%rax),%rdx
    4849:	48 8d 45 a0          	lea    -0x60(%rbp),%rax
    484d:	48 01 c2             	add    %rax,%rdx
    4850:	48 8d 85 b0 f9 ff ff 	lea    -0x650(%rbp),%rax
    4857:	48 83 c0 10          	add    $0x10,%rax
    485b:	48 83 c0 13          	add    $0x13,%rax
    485f:	48 89 d6             	mov    %rdx,%rsi
    4862:	48 89 c7             	mov    %rax,%rdi
    4865:	e8 96 cd ff ff       	callq  1600 <strcpy@plt>
    486a:	48 8d 85 b0 f9 ff ff 	lea    -0x650(%rbp),%rax
    4871:	48 83 c0 10          	add    $0x10,%rax
    4875:	48 89 c6             	mov    %rax,%rsi
    4878:	48 8d 3d 87 20 00 00 	lea    0x2087(%rip),%rdi        # 6906 <_IO_stdin_used+0x616>
    487f:	b8 00 00 00 00       	mov    $0x0,%eax
    4884:	e8 67 ce ff ff       	callq  16f0 <printf@plt>
    4889:	48 8d 85 b0 f9 ff ff 	lea    -0x650(%rbp),%rax
    4890:	48 83 c0 10          	add    $0x10,%rax
    4894:	48 83 c0 13          	add    $0x13,%rax
    4898:	48 89 c6             	mov    %rax,%rsi
    489b:	48 8d 3d 71 20 00 00 	lea    0x2071(%rip),%rdi        # 6913 <_IO_stdin_used+0x623>
    48a2:	b8 00 00 00 00       	mov    $0x0,%eax
    48a7:	e8 44 ce ff ff       	callq  16f0 <printf@plt>
    48ac:	48 8b 05 ad 49 20 00 	mov    0x2049ad(%rip),%rax        # 209260 <stdout@@GLIBC_2.2.5>
    48b3:	48 89 c7             	mov    %rax,%rdi
    48b6:	e8 75 cf ff ff       	callq  1830 <fflush@plt>
    48bb:	48 8d 8d b0 f9 ff ff 	lea    -0x650(%rbp),%rcx
    48c2:	8b 85 84 f9 ff ff    	mov    -0x67c(%rbp),%eax
    48c8:	ba 33 00 00 00       	mov    $0x33,%edx
    48cd:	48 89 ce             	mov    %rcx,%rsi
    48d0:	89 c7                	mov    %eax,%edi
    48d2:	e8 79 cd ff ff       	callq  1650 <write@plt>
    48d7:	48 89 85 a8 f9 ff ff 	mov    %rax,-0x658(%rbp)
    48de:	48 83 bd a8 f9 ff ff 	cmpq   $0x0,-0x658(%rbp)
    48e5:	00 
    48e6:	79 1b                	jns    4903 <_ZL24teavpn_accept_connectionPv+0x611>
    48e8:	48 8d 3d 34 20 00 00 	lea    0x2034(%rip),%rdi        # 6923 <_IO_stdin_used+0x633>
    48ef:	e8 ac cf ff ff       	callq  18a0 <perror@plt>
    48f4:	8b 85 84 f9 ff ff    	mov    -0x67c(%rbp),%eax
    48fa:	89 c7                	mov    %eax,%edi
    48fc:	e8 3f ce ff ff       	callq  1740 <close@plt>
    4901:	eb 59                	jmp    495c <_ZL24teavpn_accept_connectionPv+0x66a>
    4903:	48 8b 0d ae 49 20 00 	mov    0x2049ae(%rip),%rcx        # 2092b8 <_ZL7entries>
    490a:	0f b7 05 97 49 20 00 	movzwl 0x204997(%rip),%eax        # 2092a8 <_ZL11entry_count>
    4911:	0f b7 d0             	movzwl %ax,%edx
    4914:	48 89 d0             	mov    %rdx,%rax
    4917:	48 01 c0             	add    %rax,%rax
    491a:	48 01 d0             	add    %rdx,%rax
    491d:	48 c1 e0 04          	shl    $0x4,%rax
    4921:	48 01 c8             	add    %rcx,%rax
    4924:	c6 00 01             	movb   $0x1,(%rax)
    4927:	0f b7 05 7a 49 20 00 	movzwl 0x20497a(%rip),%eax        # 2092a8 <_ZL11entry_count>
    492e:	83 c0 01             	add    $0x1,%eax
    4931:	66 89 05 70 49 20 00 	mov    %ax,0x204970(%rip)        # 2092a8 <_ZL11entry_count>
    4938:	e9 ed f9 ff ff       	jmpq   432a <_ZL24teavpn_accept_connectionPv+0x38>
    493d:	8b 85 84 f9 ff ff    	mov    -0x67c(%rbp),%eax
    4943:	89 c7                	mov    %eax,%edi
    4945:	e8 f6 cd ff ff       	callq  1740 <close@plt>
    494a:	e9 db f9 ff ff       	jmpq   432a <_ZL24teavpn_accept_connectionPv+0x38>
    494f:	8b 85 84 f9 ff ff    	mov    -0x67c(%rbp),%eax
    4955:	89 c7                	mov    %eax,%edi
    4957:	e8 e4 cd ff ff       	callq  1740 <close@plt>
    495c:	e9 c9 f9 ff ff       	jmpq   432a <_ZL24teavpn_accept_connectionPv+0x38>

0000000000004961 <_ZL24get_buffer_channel_indexv>:
    4961:	55                   	push   %rbp
    4962:	48 89 e5             	mov    %rsp,%rbp
    4965:	66 c7 45 fe 00 00    	movw   $0x0,-0x2(%rbp)
    496b:	66 83 7d fe 17       	cmpw   $0x17,-0x2(%rbp)
    4970:	7f 32                	jg     49a4 <_ZL24get_buffer_channel_indexv+0x43>
    4972:	48 8b 15 37 49 20 00 	mov    0x204937(%rip),%rdx        # 2092b0 <_ZL7bufchan>
    4979:	48 0f bf 45 fe       	movswq -0x2(%rbp),%rax
    497e:	48 69 c0 08 06 00 00 	imul   $0x608,%rax,%rax
    4985:	48 01 d0             	add    %rdx,%rax
    4988:	0f b7 40 08          	movzwl 0x8(%rax),%eax
    498c:	66 85 c0             	test   %ax,%ax
    498f:	75 06                	jne    4997 <_ZL24get_buffer_channel_indexv+0x36>
    4991:	0f b7 45 fe          	movzwl -0x2(%rbp),%eax
    4995:	eb 12                	jmp    49a9 <_ZL24get_buffer_channel_indexv+0x48>
    4997:	0f b7 45 fe          	movzwl -0x2(%rbp),%eax
    499b:	83 c0 01             	add    $0x1,%eax
    499e:	66 89 45 fe          	mov    %ax,-0x2(%rbp)
    49a2:	eb c7                	jmp    496b <_ZL24get_buffer_channel_indexv+0xa>
    49a4:	b8 ff ff ff ff       	mov    $0xffffffff,%eax
    49a9:	5d                   	pop    %rbp
    49aa:	c3                   	retq   

00000000000049ab <_ZL26teavpn_server_socket_setupi>:
    49ab:	55                   	push   %rbp
    49ac:	48 89 e5             	mov    %rsp,%rbp
    49af:	48 83 ec 20          	sub    $0x20,%rsp
    49b3:	89 7d ec             	mov    %edi,-0x14(%rbp)
    49b6:	64 48 8b 04 25 28 00 	mov    %fs:0x28,%rax
    49bd:	00 00 
    49bf:	48 89 45 f8          	mov    %rax,-0x8(%rbp)
    49c3:	31 c0                	xor    %eax,%eax
    49c5:	c7 45 f4 01 00 00 00 	movl   $0x1,-0xc(%rbp)
    49cc:	48 8d 55 f4          	lea    -0xc(%rbp),%rdx
    49d0:	8b 45 ec             	mov    -0x14(%rbp),%eax
    49d3:	41 b8 04 00 00 00    	mov    $0x4,%r8d
    49d9:	48 89 d1             	mov    %rdx,%rcx
    49dc:	ba 02 00 00 00       	mov    $0x2,%edx
    49e1:	be 01 00 00 00       	mov    $0x1,%esi
    49e6:	89 c7                	mov    %eax,%edi
    49e8:	e8 53 cc ff ff       	callq  1640 <setsockopt@plt>
    49ed:	c1 e8 1f             	shr    $0x1f,%eax
    49f0:	84 c0                	test   %al,%al
    49f2:	74 13                	je     4a07 <_ZL26teavpn_server_socket_setupi+0x5c>
    49f4:	48 8d 3d 44 1f 00 00 	lea    0x1f44(%rip),%rdi        # 693f <_IO_stdin_used+0x64f>
    49fb:	e8 a0 ce ff ff       	callq  18a0 <perror@plt>
    4a00:	b8 00 00 00 00       	mov    $0x0,%eax
    4a05:	eb 05                	jmp    4a0c <_ZL26teavpn_server_socket_setupi+0x61>
    4a07:	b8 01 00 00 00       	mov    $0x1,%eax
    4a0c:	48 8b 4d f8          	mov    -0x8(%rbp),%rcx
    4a10:	64 48 33 0c 25 28 00 	xor    %fs:0x28,%rcx
    4a17:	00 00 
    4a19:	74 05                	je     4a20 <_ZL26teavpn_server_socket_setupi+0x75>
    4a1b:	e8 90 cc ff ff       	callq  16b0 <__stack_chk_fail@plt>
    4a20:	c9                   	leaveq 
    4a21:	c3                   	retq   

0000000000004a22 <_ZL24teavpn_server_init_ifaceP14_server_config>:
    4a22:	55                   	push   %rbp
    4a23:	48 89 e5             	mov    %rsp,%rbp
    4a26:	48 81 ec 10 01 00 00 	sub    $0x110,%rsp
    4a2d:	48 89 bd f8 fe ff ff 	mov    %rdi,-0x108(%rbp)
    4a34:	64 48 8b 04 25 28 00 	mov    %fs:0x28,%rax
    4a3b:	00 00 
    4a3d:	48 89 45 f8          	mov    %rax,-0x8(%rbp)
    4a41:	31 c0                	xor    %eax,%eax
    4a43:	48 8b 85 f8 fe ff ff 	mov    -0x108(%rbp),%rax
    4a4a:	48 8b 40 20          	mov    0x20(%rax),%rax
    4a4e:	48 89 c7             	mov    %rax,%rdi
    4a51:	e8 f3 0c 00 00       	callq  5749 <_Z14escapeshellargPc>
    4a56:	48 89 85 08 ff ff ff 	mov    %rax,-0xf8(%rbp)
    4a5d:	48 8b 85 f8 fe ff ff 	mov    -0x108(%rbp),%rax
    4a64:	48 8b 40 28          	mov    0x28(%rax),%rax
    4a68:	48 89 c7             	mov    %rax,%rdi
    4a6b:	e8 d9 0c 00 00       	callq  5749 <_Z14escapeshellargPc>
    4a70:	48 89 85 10 ff ff ff 	mov    %rax,-0xf0(%rbp)
    4a77:	48 8b 85 f8 fe ff ff 	mov    -0x108(%rbp),%rax
    4a7e:	48 8b 40 30          	mov    0x30(%rax),%rax
    4a82:	48 89 c7             	mov    %rax,%rdi
    4a85:	e8 bf 0c 00 00       	callq  5749 <_Z14escapeshellargPc>
    4a8a:	48 89 85 18 ff ff ff 	mov    %rax,-0xe8(%rbp)
    4a91:	48 8b 85 f8 fe ff ff 	mov    -0x108(%rbp),%rax
    4a98:	0f b7 40 38          	movzwl 0x38(%rax),%eax
    4a9c:	0f b7 c8             	movzwl %ax,%ecx
    4a9f:	48 8b 95 08 ff ff ff 	mov    -0xf8(%rbp),%rdx
    4aa6:	48 8d 85 20 ff ff ff 	lea    -0xe0(%rbp),%rax
    4aad:	48 8d 35 9c 1e 00 00 	lea    0x1e9c(%rip),%rsi        # 6950 <_IO_stdin_used+0x660>
    4ab4:	48 89 c7             	mov    %rax,%rdi
    4ab7:	b8 00 00 00 00       	mov    $0x0,%eax
    4abc:	e8 1f ce ff ff       	callq  18e0 <sprintf@plt>
    4ac1:	48 8b b5 18 ff ff ff 	mov    -0xe8(%rbp),%rsi
    4ac8:	48 8b 8d 10 ff ff ff 	mov    -0xf0(%rbp),%rcx
    4acf:	48 8b 95 08 ff ff ff 	mov    -0xf8(%rbp),%rdx
    4ad6:	48 8d 45 90          	lea    -0x70(%rbp),%rax
    4ada:	49 89 f0             	mov    %rsi,%r8
    4add:	48 8d 35 94 1e 00 00 	lea    0x1e94(%rip),%rsi        # 6978 <_IO_stdin_used+0x688>
    4ae4:	48 89 c7             	mov    %rax,%rdi
    4ae7:	b8 00 00 00 00       	mov    $0x0,%eax
    4aec:	e8 ef cd ff ff       	callq  18e0 <sprintf@plt>
    4af1:	48 8b 85 08 ff ff ff 	mov    -0xf8(%rbp),%rax
    4af8:	48 89 c7             	mov    %rax,%rdi
    4afb:	e8 b0 ca ff ff       	callq  15b0 <free@plt>
    4b00:	48 8b 85 10 ff ff ff 	mov    -0xf0(%rbp),%rax
    4b07:	48 89 c7             	mov    %rax,%rdi
    4b0a:	e8 a1 ca ff ff       	callq  15b0 <free@plt>
    4b0f:	48 8b 85 18 ff ff ff 	mov    -0xe8(%rbp),%rax
    4b16:	48 89 c7             	mov    %rax,%rdi
    4b19:	e8 92 ca ff ff       	callq  15b0 <free@plt>
    4b1e:	48 8d 85 20 ff ff ff 	lea    -0xe0(%rbp),%rax
    4b25:	48 89 c2             	mov    %rax,%rdx
    4b28:	48 8d 35 72 1e 00 00 	lea    0x1e72(%rip),%rsi        # 69a1 <_IO_stdin_used+0x6b1>
    4b2f:	bf 01 00 00 00       	mov    $0x1,%edi
    4b34:	b8 00 00 00 00       	mov    $0x0,%eax
    4b39:	e8 9d 03 00 00       	callq  4edb <_Z9debug_loghPKcz>
    4b3e:	48 8d 85 20 ff ff ff 	lea    -0xe0(%rbp),%rax
    4b45:	48 89 c7             	mov    %rax,%rdi
    4b48:	e8 83 cb ff ff       	callq  16d0 <system@plt>
    4b4d:	48 8d 45 90          	lea    -0x70(%rbp),%rax
    4b51:	48 89 c2             	mov    %rax,%rdx
    4b54:	48 8d 35 46 1e 00 00 	lea    0x1e46(%rip),%rsi        # 69a1 <_IO_stdin_used+0x6b1>
    4b5b:	bf 01 00 00 00       	mov    $0x1,%edi
    4b60:	b8 00 00 00 00       	mov    $0x0,%eax
    4b65:	e8 71 03 00 00       	callq  4edb <_Z9debug_loghPKcz>
    4b6a:	48 8d 45 90          	lea    -0x70(%rbp),%rax
    4b6e:	48 89 c7             	mov    %rax,%rdi
    4b71:	e8 5a cb ff ff       	callq  16d0 <system@plt>
    4b76:	90                   	nop
    4b77:	48 8b 45 f8          	mov    -0x8(%rbp),%rax
    4b7b:	64 48 33 04 25 28 00 	xor    %fs:0x28,%rax
    4b82:	00 00 
    4b84:	74 05                	je     4b8b <_ZL24teavpn_server_init_ifaceP14_server_config+0x169>
    4b86:	e8 25 cb ff ff       	callq  16b0 <__stack_chk_fail@plt>
    4b8b:	c9                   	leaveq 
    4b8c:	c3                   	retq   

0000000000004b8d <_ZL22_teavpn_send_handshakeitP11sockaddr_in>:
    4b8d:	55                   	push   %rbp
    4b8e:	48 89 e5             	mov    %rsp,%rbp
    4b91:	48 83 ec 10          	sub    $0x10,%rsp
    4b95:	89 7d fc             	mov    %edi,-0x4(%rbp)
    4b98:	89 f0                	mov    %esi,%eax
    4b9a:	48 89 55 f0          	mov    %rdx,-0x10(%rbp)
    4b9e:	66 89 45 f8          	mov    %ax,-0x8(%rbp)
    4ba2:	48 8b 55 f0          	mov    -0x10(%rbp),%rdx
    4ba6:	48 8d 75 f8          	lea    -0x8(%rbp),%rsi
    4baa:	8b 45 fc             	mov    -0x4(%rbp),%eax
    4bad:	41 b9 10 00 00 00    	mov    $0x10,%r9d
    4bb3:	49 89 d0             	mov    %rdx,%r8
    4bb6:	b9 00 08 00 00       	mov    $0x800,%ecx
    4bbb:	ba 02 00 00 00       	mov    $0x2,%edx
    4bc0:	89 c7                	mov    %eax,%edi
    4bc2:	e8 69 cb ff ff       	callq  1730 <sendto@plt>
    4bc7:	48 83 f8 02          	cmp    $0x2,%rax
    4bcb:	0f 94 c0             	sete   %al
    4bce:	c9                   	leaveq 
    4bcf:	c3                   	retq   

0000000000004bd0 <_ZL10teavpn_syniP11sockaddr_in>:
    4bd0:	55                   	push   %rbp
    4bd1:	48 89 e5             	mov    %rsp,%rbp
    4bd4:	48 83 ec 10          	sub    $0x10,%rsp
    4bd8:	89 7d fc             	mov    %edi,-0x4(%rbp)
    4bdb:	48 89 75 f0          	mov    %rsi,-0x10(%rbp)
    4bdf:	48 8b 55 f0          	mov    -0x10(%rbp),%rdx
    4be3:	8b 45 fc             	mov    -0x4(%rbp),%eax
    4be6:	be 22 22 00 00       	mov    $0x2222,%esi
    4beb:	89 c7                	mov    %eax,%edi
    4bed:	e8 9b ff ff ff       	callq  4b8d <_ZL22_teavpn_send_handshakeitP11sockaddr_in>
    4bf2:	c9                   	leaveq 
    4bf3:	c3                   	retq   

0000000000004bf4 <_ZL10teavpn_ackiP11sockaddr_in>:
    4bf4:	55                   	push   %rbp
    4bf5:	48 89 e5             	mov    %rsp,%rbp
    4bf8:	48 83 ec 10          	sub    $0x10,%rsp
    4bfc:	89 7d fc             	mov    %edi,-0x4(%rbp)
    4bff:	48 89 75 f0          	mov    %rsi,-0x10(%rbp)
    4c03:	48 8b 55 f0          	mov    -0x10(%rbp),%rdx
    4c07:	8b 45 fc             	mov    -0x4(%rbp),%eax
    4c0a:	be 11 11 00 00       	mov    $0x1111,%esi
    4c0f:	89 c7                	mov    %eax,%edi
    4c11:	e8 77 ff ff ff       	callq  4b8d <_ZL22_teavpn_send_handshakeitP11sockaddr_in>
    4c16:	c9                   	leaveq 
    4c17:	c3                   	retq   

0000000000004c18 <_ZL10teavpn_nakiP11sockaddr_in>:
    4c18:	55                   	push   %rbp
    4c19:	48 89 e5             	mov    %rsp,%rbp
    4c1c:	48 83 ec 10          	sub    $0x10,%rsp
    4c20:	89 7d fc             	mov    %edi,-0x4(%rbp)
    4c23:	48 89 75 f0          	mov    %rsi,-0x10(%rbp)
    4c27:	48 8b 55 f0          	mov    -0x10(%rbp),%rdx
    4c2b:	8b 45 fc             	mov    -0x4(%rbp),%eax
    4c2e:	be 33 33 00 00       	mov    $0x3333,%esi
    4c33:	89 c7                	mov    %eax,%edi
    4c35:	e8 53 ff ff ff       	callq  4b8d <_ZL22_teavpn_send_handshakeitP11sockaddr_in>
    4c3a:	c9                   	leaveq 
    4c3b:	c3                   	retq   

0000000000004c3c <_ZL13teavpn_synackiP11sockaddr_in>:
    4c3c:	55                   	push   %rbp
    4c3d:	48 89 e5             	mov    %rsp,%rbp
    4c40:	48 83 ec 10          	sub    $0x10,%rsp
    4c44:	89 7d fc             	mov    %edi,-0x4(%rbp)
    4c47:	48 89 75 f0          	mov    %rsi,-0x10(%rbp)
    4c4b:	48 8b 55 f0          	mov    -0x10(%rbp),%rdx
    4c4f:	8b 45 fc             	mov    -0x4(%rbp),%eax
    4c52:	be 44 44 00 00       	mov    $0x4444,%esi
    4c57:	89 c7                	mov    %eax,%edi
    4c59:	e8 2f ff ff ff       	callq  4b8d <_ZL22_teavpn_send_handshakeitP11sockaddr_in>
    4c5e:	c9                   	leaveq 
    4c5f:	c3                   	retq   

0000000000004c60 <_ZL13get_handshakeiP11sockaddr_in>:
    4c60:	55                   	push   %rbp
    4c61:	48 89 e5             	mov    %rsp,%rbp
    4c64:	48 83 ec 30          	sub    $0x30,%rsp
    4c68:	89 7d dc             	mov    %edi,-0x24(%rbp)
    4c6b:	48 89 75 d0          	mov    %rsi,-0x30(%rbp)
    4c6f:	64 48 8b 04 25 28 00 	mov    %fs:0x28,%rax
    4c76:	00 00 
    4c78:	48 89 45 f8          	mov    %rax,-0x8(%rbp)
    4c7c:	31 c0                	xor    %eax,%eax
    4c7e:	48 8b 55 d0          	mov    -0x30(%rbp),%rdx
    4c82:	48 8d 75 ee          	lea    -0x12(%rbp),%rsi
    4c86:	8b 45 dc             	mov    -0x24(%rbp),%eax
    4c89:	4c 8d 0d 80 45 20 00 	lea    0x204580(%rip),%r9        # 209210 <_ZZL13get_handshakeiP11sockaddr_inE10remote_len>
    4c90:	49 89 d0             	mov    %rdx,%r8
    4c93:	b9 00 01 00 00       	mov    $0x100,%ecx
    4c98:	ba 02 00 00 00       	mov    $0x2,%edx
    4c9d:	89 c7                	mov    %eax,%edi
    4c9f:	e8 ac cb ff ff       	callq  1850 <recvfrom@plt>
    4ca4:	48 89 45 f0          	mov    %rax,-0x10(%rbp)
    4ca8:	48 83 7d f0 02       	cmpq   $0x2,-0x10(%rbp)
    4cad:	74 13                	je     4cc2 <_ZL13get_handshakeiP11sockaddr_in+0x62>
    4caf:	48 8d 3d fa 1c 00 00 	lea    0x1cfa(%rip),%rdi        # 69b0 <_IO_stdin_used+0x6c0>
    4cb6:	e8 e5 cb ff ff       	callq  18a0 <perror@plt>
    4cbb:	b8 00 00 00 00       	mov    $0x0,%eax
    4cc0:	eb 04                	jmp    4cc6 <_ZL13get_handshakeiP11sockaddr_in+0x66>
    4cc2:	0f b7 45 ee          	movzwl -0x12(%rbp),%eax
    4cc6:	48 8b 4d f8          	mov    -0x8(%rbp),%rcx
    4cca:	64 48 33 0c 25 28 00 	xor    %fs:0x28,%rcx
    4cd1:	00 00 
    4cd3:	74 05                	je     4cda <_ZL13get_handshakeiP11sockaddr_in+0x7a>
    4cd5:	e8 d6 c9 ff ff       	callq  16b0 <__stack_chk_fail@plt>
    4cda:	c9                   	leaveq 
    4cdb:	c3                   	retq   

0000000000004cdc <_Z17teavpn_auth_checkP14_server_configP18teavpn_packet_auth>:
    4cdc:	55                   	push   %rbp
    4cdd:	48 89 e5             	mov    %rsp,%rbp
    4ce0:	48 81 ec 40 03 00 00 	sub    $0x340,%rsp
    4ce7:	48 89 bd c8 fc ff ff 	mov    %rdi,-0x338(%rbp)
    4cee:	48 89 b5 c0 fc ff ff 	mov    %rsi,-0x340(%rbp)
    4cf5:	64 48 8b 04 25 28 00 	mov    %fs:0x28,%rax
    4cfc:	00 00 
    4cfe:	48 89 45 f8          	mov    %rax,-0x8(%rbp)
    4d02:	31 c0                	xor    %eax,%eax
    4d04:	48 c7 85 e0 fc ff ff 	movq   $0x0,-0x320(%rbp)
    4d0b:	00 00 00 00 
    4d0f:	48 c7 85 d8 fc ff ff 	movq   $0x0,-0x328(%rbp)
    4d16:	00 00 00 00 
    4d1a:	48 8b 85 c0 fc ff ff 	mov    -0x340(%rbp),%rax
    4d21:	48 8d 48 02          	lea    0x2(%rax),%rcx
    4d25:	48 8b 85 c8 fc ff ff 	mov    -0x338(%rbp),%rax
    4d2c:	48 8b 50 18          	mov    0x18(%rax),%rdx
    4d30:	48 8d 85 f0 fd ff ff 	lea    -0x210(%rbp),%rax
    4d37:	48 8d 35 8c 1c 00 00 	lea    0x1c8c(%rip),%rsi        # 69ca <_IO_stdin_used+0x6da>
    4d3e:	48 89 c7             	mov    %rax,%rdi
    4d41:	b8 00 00 00 00       	mov    $0x0,%eax
    4d46:	e8 95 cb ff ff       	callq  18e0 <sprintf@plt>
    4d4b:	48 8d 85 f0 fd ff ff 	lea    -0x210(%rbp),%rax
    4d52:	48 89 c7             	mov    %rax,%rdi
    4d55:	e8 c6 c8 ff ff       	callq  1620 <puts@plt>
    4d5a:	48 8b 05 ff 44 20 00 	mov    0x2044ff(%rip),%rax        # 209260 <stdout@@GLIBC_2.2.5>
    4d61:	48 89 c7             	mov    %rax,%rdi
    4d64:	e8 c7 ca ff ff       	callq  1830 <fflush@plt>
    4d69:	48 8d 85 f0 fd ff ff 	lea    -0x210(%rbp),%rax
    4d70:	48 8d 35 68 1c 00 00 	lea    0x1c68(%rip),%rsi        # 69df <_IO_stdin_used+0x6ef>
    4d77:	48 89 c7             	mov    %rax,%rdi
    4d7a:	e8 11 cb ff ff       	callq  1890 <fopen@plt>
    4d7f:	48 89 85 e0 fc ff ff 	mov    %rax,-0x320(%rbp)
    4d86:	48 83 bd e0 fc ff ff 	cmpq   $0x0,-0x320(%rbp)
    4d8d:	00 
    4d8e:	75 0a                	jne    4d9a <_Z17teavpn_auth_checkP14_server_configP18teavpn_packet_auth+0xbe>
    4d90:	b8 00 00 00 00       	mov    $0x0,%eax
    4d95:	e9 2b 01 00 00       	jmpq   4ec5 <_Z17teavpn_auth_checkP14_server_configP18teavpn_packet_auth+0x1e9>
    4d9a:	48 8b 95 e0 fc ff ff 	mov    -0x320(%rbp),%rdx
    4da1:	48 8d 85 f0 fc ff ff 	lea    -0x310(%rbp),%rax
    4da8:	be fe 00 00 00       	mov    $0xfe,%esi
    4dad:	48 89 c7             	mov    %rax,%rdi
    4db0:	e8 ab c9 ff ff       	callq  1760 <fgets@plt>
    4db5:	48 85 c0             	test   %rax,%rax
    4db8:	0f 95 c0             	setne  %al
    4dbb:	84 c0                	test   %al,%al
    4dbd:	0f 84 eb 00 00 00    	je     4eae <_Z17teavpn_auth_checkP14_server_configP18teavpn_packet_auth+0x1d2>
    4dc3:	48 8d 85 f0 fc ff ff 	lea    -0x310(%rbp),%rax
    4dca:	48 89 c7             	mov    %rax,%rdi
    4dcd:	e8 ce c8 ff ff       	callq  16a0 <strlen@plt>
    4dd2:	48 89 85 e8 fc ff ff 	mov    %rax,-0x318(%rbp)
    4dd9:	48 8b 85 e8 fc ff ff 	mov    -0x318(%rbp),%rax
    4de0:	48 83 e8 01          	sub    $0x1,%rax
    4de4:	0f b6 84 05 f0 fc ff 	movzbl -0x310(%rbp,%rax,1),%eax
    4deb:	ff 
    4dec:	3c 0a                	cmp    $0xa,%al
    4dee:	75 13                	jne    4e03 <_Z17teavpn_auth_checkP14_server_configP18teavpn_packet_auth+0x127>
    4df0:	48 8b 85 e8 fc ff ff 	mov    -0x318(%rbp),%rax
    4df7:	48 83 e8 01          	sub    $0x1,%rax
    4dfb:	c6 84 05 f0 fc ff ff 	movb   $0x0,-0x310(%rbp,%rax,1)
    4e02:	00 
    4e03:	48 8d 85 f0 fc ff ff 	lea    -0x310(%rbp),%rax
    4e0a:	48 89 c6             	mov    %rax,%rsi
    4e0d:	48 8d 3d cd 1b 00 00 	lea    0x1bcd(%rip),%rdi        # 69e1 <_IO_stdin_used+0x6f1>
    4e14:	b8 00 00 00 00       	mov    $0x0,%eax
    4e19:	e8 d2 c8 ff ff       	callq  16f0 <printf@plt>
    4e1e:	48 8b 85 c0 fc ff ff 	mov    -0x340(%rbp),%rax
    4e25:	48 83 c0 42          	add    $0x42,%rax
    4e29:	48 89 c6             	mov    %rax,%rsi
    4e2c:	48 8d 3d bf 1b 00 00 	lea    0x1bbf(%rip),%rdi        # 69f2 <_IO_stdin_used+0x702>
    4e33:	b8 00 00 00 00       	mov    $0x0,%eax
    4e38:	e8 b3 c8 ff ff       	callq  16f0 <printf@plt>
    4e3d:	48 8b 85 c0 fc ff ff 	mov    -0x340(%rbp),%rax
    4e44:	48 8d 50 42          	lea    0x42(%rax),%rdx
    4e48:	48 8d 85 f0 fc ff ff 	lea    -0x310(%rbp),%rax
    4e4f:	48 89 c6             	mov    %rax,%rsi
    4e52:	48 89 d7             	mov    %rdx,%rdi
    4e55:	e8 36 c9 ff ff       	callq  1790 <strcmp@plt>
    4e5a:	85 c0                	test   %eax,%eax
    4e5c:	75 51                	jne    4eaf <_Z17teavpn_auth_checkP14_server_configP18teavpn_packet_auth+0x1d3>
    4e5e:	48 8b 85 c0 fc ff ff 	mov    -0x340(%rbp),%rax
    4e65:	48 8d 48 02          	lea    0x2(%rax),%rcx
    4e69:	48 8b 85 c8 fc ff ff 	mov    -0x338(%rbp),%rax
    4e70:	48 8b 50 18          	mov    0x18(%rax),%rdx
    4e74:	48 8d 85 f0 fd ff ff 	lea    -0x210(%rbp),%rax
    4e7b:	48 8d 35 80 1b 00 00 	lea    0x1b80(%rip),%rsi        # 6a02 <_IO_stdin_used+0x712>
    4e82:	48 89 c7             	mov    %rax,%rdi
    4e85:	b8 00 00 00 00       	mov    $0x0,%eax
    4e8a:	e8 51 ca ff ff       	callq  18e0 <sprintf@plt>
    4e8f:	48 8d 85 f0 fd ff ff 	lea    -0x210(%rbp),%rax
    4e96:	48 8d 35 42 1b 00 00 	lea    0x1b42(%rip),%rsi        # 69df <_IO_stdin_used+0x6ef>
    4e9d:	48 89 c7             	mov    %rax,%rdi
    4ea0:	e8 eb c9 ff ff       	callq  1890 <fopen@plt>
    4ea5:	48 89 85 d8 fc ff ff 	mov    %rax,-0x328(%rbp)
    4eac:	eb 01                	jmp    4eaf <_Z17teavpn_auth_checkP14_server_configP18teavpn_packet_auth+0x1d3>
    4eae:	90                   	nop
    4eaf:	48 8b 85 e0 fc ff ff 	mov    -0x320(%rbp),%rax
    4eb6:	48 89 c7             	mov    %rax,%rdi
    4eb9:	e8 d2 c7 ff ff       	callq  1690 <fclose@plt>
    4ebe:	48 8b 85 d8 fc ff ff 	mov    -0x328(%rbp),%rax
    4ec5:	48 8b 4d f8          	mov    -0x8(%rbp),%rcx
    4ec9:	64 48 33 0c 25 28 00 	xor    %fs:0x28,%rcx
    4ed0:	00 00 
    4ed2:	74 05                	je     4ed9 <_Z17teavpn_auth_checkP14_server_configP18teavpn_packet_auth+0x1fd>
    4ed4:	e8 d7 c7 ff ff       	callq  16b0 <__stack_chk_fail@plt>
    4ed9:	c9                   	leaveq 
    4eda:	c3                   	retq   

0000000000004edb <_Z9debug_loghPKcz>:
    4edb:	55                   	push   %rbp
    4edc:	48 89 e5             	mov    %rsp,%rbp
    4edf:	48 81 ec e0 00 00 00 	sub    $0xe0,%rsp
    4ee6:	48 89 b5 20 ff ff ff 	mov    %rsi,-0xe0(%rbp)
    4eed:	48 89 95 60 ff ff ff 	mov    %rdx,-0xa0(%rbp)
    4ef4:	48 89 8d 68 ff ff ff 	mov    %rcx,-0x98(%rbp)
    4efb:	4c 89 85 70 ff ff ff 	mov    %r8,-0x90(%rbp)
    4f02:	4c 89 8d 78 ff ff ff 	mov    %r9,-0x88(%rbp)
    4f09:	84 c0                	test   %al,%al
    4f0b:	74 20                	je     4f2d <_Z9debug_loghPKcz+0x52>
    4f0d:	0f 29 45 80          	movaps %xmm0,-0x80(%rbp)
    4f11:	0f 29 4d 90          	movaps %xmm1,-0x70(%rbp)
    4f15:	0f 29 55 a0          	movaps %xmm2,-0x60(%rbp)
    4f19:	0f 29 5d b0          	movaps %xmm3,-0x50(%rbp)
    4f1d:	0f 29 65 c0          	movaps %xmm4,-0x40(%rbp)
    4f21:	0f 29 6d d0          	movaps %xmm5,-0x30(%rbp)
    4f25:	0f 29 75 e0          	movaps %xmm6,-0x20(%rbp)
    4f29:	0f 29 7d f0          	movaps %xmm7,-0x10(%rbp)
    4f2d:	89 f8                	mov    %edi,%eax
    4f2f:	88 85 2c ff ff ff    	mov    %al,-0xd4(%rbp)
    4f35:	64 48 8b 04 25 28 00 	mov    %fs:0x28,%rax
    4f3c:	00 00 
    4f3e:	48 89 85 48 ff ff ff 	mov    %rax,-0xb8(%rbp)
    4f45:	31 c0                	xor    %eax,%eax
    4f47:	0f b6 05 72 43 20 00 	movzbl 0x204372(%rip),%eax        # 2092c0 <verbose_level>
    4f4e:	38 85 2c ff ff ff    	cmp    %al,-0xd4(%rbp)
    4f54:	77 5c                	ja     4fb2 <_Z9debug_loghPKcz+0xd7>
    4f56:	c7 85 30 ff ff ff 10 	movl   $0x10,-0xd0(%rbp)
    4f5d:	00 00 00 
    4f60:	c7 85 34 ff ff ff 30 	movl   $0x30,-0xcc(%rbp)
    4f67:	00 00 00 
    4f6a:	48 8d 45 10          	lea    0x10(%rbp),%rax
    4f6e:	48 89 85 38 ff ff ff 	mov    %rax,-0xc8(%rbp)
    4f75:	48 8d 85 50 ff ff ff 	lea    -0xb0(%rbp),%rax
    4f7c:	48 89 85 40 ff ff ff 	mov    %rax,-0xc0(%rbp)
    4f83:	48 8b 05 d6 42 20 00 	mov    0x2042d6(%rip),%rax        # 209260 <stdout@@GLIBC_2.2.5>
    4f8a:	48 8d 95 30 ff ff ff 	lea    -0xd0(%rbp),%rdx
    4f91:	48 8b 8d 20 ff ff ff 	mov    -0xe0(%rbp),%rcx
    4f98:	48 89 ce             	mov    %rcx,%rsi
    4f9b:	48 89 c7             	mov    %rax,%rdi
    4f9e:	e8 0d c9 ff ff       	callq  18b0 <vfprintf@plt>
    4fa3:	48 8b 05 b6 42 20 00 	mov    0x2042b6(%rip),%rax        # 209260 <stdout@@GLIBC_2.2.5>
    4faa:	48 89 c7             	mov    %rax,%rdi
    4fad:	e8 7e c8 ff ff       	callq  1830 <fflush@plt>
    4fb2:	90                   	nop
    4fb3:	48 8b 85 48 ff ff ff 	mov    -0xb8(%rbp),%rax
    4fba:	64 48 33 04 25 28 00 	xor    %fs:0x28,%rax
    4fc1:	00 00 
    4fc3:	74 05                	je     4fca <_Z9debug_loghPKcz+0xef>
    4fc5:	e8 e6 c6 ff ff       	callq  16b0 <__stack_chk_fail@plt>
    4fca:	c9                   	leaveq 
    4fcb:	c3                   	retq   

0000000000004fcc <_Z9tun_allocPci>:
    4fcc:	55                   	push   %rbp
    4fcd:	48 89 e5             	mov    %rsp,%rbp
    4fd0:	48 83 ec 50          	sub    $0x50,%rsp
    4fd4:	48 89 7d b8          	mov    %rdi,-0x48(%rbp)
    4fd8:	89 75 b4             	mov    %esi,-0x4c(%rbp)
    4fdb:	64 48 8b 04 25 28 00 	mov    %fs:0x28,%rax
    4fe2:	00 00 
    4fe4:	48 89 45 f8          	mov    %rax,-0x8(%rbp)
    4fe8:	31 c0                	xor    %eax,%eax
    4fea:	be 02 00 00 00       	mov    $0x2,%esi
    4fef:	48 8d 3d 1b 1a 00 00 	lea    0x1a1b(%rip),%rdi        # 6a11 <_IO_stdin_used+0x721>
    4ff6:	b8 00 00 00 00       	mov    $0x0,%eax
    4ffb:	e8 80 c8 ff ff       	callq  1880 <open@plt>
    5000:	89 45 c8             	mov    %eax,-0x38(%rbp)
    5003:	8b 45 c8             	mov    -0x38(%rbp),%eax
    5006:	c1 e8 1f             	shr    $0x1f,%eax
    5009:	84 c0                	test   %al,%al
    500b:	74 14                	je     5021 <_Z9tun_allocPci+0x55>
    500d:	48 8d 3d 0a 1a 00 00 	lea    0x1a0a(%rip),%rdi        # 6a1e <_IO_stdin_used+0x72e>
    5014:	e8 87 c8 ff ff       	callq  18a0 <perror@plt>
    5019:	8b 45 c8             	mov    -0x38(%rbp),%eax
    501c:	e9 96 00 00 00       	jmpq   50b7 <_Z9tun_allocPci+0xeb>
    5021:	48 8d 45 d0          	lea    -0x30(%rbp),%rax
    5025:	ba 28 00 00 00       	mov    $0x28,%edx
    502a:	be 00 00 00 00       	mov    $0x0,%esi
    502f:	48 89 c7             	mov    %rax,%rdi
    5032:	e8 d9 c6 ff ff       	callq  1710 <memset@plt>
    5037:	8b 45 b4             	mov    -0x4c(%rbp),%eax
    503a:	66 89 45 e0          	mov    %ax,-0x20(%rbp)
    503e:	48 8b 45 b8          	mov    -0x48(%rbp),%rax
    5042:	0f b6 00             	movzbl (%rax),%eax
    5045:	84 c0                	test   %al,%al
    5047:	74 18                	je     5061 <_Z9tun_allocPci+0x95>
    5049:	48 8b 4d b8          	mov    -0x48(%rbp),%rcx
    504d:	48 8d 45 d0          	lea    -0x30(%rbp),%rax
    5051:	ba 10 00 00 00       	mov    $0x10,%edx
    5056:	48 89 ce             	mov    %rcx,%rsi
    5059:	48 89 c7             	mov    %rax,%rdi
    505c:	e8 8f c5 ff ff       	callq  15f0 <strncpy@plt>
    5061:	48 8d 55 d0          	lea    -0x30(%rbp),%rdx
    5065:	8b 45 c8             	mov    -0x38(%rbp),%eax
    5068:	be ca 54 04 40       	mov    $0x400454ca,%esi
    506d:	89 c7                	mov    %eax,%edi
    506f:	b8 00 00 00 00       	mov    $0x0,%eax
    5074:	e8 a7 c6 ff ff       	callq  1720 <ioctl@plt>
    5079:	89 45 cc             	mov    %eax,-0x34(%rbp)
    507c:	8b 45 cc             	mov    -0x34(%rbp),%eax
    507f:	c1 e8 1f             	shr    $0x1f,%eax
    5082:	84 c0                	test   %al,%al
    5084:	74 1b                	je     50a1 <_Z9tun_allocPci+0xd5>
    5086:	48 8d 3d a6 19 00 00 	lea    0x19a6(%rip),%rdi        # 6a33 <_IO_stdin_used+0x743>
    508d:	e8 0e c8 ff ff       	callq  18a0 <perror@plt>
    5092:	8b 45 c8             	mov    -0x38(%rbp),%eax
    5095:	89 c7                	mov    %eax,%edi
    5097:	e8 a4 c6 ff ff       	callq  1740 <close@plt>
    509c:	8b 45 cc             	mov    -0x34(%rbp),%eax
    509f:	eb 16                	jmp    50b7 <_Z9tun_allocPci+0xeb>
    50a1:	48 8d 55 d0          	lea    -0x30(%rbp),%rdx
    50a5:	48 8b 45 b8          	mov    -0x48(%rbp),%rax
    50a9:	48 89 d6             	mov    %rdx,%rsi
    50ac:	48 89 c7             	mov    %rax,%rdi
    50af:	e8 4c c5 ff ff       	callq  1600 <strcpy@plt>
    50b4:	8b 45 c8             	mov    -0x38(%rbp),%eax
    50b7:	48 8b 4d f8          	mov    -0x8(%rbp),%rcx
    50bb:	64 48 33 0c 25 28 00 	xor    %fs:0x28,%rcx
    50c2:	00 00 
    50c4:	74 05                	je     50cb <_Z9tun_allocPci+0xff>
    50c6:	e8 e5 c5 ff ff       	callq  16b0 <__stack_chk_fail@plt>
    50cb:	c9                   	leaveq 
    50cc:	c3                   	retq   

00000000000050cd <_ZL22_teavpn_send_handshakeitP11sockaddr_in>:
    50cd:	55                   	push   %rbp
    50ce:	48 89 e5             	mov    %rsp,%rbp
    50d1:	48 83 ec 10          	sub    $0x10,%rsp
    50d5:	89 7d fc             	mov    %edi,-0x4(%rbp)
    50d8:	89 f0                	mov    %esi,%eax
    50da:	48 89 55 f0          	mov    %rdx,-0x10(%rbp)
    50de:	66 89 45 f8          	mov    %ax,-0x8(%rbp)
    50e2:	48 8b 55 f0          	mov    -0x10(%rbp),%rdx
    50e6:	48 8d 75 f8          	lea    -0x8(%rbp),%rsi
    50ea:	8b 45 fc             	mov    -0x4(%rbp),%eax
    50ed:	41 b9 10 00 00 00    	mov    $0x10,%r9d
    50f3:	49 89 d0             	mov    %rdx,%r8
    50f6:	b9 00 08 00 00       	mov    $0x800,%ecx
    50fb:	ba 02 00 00 00       	mov    $0x2,%edx
    5100:	89 c7                	mov    %eax,%edi
    5102:	e8 29 c6 ff ff       	callq  1730 <sendto@plt>
    5107:	48 83 f8 02          	cmp    $0x2,%rax
    510b:	0f 94 c0             	sete   %al
    510e:	c9                   	leaveq 
    510f:	c3                   	retq   

0000000000005110 <_ZL10teavpn_syniP11sockaddr_in>:
    5110:	55                   	push   %rbp
    5111:	48 89 e5             	mov    %rsp,%rbp
    5114:	48 83 ec 10          	sub    $0x10,%rsp
    5118:	89 7d fc             	mov    %edi,-0x4(%rbp)
    511b:	48 89 75 f0          	mov    %rsi,-0x10(%rbp)
    511f:	48 8b 55 f0          	mov    -0x10(%rbp),%rdx
    5123:	8b 45 fc             	mov    -0x4(%rbp),%eax
    5126:	be 22 22 00 00       	mov    $0x2222,%esi
    512b:	89 c7                	mov    %eax,%edi
    512d:	e8 9b ff ff ff       	callq  50cd <_ZL22_teavpn_send_handshakeitP11sockaddr_in>
    5132:	c9                   	leaveq 
    5133:	c3                   	retq   

0000000000005134 <_ZL10teavpn_ackiP11sockaddr_in>:
    5134:	55                   	push   %rbp
    5135:	48 89 e5             	mov    %rsp,%rbp
    5138:	48 83 ec 10          	sub    $0x10,%rsp
    513c:	89 7d fc             	mov    %edi,-0x4(%rbp)
    513f:	48 89 75 f0          	mov    %rsi,-0x10(%rbp)
    5143:	48 8b 55 f0          	mov    -0x10(%rbp),%rdx
    5147:	8b 45 fc             	mov    -0x4(%rbp),%eax
    514a:	be 11 11 00 00       	mov    $0x1111,%esi
    514f:	89 c7                	mov    %eax,%edi
    5151:	e8 77 ff ff ff       	callq  50cd <_ZL22_teavpn_send_handshakeitP11sockaddr_in>
    5156:	c9                   	leaveq 
    5157:	c3                   	retq   

0000000000005158 <_ZL10teavpn_nakiP11sockaddr_in>:
    5158:	55                   	push   %rbp
    5159:	48 89 e5             	mov    %rsp,%rbp
    515c:	48 83 ec 10          	sub    $0x10,%rsp
    5160:	89 7d fc             	mov    %edi,-0x4(%rbp)
    5163:	48 89 75 f0          	mov    %rsi,-0x10(%rbp)
    5167:	48 8b 55 f0          	mov    -0x10(%rbp),%rdx
    516b:	8b 45 fc             	mov    -0x4(%rbp),%eax
    516e:	be 33 33 00 00       	mov    $0x3333,%esi
    5173:	89 c7                	mov    %eax,%edi
    5175:	e8 53 ff ff ff       	callq  50cd <_ZL22_teavpn_send_handshakeitP11sockaddr_in>
    517a:	c9                   	leaveq 
    517b:	c3                   	retq   

000000000000517c <_ZL13teavpn_synackiP11sockaddr_in>:
    517c:	55                   	push   %rbp
    517d:	48 89 e5             	mov    %rsp,%rbp
    5180:	48 83 ec 10          	sub    $0x10,%rsp
    5184:	89 7d fc             	mov    %edi,-0x4(%rbp)
    5187:	48 89 75 f0          	mov    %rsi,-0x10(%rbp)
    518b:	48 8b 55 f0          	mov    -0x10(%rbp),%rdx
    518f:	8b 45 fc             	mov    -0x4(%rbp),%eax
    5192:	be 44 44 00 00       	mov    $0x4444,%esi
    5197:	89 c7                	mov    %eax,%edi
    5199:	e8 2f ff ff ff       	callq  50cd <_ZL22_teavpn_send_handshakeitP11sockaddr_in>
    519e:	c9                   	leaveq 
    519f:	c3                   	retq   

00000000000051a0 <_ZL13get_handshakeiP11sockaddr_in>:
    51a0:	55                   	push   %rbp
    51a1:	48 89 e5             	mov    %rsp,%rbp
    51a4:	48 83 ec 30          	sub    $0x30,%rsp
    51a8:	89 7d dc             	mov    %edi,-0x24(%rbp)
    51ab:	48 89 75 d0          	mov    %rsi,-0x30(%rbp)
    51af:	64 48 8b 04 25 28 00 	mov    %fs:0x28,%rax
    51b6:	00 00 
    51b8:	48 89 45 f8          	mov    %rax,-0x8(%rbp)
    51bc:	31 c0                	xor    %eax,%eax
    51be:	48 8b 55 d0          	mov    -0x30(%rbp),%rdx
    51c2:	48 8d 75 ee          	lea    -0x12(%rbp),%rsi
    51c6:	8b 45 dc             	mov    -0x24(%rbp),%eax
    51c9:	4c 8d 0d 44 40 20 00 	lea    0x204044(%rip),%r9        # 209214 <_ZZL13get_handshakeiP11sockaddr_inE10remote_len>
    51d0:	49 89 d0             	mov    %rdx,%r8
    51d3:	b9 00 01 00 00       	mov    $0x100,%ecx
    51d8:	ba 02 00 00 00       	mov    $0x2,%edx
    51dd:	89 c7                	mov    %eax,%edi
    51df:	e8 6c c6 ff ff       	callq  1850 <recvfrom@plt>
    51e4:	48 89 45 f0          	mov    %rax,-0x10(%rbp)
    51e8:	48 83 7d f0 02       	cmpq   $0x2,-0x10(%rbp)
    51ed:	74 13                	je     5202 <_ZL13get_handshakeiP11sockaddr_in+0x62>
    51ef:	48 8d 3d 52 18 00 00 	lea    0x1852(%rip),%rdi        # 6a48 <_IO_stdin_used+0x758>
    51f6:	e8 a5 c6 ff ff       	callq  18a0 <perror@plt>
    51fb:	b8 00 00 00 00       	mov    $0x0,%eax
    5200:	eb 04                	jmp    5206 <_ZL13get_handshakeiP11sockaddr_in+0x66>
    5202:	0f b7 45 ee          	movzwl -0x12(%rbp),%eax
    5206:	48 8b 4d f8          	mov    -0x8(%rbp),%rcx
    520a:	64 48 33 0c 25 28 00 	xor    %fs:0x28,%rcx
    5211:	00 00 
    5213:	74 05                	je     521a <_ZL13get_handshakeiP11sockaddr_in+0x7a>
    5215:	e8 96 c4 ff ff       	callq  16b0 <__stack_chk_fail@plt>
    521a:	c9                   	leaveq 
    521b:	c3                   	retq   

000000000000521c <_Z17teavpn_tcp_clientP14_client_config>:
    521c:	55                   	push   %rbp
    521d:	48 89 e5             	mov    %rsp,%rbp
    5220:	53                   	push   %rbx
    5221:	48 81 ec 28 16 00 00 	sub    $0x1628,%rsp
    5228:	48 89 bd d8 e9 ff ff 	mov    %rdi,-0x1628(%rbp)
    522f:	64 48 8b 04 25 28 00 	mov    %fs:0x28,%rax
    5236:	00 00 
    5238:	48 89 45 e8          	mov    %rax,-0x18(%rbp)
    523c:	31 c0                	xor    %eax,%eax
    523e:	48 8b 85 d8 e9 ff ff 	mov    -0x1628(%rbp),%rax
    5245:	48 8b 40 08          	mov    0x8(%rax),%rax
    5249:	48 85 c0             	test   %rax,%rax
    524c:	74 36                	je     5284 <_Z17teavpn_tcp_clientP14_client_config+0x68>
    524e:	48 8b 95 d8 e9 ff ff 	mov    -0x1628(%rbp),%rdx
    5255:	48 8d 85 e0 ef ff ff 	lea    -0x1020(%rbp),%rax
    525c:	48 89 d6             	mov    %rdx,%rsi
    525f:	48 89 c7             	mov    %rax,%rdi
    5262:	e8 77 df ff ff       	callq  31de <_Z27teavpn_client_config_parserPcP14_client_config>
    5267:	83 f0 01             	xor    $0x1,%eax
    526a:	84 c0                	test   %al,%al
    526c:	74 16                	je     5284 <_Z17teavpn_tcp_clientP14_client_config+0x68>
    526e:	48 8d 3d ed 17 00 00 	lea    0x17ed(%rip),%rdi        # 6a62 <_IO_stdin_used+0x772>
    5275:	e8 a6 c3 ff ff       	callq  1620 <puts@plt>
    527a:	b8 01 00 00 00       	mov    $0x1,%eax
    527f:	e9 a7 04 00 00       	jmpq   572b <_Z17teavpn_tcp_clientP14_client_config+0x50f>
    5284:	48 8b 85 d8 e9 ff ff 	mov    -0x1628(%rbp),%rax
    528b:	48 8b 40 28          	mov    0x28(%rax),%rax
    528f:	48 85 c0             	test   %rax,%rax
    5292:	75 16                	jne    52aa <_Z17teavpn_tcp_clientP14_client_config+0x8e>
    5294:	48 8d 3d d5 17 00 00 	lea    0x17d5(%rip),%rdi        # 6a70 <_IO_stdin_used+0x780>
    529b:	e8 80 c3 ff ff       	callq  1620 <puts@plt>
    52a0:	b8 01 00 00 00       	mov    $0x1,%eax
    52a5:	e9 81 04 00 00       	jmpq   572b <_Z17teavpn_tcp_clientP14_client_config+0x50f>
    52aa:	48 8b 85 d8 e9 ff ff 	mov    -0x1628(%rbp),%rax
    52b1:	0f b6 40 38          	movzbl 0x38(%rax),%eax
    52b5:	3c 3f                	cmp    $0x3f,%al
    52b7:	76 16                	jbe    52cf <_Z17teavpn_tcp_clientP14_client_config+0xb3>
    52b9:	48 8d 3d c9 17 00 00 	lea    0x17c9(%rip),%rdi        # 6a89 <_IO_stdin_used+0x799>
    52c0:	e8 5b c3 ff ff       	callq  1620 <puts@plt>
    52c5:	b8 01 00 00 00       	mov    $0x1,%eax
    52ca:	e9 5c 04 00 00       	jmpq   572b <_Z17teavpn_tcp_clientP14_client_config+0x50f>
    52cf:	48 8b 85 d8 e9 ff ff 	mov    -0x1628(%rbp),%rax
    52d6:	48 8b 40 30          	mov    0x30(%rax),%rax
    52da:	48 85 c0             	test   %rax,%rax
    52dd:	75 16                	jne    52f5 <_Z17teavpn_tcp_clientP14_client_config+0xd9>
    52df:	48 8d 3d bb 17 00 00 	lea    0x17bb(%rip),%rdi        # 6aa1 <_IO_stdin_used+0x7b1>
    52e6:	e8 35 c3 ff ff       	callq  1620 <puts@plt>
    52eb:	b8 01 00 00 00       	mov    $0x1,%eax
    52f0:	e9 36 04 00 00       	jmpq   572b <_Z17teavpn_tcp_clientP14_client_config+0x50f>
    52f5:	48 8b 85 d8 e9 ff ff 	mov    -0x1628(%rbp),%rax
    52fc:	48 8b 00             	mov    (%rax),%rax
    52ff:	48 85 c0             	test   %rax,%rax
    5302:	75 16                	jne    531a <_Z17teavpn_tcp_clientP14_client_config+0xfe>
    5304:	48 8d 3d af 17 00 00 	lea    0x17af(%rip),%rdi        # 6aba <_IO_stdin_used+0x7ca>
    530b:	e8 10 c3 ff ff       	callq  1620 <puts@plt>
    5310:	b8 01 00 00 00       	mov    $0x1,%eax
    5315:	e9 11 04 00 00       	jmpq   572b <_Z17teavpn_tcp_clientP14_client_config+0x50f>
    531a:	48 8b 85 d8 e9 ff ff 	mov    -0x1628(%rbp),%rax
    5321:	0f b7 40 3a          	movzwl 0x3a(%rax),%eax
    5325:	66 85 c0             	test   %ax,%ax
    5328:	75 16                	jne    5340 <_Z17teavpn_tcp_clientP14_client_config+0x124>
    532a:	48 8d 3d a3 17 00 00 	lea    0x17a3(%rip),%rdi        # 6ad4 <_IO_stdin_used+0x7e4>
    5331:	e8 ea c2 ff ff       	callq  1620 <puts@plt>
    5336:	b8 01 00 00 00       	mov    $0x1,%eax
    533b:	e9 eb 03 00 00       	jmpq   572b <_Z17teavpn_tcp_clientP14_client_config+0x50f>
    5340:	48 8d 85 f0 e9 ff ff 	lea    -0x1610(%rbp),%rax
    5347:	48 8d 50 10          	lea    0x10(%rax),%rdx
    534b:	48 8b 85 d8 e9 ff ff 	mov    -0x1628(%rbp),%rax
    5352:	0f b6 40 38          	movzbl 0x38(%rax),%eax
    5356:	88 02                	mov    %al,(%rdx)
    5358:	48 8d 85 f0 e9 ff ff 	lea    -0x1610(%rbp),%rax
    535f:	48 8d 50 10          	lea    0x10(%rax),%rdx
    5363:	48 8b 85 d8 e9 ff ff 	mov    -0x1628(%rbp),%rax
    536a:	0f b6 40 39          	movzbl 0x39(%rax),%eax
    536e:	88 42 01             	mov    %al,0x1(%rdx)
    5371:	48 8b 85 d8 e9 ff ff 	mov    -0x1628(%rbp),%rax
    5378:	48 8b 40 28          	mov    0x28(%rax),%rax
    537c:	48 8d 95 f0 e9 ff ff 	lea    -0x1610(%rbp),%rdx
    5383:	48 83 c2 10          	add    $0x10,%rdx
    5387:	48 83 c2 02          	add    $0x2,%rdx
    538b:	48 89 c6             	mov    %rax,%rsi
    538e:	48 89 d7             	mov    %rdx,%rdi
    5391:	e8 6a c2 ff ff       	callq  1600 <strcpy@plt>
    5396:	48 8b 85 d8 e9 ff ff 	mov    -0x1628(%rbp),%rax
    539d:	48 8b 40 30          	mov    0x30(%rax),%rax
    53a1:	48 8d 95 f0 e9 ff ff 	lea    -0x1610(%rbp),%rdx
    53a8:	48 83 c2 10          	add    $0x10,%rdx
    53ac:	48 83 c2 42          	add    $0x42,%rdx
    53b0:	48 89 c6             	mov    %rax,%rsi
    53b3:	48 89 d7             	mov    %rdx,%rdi
    53b6:	e8 45 c2 ff ff       	callq  1600 <strcpy@plt>
    53bb:	48 8b 85 d8 e9 ff ff 	mov    -0x1628(%rbp),%rax
    53c2:	0f b6 40 3c          	movzbl 0x3c(%rax),%eax
    53c6:	88 05 f4 3e 20 00    	mov    %al,0x203ef4(%rip)        # 2092c0 <verbose_level>
    53cc:	48 8d 35 1d 17 00 00 	lea    0x171d(%rip),%rsi        # 6af0 <_IO_stdin_used+0x800>
    53d3:	bf 02 00 00 00       	mov    $0x2,%edi
    53d8:	b8 00 00 00 00       	mov    $0x0,%eax
    53dd:	e8 f9 fa ff ff       	callq  4edb <_Z9debug_loghPKcz>
    53e2:	48 8b 85 d8 e9 ff ff 	mov    -0x1628(%rbp),%rax
    53e9:	48 8b 40 18          	mov    0x18(%rax),%rax
    53ed:	be 01 00 00 00       	mov    $0x1,%esi
    53f2:	48 89 c7             	mov    %rax,%rdi
    53f5:	e8 d2 fb ff ff       	callq  4fcc <_Z9tun_allocPci>
    53fa:	89 05 c4 3e 20 00    	mov    %eax,0x203ec4(%rip)        # 2092c4 <_ZL6tap_fd>
    5400:	8b 05 be 3e 20 00    	mov    0x203ebe(%rip),%eax        # 2092c4 <_ZL6tap_fd>
    5406:	c1 e8 1f             	shr    $0x1f,%eax
    5409:	84 c0                	test   %al,%al
    540b:	74 29                	je     5436 <_Z17teavpn_tcp_clientP14_client_config+0x21a>
    540d:	48 8b 85 d8 e9 ff ff 	mov    -0x1628(%rbp),%rax
    5414:	48 8b 40 18          	mov    0x18(%rax),%rax
    5418:	48 89 c6             	mov    %rax,%rsi
    541b:	48 8d 3d ee 16 00 00 	lea    0x16ee(%rip),%rdi        # 6b10 <_IO_stdin_used+0x820>
    5422:	b8 00 00 00 00       	mov    $0x0,%eax
    5427:	e8 c4 c2 ff ff       	callq  16f0 <printf@plt>
    542c:	b8 01 00 00 00       	mov    $0x1,%eax
    5431:	e9 f5 02 00 00       	jmpq   572b <_Z17teavpn_tcp_clientP14_client_config+0x50f>
    5436:	48 8d 35 fe 16 00 00 	lea    0x16fe(%rip),%rsi        # 6b3b <_IO_stdin_used+0x84b>
    543d:	bf 02 00 00 00       	mov    $0x2,%edi
    5442:	b8 00 00 00 00       	mov    $0x0,%eax
    5447:	e8 8f fa ff ff       	callq  4edb <_Z9debug_loghPKcz>
    544c:	48 8b 85 d8 e9 ff ff 	mov    -0x1628(%rbp),%rax
    5453:	48 8b 40 18          	mov    0x18(%rax),%rax
    5457:	48 89 c2             	mov    %rax,%rdx
    545a:	48 8d 35 df 16 00 00 	lea    0x16df(%rip),%rsi        # 6b40 <_IO_stdin_used+0x850>
    5461:	bf 00 00 00 00       	mov    $0x0,%edi
    5466:	b8 00 00 00 00       	mov    $0x0,%eax
    546b:	e8 6b fa ff ff       	callq  4edb <_Z9debug_loghPKcz>
    5470:	48 8d 35 f5 16 00 00 	lea    0x16f5(%rip),%rsi        # 6b6c <_IO_stdin_used+0x87c>
    5477:	bf 01 00 00 00       	mov    $0x1,%edi
    547c:	b8 00 00 00 00       	mov    $0x0,%eax
    5481:	e8 55 fa ff ff       	callq  4edb <_Z9debug_loghPKcz>
    5486:	ba 00 00 00 00       	mov    $0x0,%edx
    548b:	be 01 00 00 00       	mov    $0x1,%esi
    5490:	bf 02 00 00 00       	mov    $0x2,%edi
    5495:	e8 b6 c4 ff ff       	callq  1950 <socket@plt>
    549a:	89 05 28 3e 20 00    	mov    %eax,0x203e28(%rip)        # 2092c8 <_ZL6net_fd>
    54a0:	8b 05 22 3e 20 00    	mov    0x203e22(%rip),%eax        # 2092c8 <_ZL6net_fd>
    54a6:	c1 e8 1f             	shr    $0x1f,%eax
    54a9:	84 c0                	test   %al,%al
    54ab:	74 23                	je     54d0 <_Z17teavpn_tcp_clientP14_client_config+0x2b4>
    54ad:	8b 05 11 3e 20 00    	mov    0x203e11(%rip),%eax        # 2092c4 <_ZL6tap_fd>
    54b3:	89 c7                	mov    %eax,%edi
    54b5:	e8 86 c2 ff ff       	callq  1740 <close@plt>
    54ba:	48 8d 3d c3 16 00 00 	lea    0x16c3(%rip),%rdi        # 6b84 <_IO_stdin_used+0x894>
    54c1:	e8 da c3 ff ff       	callq  18a0 <perror@plt>
    54c6:	b8 01 00 00 00       	mov    $0x1,%eax
    54cb:	e9 5b 02 00 00       	jmpq   572b <_Z17teavpn_tcp_clientP14_client_config+0x50f>
    54d0:	48 8d 35 c9 16 00 00 	lea    0x16c9(%rip),%rsi        # 6ba0 <_IO_stdin_used+0x8b0>
    54d7:	bf 01 00 00 00       	mov    $0x1,%edi
    54dc:	b8 00 00 00 00       	mov    $0x0,%eax
    54e1:	e8 f5 f9 ff ff       	callq  4edb <_Z9debug_loghPKcz>
    54e6:	48 8d 85 e0 ef ff ff 	lea    -0x1020(%rbp),%rax
    54ed:	48 05 00 08 00 00    	add    $0x800,%rax
    54f3:	ba 10 00 00 00       	mov    $0x10,%edx
    54f8:	be 00 00 00 00       	mov    $0x0,%esi
    54fd:	48 89 c7             	mov    %rax,%rdi
    5500:	e8 0b c2 ff ff       	callq  1710 <memset@plt>
    5505:	48 8d 85 e0 ef ff ff 	lea    -0x1020(%rbp),%rax
    550c:	48 05 00 08 00 00    	add    $0x800,%rax
    5512:	66 c7 00 02 00       	movw   $0x2,(%rax)
    5517:	48 8b 85 d8 e9 ff ff 	mov    -0x1628(%rbp),%rax
    551e:	0f b7 40 3a          	movzwl 0x3a(%rax),%eax
    5522:	0f b7 c0             	movzwl %ax,%eax
    5525:	48 8d 95 e0 ef ff ff 	lea    -0x1020(%rbp),%rdx
    552c:	48 8d 9a 00 08 00 00 	lea    0x800(%rdx),%rbx
    5533:	89 c7                	mov    %eax,%edi
    5535:	e8 a6 c1 ff ff       	callq  16e0 <htons@plt>
    553a:	66 89 43 02          	mov    %ax,0x2(%rbx)
    553e:	48 8b 85 d8 e9 ff ff 	mov    -0x1628(%rbp),%rax
    5545:	48 8b 00             	mov    (%rax),%rax
    5548:	48 8d 95 e0 ef ff ff 	lea    -0x1020(%rbp),%rdx
    554f:	48 8d 9a 00 08 00 00 	lea    0x800(%rdx),%rbx
    5556:	48 89 c7             	mov    %rax,%rdi
    5559:	e8 22 c2 ff ff       	callq  1780 <inet_addr@plt>
    555e:	89 43 04             	mov    %eax,0x4(%rbx)
    5561:	48 8b 85 d8 e9 ff ff 	mov    -0x1628(%rbp),%rax
    5568:	0f b7 40 3a          	movzwl 0x3a(%rax),%eax
    556c:	0f b7 d0             	movzwl %ax,%edx
    556f:	48 8b 85 d8 e9 ff ff 	mov    -0x1628(%rbp),%rax
    5576:	48 8b 00             	mov    (%rax),%rax
    5579:	89 d1                	mov    %edx,%ecx
    557b:	48 89 c2             	mov    %rax,%rdx
    557e:	48 8d 35 3c 16 00 00 	lea    0x163c(%rip),%rsi        # 6bc1 <_IO_stdin_used+0x8d1>
    5585:	bf 00 00 00 00       	mov    $0x0,%edi
    558a:	b8 00 00 00 00       	mov    $0x0,%eax
    558f:	e8 47 f9 ff ff       	callq  4edb <_Z9debug_loghPKcz>
    5594:	8b 05 2e 3d 20 00    	mov    0x203d2e(%rip),%eax        # 2092c8 <_ZL6net_fd>
    559a:	48 8d 95 e0 ef ff ff 	lea    -0x1020(%rbp),%rdx
    55a1:	48 8d 8a 00 08 00 00 	lea    0x800(%rdx),%rcx
    55a8:	ba 10 00 00 00       	mov    $0x10,%edx
    55ad:	48 89 ce             	mov    %rcx,%rsi
    55b0:	89 c7                	mov    %eax,%edi
    55b2:	e8 49 c3 ff ff       	callq  1900 <connect@plt>
    55b7:	c1 e8 1f             	shr    $0x1f,%eax
    55ba:	84 c0                	test   %al,%al
    55bc:	74 11                	je     55cf <_Z17teavpn_tcp_clientP14_client_config+0x3b3>
    55be:	48 8d 3d 14 16 00 00 	lea    0x1614(%rip),%rdi        # 6bd9 <_IO_stdin_used+0x8e9>
    55c5:	e8 d6 c2 ff ff       	callq  18a0 <perror@plt>
    55ca:	e9 3d 01 00 00       	jmpq   570c <_Z17teavpn_tcp_clientP14_client_config+0x4f0>
    55cf:	c7 85 f0 e9 ff ff 01 	movl   $0x1,-0x1610(%rbp)
    55d6:	00 00 00 
    55d9:	66 c7 85 f4 e9 ff ff 	movw   $0x141,-0x160c(%rbp)
    55e0:	41 01 
    55e2:	48 c7 85 f8 e9 ff ff 	movq   $0x0,-0x1608(%rbp)
    55e9:	00 00 00 00 
    55ed:	48 8d 85 f0 e9 ff ff 	lea    -0x1610(%rbp),%rax
    55f4:	48 83 c0 10          	add    $0x10,%rax
    55f8:	48 83 c0 02          	add    $0x2,%rax
    55fc:	48 89 c6             	mov    %rax,%rsi
    55ff:	48 8d 3d e1 15 00 00 	lea    0x15e1(%rip),%rdi        # 6be7 <_IO_stdin_used+0x8f7>
    5606:	b8 00 00 00 00       	mov    $0x0,%eax
    560b:	e8 e0 c0 ff ff       	callq  16f0 <printf@plt>
    5610:	48 8d 85 f0 e9 ff ff 	lea    -0x1610(%rbp),%rax
    5617:	48 83 c0 10          	add    $0x10,%rax
    561b:	48 83 c0 42          	add    $0x42,%rax
    561f:	48 89 c6             	mov    %rax,%rsi
    5622:	48 8d 3d ce 15 00 00 	lea    0x15ce(%rip),%rdi        # 6bf7 <_IO_stdin_used+0x907>
    5629:	b8 00 00 00 00       	mov    $0x0,%eax
    562e:	e8 bd c0 ff ff       	callq  16f0 <printf@plt>
    5633:	48 8b 05 26 3c 20 00 	mov    0x203c26(%rip),%rax        # 209260 <stdout@@GLIBC_2.2.5>
    563a:	48 89 c7             	mov    %rax,%rdi
    563d:	e8 ee c1 ff ff       	callq  1830 <fflush@plt>
    5642:	8b 05 80 3c 20 00    	mov    0x203c80(%rip),%eax        # 2092c8 <_ZL6net_fd>
    5648:	48 8d 8d f0 e9 ff ff 	lea    -0x1610(%rbp),%rcx
    564f:	ba 51 01 00 00       	mov    $0x151,%edx
    5654:	48 89 ce             	mov    %rcx,%rsi
    5657:	89 c7                	mov    %eax,%edi
    5659:	e8 f2 bf ff ff       	callq  1650 <write@plt>
    565e:	48 89 85 e0 e9 ff ff 	mov    %rax,-0x1620(%rbp)
    5665:	48 83 bd e0 e9 ff ff 	cmpq   $0x0,-0x1620(%rbp)
    566c:	00 
    566d:	79 11                	jns    5680 <_Z17teavpn_tcp_clientP14_client_config+0x464>
    566f:	48 8d 3d 91 15 00 00 	lea    0x1591(%rip),%rdi        # 6c07 <_IO_stdin_used+0x917>
    5676:	e8 25 c2 ff ff       	callq  18a0 <perror@plt>
    567b:	e9 8c 00 00 00       	jmpq   570c <_Z17teavpn_tcp_clientP14_client_config+0x4f0>
    5680:	8b 05 42 3c 20 00    	mov    0x203c42(%rip),%eax        # 2092c8 <_ZL6net_fd>
    5686:	48 8d 8d f0 e9 ff ff 	lea    -0x1610(%rbp),%rcx
    568d:	ba 33 00 00 00       	mov    $0x33,%edx
    5692:	48 89 ce             	mov    %rcx,%rsi
    5695:	89 c7                	mov    %eax,%edi
    5697:	e8 b4 c0 ff ff       	callq  1750 <read@plt>
    569c:	48 89 85 e8 e9 ff ff 	mov    %rax,-0x1618(%rbp)
    56a3:	48 83 bd e8 e9 ff ff 	cmpq   $0x0,-0x1618(%rbp)
    56aa:	00 
    56ab:	79 0e                	jns    56bb <_Z17teavpn_tcp_clientP14_client_config+0x49f>
    56ad:	48 8d 3d 5f 15 00 00 	lea    0x155f(%rip),%rdi        # 6c13 <_IO_stdin_used+0x923>
    56b4:	e8 e7 c1 ff ff       	callq  18a0 <perror@plt>
    56b9:	eb 51                	jmp    570c <_Z17teavpn_tcp_clientP14_client_config+0x4f0>
    56bb:	48 8d 85 f0 e9 ff ff 	lea    -0x1610(%rbp),%rax
    56c2:	48 83 c0 10          	add    $0x10,%rax
    56c6:	48 89 c6             	mov    %rax,%rsi
    56c9:	48 8d 3d 4e 15 00 00 	lea    0x154e(%rip),%rdi        # 6c1e <_IO_stdin_used+0x92e>
    56d0:	b8 00 00 00 00       	mov    $0x0,%eax
    56d5:	e8 16 c0 ff ff       	callq  16f0 <printf@plt>
    56da:	48 8d 85 f0 e9 ff ff 	lea    -0x1610(%rbp),%rax
    56e1:	48 83 c0 10          	add    $0x10,%rax
    56e5:	48 83 c0 13          	add    $0x13,%rax
    56e9:	48 89 c6             	mov    %rax,%rsi
    56ec:	48 8d 3d 38 15 00 00 	lea    0x1538(%rip),%rdi        # 6c2b <_IO_stdin_used+0x93b>
    56f3:	b8 00 00 00 00       	mov    $0x0,%eax
    56f8:	e8 f3 bf ff ff       	callq  16f0 <printf@plt>
    56fd:	48 8b 05 5c 3b 20 00 	mov    0x203b5c(%rip),%rax        # 209260 <stdout@@GLIBC_2.2.5>
    5704:	48 89 c7             	mov    %rax,%rdi
    5707:	e8 24 c1 ff ff       	callq  1830 <fflush@plt>
    570c:	8b 05 b6 3b 20 00    	mov    0x203bb6(%rip),%eax        # 2092c8 <_ZL6net_fd>
    5712:	89 c7                	mov    %eax,%edi
    5714:	e8 27 c0 ff ff       	callq  1740 <close@plt>
    5719:	8b 05 a5 3b 20 00    	mov    0x203ba5(%rip),%eax        # 2092c4 <_ZL6tap_fd>
    571f:	89 c7                	mov    %eax,%edi
    5721:	e8 1a c0 ff ff       	callq  1740 <close@plt>
    5726:	b8 01 00 00 00       	mov    $0x1,%eax
    572b:	48 8b 5d e8          	mov    -0x18(%rbp),%rbx
    572f:	64 48 33 1c 25 28 00 	xor    %fs:0x28,%rbx
    5736:	00 00 
    5738:	74 05                	je     573f <_Z17teavpn_tcp_clientP14_client_config+0x523>
    573a:	e8 71 bf ff ff       	callq  16b0 <__stack_chk_fail@plt>
    573f:	48 81 c4 28 16 00 00 	add    $0x1628,%rsp
    5746:	5b                   	pop    %rbx
    5747:	5d                   	pop    %rbp
    5748:	c3                   	retq   

0000000000005749 <_Z14escapeshellargPc>:
    5749:	55                   	push   %rbp
    574a:	48 89 e5             	mov    %rsp,%rbp
    574d:	48 83 ec 30          	sub    $0x30,%rsp
    5751:	48 89 7d d8          	mov    %rdi,-0x28(%rbp)
    5755:	48 c7 45 e8 00 00 00 	movq   $0x0,-0x18(%rbp)
    575c:	00 
    575d:	48 8b 45 d8          	mov    -0x28(%rbp),%rax
    5761:	48 89 c7             	mov    %rax,%rdi
    5764:	e8 37 bf ff ff       	callq  16a0 <strlen@plt>
    5769:	48 89 45 f0          	mov    %rax,-0x10(%rbp)
    576d:	48 8b 45 f0          	mov    -0x10(%rbp),%rax
    5771:	48 c1 e0 02          	shl    $0x2,%rax
    5775:	48 89 c7             	mov    %rax,%rdi
    5778:	e8 a3 c0 ff ff       	callq  1820 <malloc@plt>
    577d:	48 89 45 f8          	mov    %rax,-0x8(%rbp)
    5781:	48 8b 45 e8          	mov    -0x18(%rbp),%rax
    5785:	48 8d 50 01          	lea    0x1(%rax),%rdx
    5789:	48 89 55 e8          	mov    %rdx,-0x18(%rbp)
    578d:	48 8b 55 f8          	mov    -0x8(%rbp),%rdx
    5791:	48 01 d0             	add    %rdx,%rax
    5794:	c6 00 27             	movb   $0x27,(%rax)
    5797:	48 c7 45 e0 00 00 00 	movq   $0x0,-0x20(%rbp)
    579e:	00 
    579f:	48 8b 45 e0          	mov    -0x20(%rbp),%rax
    57a3:	48 3b 45 f0          	cmp    -0x10(%rbp),%rax
    57a7:	0f 83 85 00 00 00    	jae    5832 <_Z14escapeshellargPc+0xe9>
    57ad:	48 8b 55 d8          	mov    -0x28(%rbp),%rdx
    57b1:	48 8b 45 e0          	mov    -0x20(%rbp),%rax
    57b5:	48 01 d0             	add    %rdx,%rax
    57b8:	0f b6 00             	movzbl (%rax),%eax
    57bb:	0f be c0             	movsbl %al,%eax
    57be:	83 f8 27             	cmp    $0x27,%eax
    57c1:	75 42                	jne    5805 <_Z14escapeshellargPc+0xbc>
    57c3:	48 8b 45 e8          	mov    -0x18(%rbp),%rax
    57c7:	48 8d 50 01          	lea    0x1(%rax),%rdx
    57cb:	48 89 55 e8          	mov    %rdx,-0x18(%rbp)
    57cf:	48 8b 55 f8          	mov    -0x8(%rbp),%rdx
    57d3:	48 01 d0             	add    %rdx,%rax
    57d6:	c6 00 27             	movb   $0x27,(%rax)
    57d9:	48 8b 45 e8          	mov    -0x18(%rbp),%rax
    57dd:	48 8d 50 01          	lea    0x1(%rax),%rdx
    57e1:	48 89 55 e8          	mov    %rdx,-0x18(%rbp)
    57e5:	48 8b 55 f8          	mov    -0x8(%rbp),%rdx
    57e9:	48 01 d0             	add    %rdx,%rax
    57ec:	c6 00 5c             	movb   $0x5c,(%rax)
    57ef:	48 8b 45 e8          	mov    -0x18(%rbp),%rax
    57f3:	48 8d 50 01          	lea    0x1(%rax),%rdx
    57f7:	48 89 55 e8          	mov    %rdx,-0x18(%rbp)
    57fb:	48 8b 55 f8          	mov    -0x8(%rbp),%rdx
    57ff:	48 01 d0             	add    %rdx,%rax
    5802:	c6 00 27             	movb   $0x27,(%rax)
    5805:	48 8b 55 d8          	mov    -0x28(%rbp),%rdx
    5809:	48 8b 45 e0          	mov    -0x20(%rbp),%rax
    580d:	48 01 d0             	add    %rdx,%rax
    5810:	0f b6 10             	movzbl (%rax),%edx
    5813:	48 8b 45 e8          	mov    -0x18(%rbp),%rax
    5817:	48 8d 48 01          	lea    0x1(%rax),%rcx
    581b:	48 89 4d e8          	mov    %rcx,-0x18(%rbp)
    581f:	48 8b 4d f8          	mov    -0x8(%rbp),%rcx
    5823:	48 01 c8             	add    %rcx,%rax
    5826:	88 10                	mov    %dl,(%rax)
    5828:	48 83 45 e0 01       	addq   $0x1,-0x20(%rbp)
    582d:	e9 6d ff ff ff       	jmpq   579f <_Z14escapeshellargPc+0x56>
    5832:	48 8b 45 e8          	mov    -0x18(%rbp),%rax
    5836:	48 8d 50 01          	lea    0x1(%rax),%rdx
    583a:	48 89 55 e8          	mov    %rdx,-0x18(%rbp)
    583e:	48 8b 55 f8          	mov    -0x8(%rbp),%rdx
    5842:	48 01 d0             	add    %rdx,%rax
    5845:	c6 00 27             	movb   $0x27,(%rax)
    5848:	48 8b 55 f8          	mov    -0x8(%rbp),%rdx
    584c:	48 8b 45 e8          	mov    -0x18(%rbp),%rax
    5850:	48 01 d0             	add    %rdx,%rax
    5853:	c6 00 00             	movb   $0x0,(%rax)
    5856:	48 8b 45 f8          	mov    -0x8(%rbp),%rax
    585a:	c9                   	leaveq 
    585b:	c3                   	retq   

000000000000585c <_Z12ip_read_convPc>:
    585c:	55                   	push   %rbp
    585d:	48 89 e5             	mov    %rsp,%rbp
    5860:	48 83 ec 30          	sub    $0x30,%rsp
    5864:	48 89 7d d8          	mov    %rdi,-0x28(%rbp)
    5868:	64 48 8b 04 25 28 00 	mov    %fs:0x28,%rax
    586f:	00 00 
    5871:	48 89 45 f8          	mov    %rax,-0x8(%rbp)
    5875:	31 c0                	xor    %eax,%eax
    5877:	c7 45 f0 00 00 00 00 	movl   $0x0,-0x10(%rbp)
    587e:	c6 45 ee 00          	movb   $0x0,-0x12(%rbp)
    5882:	c6 45 ef 00          	movb   $0x0,-0x11(%rbp)
    5886:	c7 45 f4 00 00 00 00 	movl   $0x0,-0xc(%rbp)
    588d:	48 8b 45 d8          	mov    -0x28(%rbp),%rax
    5891:	0f b6 00             	movzbl (%rax),%eax
    5894:	84 c0                	test   %al,%al
    5896:	74 67                	je     58ff <_Z12ip_read_convPc+0xa3>
    5898:	48 8b 45 d8          	mov    -0x28(%rbp),%rax
    589c:	0f b6 00             	movzbl (%rax),%eax
    589f:	3c 2f                	cmp    $0x2f,%al
    58a1:	74 5c                	je     58ff <_Z12ip_read_convPc+0xa3>
    58a3:	0f b6 4d ee          	movzbl -0x12(%rbp),%ecx
    58a7:	48 8b 45 d8          	mov    -0x28(%rbp),%rax
    58ab:	0f b6 10             	movzbl (%rax),%edx
    58ae:	48 63 c1             	movslq %ecx,%rax
    58b1:	88 54 05 f4          	mov    %dl,-0xc(%rbp,%rax,1)
    58b5:	48 83 45 d8 01       	addq   $0x1,-0x28(%rbp)
    58ba:	0f b6 45 ee          	movzbl -0x12(%rbp),%eax
    58be:	83 c0 01             	add    $0x1,%eax
    58c1:	88 45 ee             	mov    %al,-0x12(%rbp)
    58c4:	80 7d ee 03          	cmpb   $0x3,-0x12(%rbp)
    58c8:	74 0b                	je     58d5 <_Z12ip_read_convPc+0x79>
    58ca:	48 8b 45 d8          	mov    -0x28(%rbp),%rax
    58ce:	0f b6 00             	movzbl (%rax),%eax
    58d1:	3c 2e                	cmp    $0x2e,%al
    58d3:	75 b8                	jne    588d <_Z12ip_read_convPc+0x31>
    58d5:	c6 45 ee 00          	movb   $0x0,-0x12(%rbp)
    58d9:	48 8d 45 f4          	lea    -0xc(%rbp),%rax
    58dd:	48 89 c7             	mov    %rax,%rdi
    58e0:	e8 eb bf ff ff       	callq  18d0 <atoi@plt>
    58e5:	89 c2                	mov    %eax,%edx
    58e7:	0f b6 45 ef          	movzbl -0x11(%rbp),%eax
    58eb:	89 c1                	mov    %eax,%ecx
    58ed:	d3 e2                	shl    %cl,%edx
    58ef:	89 d0                	mov    %edx,%eax
    58f1:	09 45 f0             	or     %eax,-0x10(%rbp)
    58f4:	80 45 ef 08          	addb   $0x8,-0x11(%rbp)
    58f8:	48 83 45 d8 01       	addq   $0x1,-0x28(%rbp)
    58fd:	eb 8e                	jmp    588d <_Z12ip_read_convPc+0x31>
    58ff:	80 7d ef 1f          	cmpb   $0x1f,-0x11(%rbp)
    5903:	77 1b                	ja     5920 <_Z12ip_read_convPc+0xc4>
    5905:	48 8d 45 f4          	lea    -0xc(%rbp),%rax
    5909:	48 89 c7             	mov    %rax,%rdi
    590c:	e8 bf bf ff ff       	callq  18d0 <atoi@plt>
    5911:	89 c2                	mov    %eax,%edx
    5913:	0f b6 45 ef          	movzbl -0x11(%rbp),%eax
    5917:	89 c1                	mov    %eax,%ecx
    5919:	d3 e2                	shl    %cl,%edx
    591b:	89 d0                	mov    %edx,%eax
    591d:	09 45 f0             	or     %eax,-0x10(%rbp)
    5920:	8b 45 f0             	mov    -0x10(%rbp),%eax
    5923:	48 8b 75 f8          	mov    -0x8(%rbp),%rsi
    5927:	64 48 33 34 25 28 00 	xor    %fs:0x28,%rsi
    592e:	00 00 
    5930:	74 05                	je     5937 <_Z12ip_read_convPc+0xdb>
    5932:	e8 79 bd ff ff       	callq  16b0 <__stack_chk_fail@plt>
    5937:	c9                   	leaveq 
    5938:	c3                   	retq   

0000000000005939 <_Z11argv_parserP14_teavpn_configiPPcS2_>:
    5939:	55                   	push   %rbp
    593a:	48 89 e5             	mov    %rsp,%rbp
    593d:	48 83 ec 20          	sub    $0x20,%rsp
    5941:	48 89 7d f8          	mov    %rdi,-0x8(%rbp)
    5945:	89 75 f4             	mov    %esi,-0xc(%rbp)
    5948:	48 89 55 e8          	mov    %rdx,-0x18(%rbp)
    594c:	48 89 4d e0          	mov    %rcx,-0x20(%rbp)
    5950:	83 7d f4 01          	cmpl   $0x1,-0xc(%rbp)
    5954:	75 19                	jne    596f <_Z11argv_parserP14_teavpn_configiPPcS2_+0x36>
    5956:	48 8b 45 e8          	mov    -0x18(%rbp),%rax
    595a:	48 8b 00             	mov    (%rax),%rax
    595d:	48 89 c7             	mov    %rax,%rdi
    5960:	e8 ce 07 00 00       	callq  6133 <_ZL17show_help_commandPc>
    5965:	b8 00 00 00 00       	mov    $0x0,%eax
    596a:	e9 42 01 00 00       	jmpq   5ab1 <_Z11argv_parserP14_teavpn_configiPPcS2_+0x178>
    596f:	48 8b 45 e8          	mov    -0x18(%rbp),%rax
    5973:	48 83 c0 08          	add    $0x8,%rax
    5977:	48 8b 00             	mov    (%rax),%rax
    597a:	48 8d 35 37 13 00 00 	lea    0x1337(%rip),%rsi        # 6cb8 <_IO_stdin_used+0x9c8>
    5981:	48 89 c7             	mov    %rax,%rdi
    5984:	e8 07 be ff ff       	callq  1790 <strcmp@plt>
    5989:	85 c0                	test   %eax,%eax
    598b:	75 38                	jne    59c5 <_Z11argv_parserP14_teavpn_configiPPcS2_+0x8c>
    598d:	48 8b 45 f8          	mov    -0x8(%rbp),%rax
    5991:	c7 40 40 00 00 00 00 	movl   $0x0,0x40(%rax)
    5998:	48 8b 45 e8          	mov    -0x18(%rbp),%rax
    599c:	48 8d 48 08          	lea    0x8(%rax),%rcx
    59a0:	8b 45 f4             	mov    -0xc(%rbp),%eax
    59a3:	8d 50 ff             	lea    -0x1(%rax),%edx
    59a6:	48 8b 75 f8          	mov    -0x8(%rbp),%rsi
    59aa:	48 8b 45 e8          	mov    -0x18(%rbp),%rax
    59ae:	48 8b 00             	mov    (%rax),%rax
    59b1:	48 8b 7d e0          	mov    -0x20(%rbp),%rdi
    59b5:	49 89 f8             	mov    %rdi,%r8
    59b8:	48 89 c7             	mov    %rax,%rdi
    59bb:	e8 f3 00 00 00       	callq  5ab3 <_ZL18server_argv_parserPcP14_server_configiPS_S2_>
    59c0:	e9 ec 00 00 00       	jmpq   5ab1 <_Z11argv_parserP14_teavpn_configiPPcS2_+0x178>
    59c5:	48 8b 45 e8          	mov    -0x18(%rbp),%rax
    59c9:	48 83 c0 08          	add    $0x8,%rax
    59cd:	48 8b 00             	mov    (%rax),%rax
    59d0:	48 8d 35 e8 12 00 00 	lea    0x12e8(%rip),%rsi        # 6cbf <_IO_stdin_used+0x9cf>
    59d7:	48 89 c7             	mov    %rax,%rdi
    59da:	e8 b1 bd ff ff       	callq  1790 <strcmp@plt>
    59df:	85 c0                	test   %eax,%eax
    59e1:	75 38                	jne    5a1b <_Z11argv_parserP14_teavpn_configiPPcS2_+0xe2>
    59e3:	48 8b 45 f8          	mov    -0x8(%rbp),%rax
    59e7:	c7 40 40 01 00 00 00 	movl   $0x1,0x40(%rax)
    59ee:	48 8b 45 e8          	mov    -0x18(%rbp),%rax
    59f2:	48 8d 48 08          	lea    0x8(%rax),%rcx
    59f6:	8b 45 f4             	mov    -0xc(%rbp),%eax
    59f9:	8d 50 ff             	lea    -0x1(%rax),%edx
    59fc:	48 8b 75 f8          	mov    -0x8(%rbp),%rsi
    5a00:	48 8b 45 e8          	mov    -0x18(%rbp),%rax
    5a04:	48 8b 00             	mov    (%rax),%rax
    5a07:	48 8b 7d e0          	mov    -0x20(%rbp),%rdi
    5a0b:	49 89 f8             	mov    %rdi,%r8
    5a0e:	48 89 c7             	mov    %rax,%rdi
    5a11:	e8 e8 03 00 00       	callq  5dfe <_ZL18client_argv_parserPcP14_client_configiPS_S2_>
    5a16:	e9 96 00 00 00       	jmpq   5ab1 <_Z11argv_parserP14_teavpn_configiPPcS2_+0x178>
    5a1b:	48 8b 45 e8          	mov    -0x18(%rbp),%rax
    5a1f:	48 83 c0 08          	add    $0x8,%rax
    5a23:	48 8b 00             	mov    (%rax),%rax
    5a26:	48 8d 35 9a 12 00 00 	lea    0x129a(%rip),%rsi        # 6cc7 <_IO_stdin_used+0x9d7>
    5a2d:	48 89 c7             	mov    %rax,%rdi
    5a30:	e8 5b bd ff ff       	callq  1790 <strcmp@plt>
    5a35:	85 c0                	test   %eax,%eax
    5a37:	74 3c                	je     5a75 <_Z11argv_parserP14_teavpn_configiPPcS2_+0x13c>
    5a39:	48 8b 45 e8          	mov    -0x18(%rbp),%rax
    5a3d:	48 83 c0 08          	add    $0x8,%rax
    5a41:	48 8b 00             	mov    (%rax),%rax
    5a44:	48 8d 35 83 12 00 00 	lea    0x1283(%rip),%rsi        # 6cce <_IO_stdin_used+0x9de>
    5a4b:	48 89 c7             	mov    %rax,%rdi
    5a4e:	e8 3d bd ff ff       	callq  1790 <strcmp@plt>
    5a53:	85 c0                	test   %eax,%eax
    5a55:	74 1e                	je     5a75 <_Z11argv_parserP14_teavpn_configiPPcS2_+0x13c>
    5a57:	48 8b 45 e8          	mov    -0x18(%rbp),%rax
    5a5b:	48 83 c0 08          	add    $0x8,%rax
    5a5f:	48 8b 00             	mov    (%rax),%rax
    5a62:	48 8d 35 2f 12 00 00 	lea    0x122f(%rip),%rsi        # 6c98 <_IO_stdin_used+0x9a8>
    5a69:	48 89 c7             	mov    %rax,%rdi
    5a6c:	e8 1f bd ff ff       	callq  1790 <strcmp@plt>
    5a71:	85 c0                	test   %eax,%eax
    5a73:	75 11                	jne    5a86 <_Z11argv_parserP14_teavpn_configiPPcS2_+0x14d>
    5a75:	48 8b 45 e8          	mov    -0x18(%rbp),%rax
    5a79:	48 8b 00             	mov    (%rax),%rax
    5a7c:	48 89 c7             	mov    %rax,%rdi
    5a7f:	e8 af 06 00 00       	callq  6133 <_ZL17show_help_commandPc>
    5a84:	eb 26                	jmp    5aac <_Z11argv_parserP14_teavpn_configiPPcS2_+0x173>
    5a86:	48 8b 45 e8          	mov    -0x18(%rbp),%rax
    5a8a:	48 8b 10             	mov    (%rax),%rdx
    5a8d:	48 8b 45 e8          	mov    -0x18(%rbp),%rax
    5a91:	48 83 c0 08          	add    $0x8,%rax
    5a95:	48 8b 00             	mov    (%rax),%rax
    5a98:	48 89 c6             	mov    %rax,%rsi
    5a9b:	48 8d 3d 36 12 00 00 	lea    0x1236(%rip),%rdi        # 6cd8 <_IO_stdin_used+0x9e8>
    5aa2:	b8 00 00 00 00       	mov    $0x0,%eax
    5aa7:	e8 44 bc ff ff       	callq  16f0 <printf@plt>
    5aac:	b8 00 00 00 00       	mov    $0x0,%eax
    5ab1:	c9                   	leaveq 
    5ab2:	c3                   	retq   

0000000000005ab3 <_ZL18server_argv_parserPcP14_server_configiPS_S2_>:
    5ab3:	55                   	push   %rbp
    5ab4:	48 89 e5             	mov    %rsp,%rbp
    5ab7:	48 83 ec 40          	sub    $0x40,%rsp
    5abb:	48 89 7d e8          	mov    %rdi,-0x18(%rbp)
    5abf:	48 89 75 e0          	mov    %rsi,-0x20(%rbp)
    5ac3:	89 55 dc             	mov    %edx,-0x24(%rbp)
    5ac6:	48 89 4d d0          	mov    %rcx,-0x30(%rbp)
    5aca:	4c 89 45 c8          	mov    %r8,-0x38(%rbp)
    5ace:	64 48 8b 04 25 28 00 	mov    %fs:0x28,%rax
    5ad5:	00 00 
    5ad7:	48 89 45 f8          	mov    %rax,-0x8(%rbp)
    5adb:	31 c0                	xor    %eax,%eax
    5add:	48 8b 45 e0          	mov    -0x20(%rbp),%rax
    5ae1:	48 8d 15 30 37 20 00 	lea    0x203730(%rip),%rdx        # 209218 <_ZL13bind_any_addr>
    5ae8:	48 89 10             	mov    %rdx,(%rax)
    5aeb:	48 8b 45 e0          	mov    -0x20(%rbp),%rax
    5aef:	66 c7 40 3a 03 d9    	movw   $0xd903,0x3a(%rax)
    5af5:	48 8b 45 e0          	mov    -0x20(%rbp),%rax
    5af9:	c6 40 3d 08          	movb   $0x8,0x3d(%rax)
    5afd:	48 8b 45 e0          	mov    -0x20(%rbp),%rax
    5b01:	c6 40 3c 00          	movb   $0x0,0x3c(%rax)
    5b05:	48 8b 45 e0          	mov    -0x20(%rbp),%rax
    5b09:	48 c7 40 10 00 00 00 	movq   $0x0,0x10(%rax)
    5b10:	00 
    5b11:	48 8b 45 e0          	mov    -0x20(%rbp),%rax
    5b15:	48 c7 40 08 00 00 00 	movq   $0x0,0x8(%rax)
    5b1c:	00 
    5b1d:	48 8b 45 e0          	mov    -0x20(%rbp),%rax
    5b21:	66 c7 40 38 dc 05    	movw   $0x5dc,0x38(%rax)
    5b27:	48 8b 45 e0          	mov    -0x20(%rbp),%rax
    5b2b:	48 c7 40 18 00 00 00 	movq   $0x0,0x18(%rax)
    5b32:	00 
    5b33:	48 8b 45 e0          	mov    -0x20(%rbp),%rax
    5b37:	48 8d 15 ea 36 20 00 	lea    0x2036ea(%rip),%rdx        # 209228 <_ZL13default_inet4>
    5b3e:	48 89 50 28          	mov    %rdx,0x28(%rax)
    5b42:	48 8b 45 e0          	mov    -0x20(%rbp),%rax
    5b46:	48 8d 15 eb 36 20 00 	lea    0x2036eb(%rip),%rdx        # 209238 <_ZL23default_inet4_broadcast>
    5b4d:	48 89 50 30          	mov    %rdx,0x30(%rax)
    5b51:	48 8b 45 e0          	mov    -0x20(%rbp),%rax
    5b55:	48 8d 15 c4 36 20 00 	lea    0x2036c4(%rip),%rdx        # 209220 <_ZL16default_dev_name>
    5b5c:	48 89 50 20          	mov    %rdx,0x20(%rax)
    5b60:	c7 45 f0 00 00 00 00 	movl   $0x0,-0x10(%rbp)
    5b67:	48 8d 55 f0          	lea    -0x10(%rbp),%rdx
    5b6b:	48 8b 75 d0          	mov    -0x30(%rbp),%rsi
    5b6f:	8b 45 dc             	mov    -0x24(%rbp),%eax
    5b72:	49 89 d0             	mov    %rdx,%r8
    5b75:	48 8d 0d 64 2f 20 00 	lea    0x202f64(%rip),%rcx        # 208ae0 <_ZL14server_options>
    5b7c:	48 8d 15 83 11 00 00 	lea    0x1183(%rip),%rdx        # 6d06 <_IO_stdin_used+0xa16>
    5b83:	89 c7                	mov    %eax,%edi
    5b85:	e8 36 bb ff ff       	callq  16c0 <getopt_long@plt>
    5b8a:	89 45 f4             	mov    %eax,-0xc(%rbp)
    5b8d:	83 7d f4 ff          	cmpl   $0xffffffff,-0xc(%rbp)
    5b91:	0f 84 85 01 00 00    	je     5d1c <_ZL18server_argv_parserPcP14_server_configiPS_S2_+0x269>
    5b97:	83 7d f4 76          	cmpl   $0x76,-0xc(%rbp)
    5b9b:	0f 8f 4c 01 00 00    	jg     5ced <_ZL18server_argv_parserPcP14_server_configiPS_S2_+0x23a>
    5ba1:	83 7d f4 63          	cmpl   $0x63,-0xc(%rbp)
    5ba5:	7d 41                	jge    5be8 <_ZL18server_argv_parserPcP14_server_configiPS_S2_+0x135>
    5ba7:	83 7d f4 0a          	cmpl   $0xa,-0xc(%rbp)
    5bab:	0f 84 2e 01 00 00    	je     5cdf <_ZL18server_argv_parserPcP14_server_configiPS_S2_+0x22c>
    5bb1:	83 7d f4 0a          	cmpl   $0xa,-0xc(%rbp)
    5bb5:	0f 8f 32 01 00 00    	jg     5ced <_ZL18server_argv_parserPcP14_server_configiPS_S2_+0x23a>
    5bbb:	83 7d f4 03          	cmpl   $0x3,-0xc(%rbp)
    5bbf:	0f 84 09 01 00 00    	je     5cce <_ZL18server_argv_parserPcP14_server_configiPS_S2_+0x21b>
    5bc5:	83 7d f4 03          	cmpl   $0x3,-0xc(%rbp)
    5bc9:	0f 8f 1e 01 00 00    	jg     5ced <_ZL18server_argv_parserPcP14_server_configiPS_S2_+0x23a>
    5bcf:	83 7d f4 01          	cmpl   $0x1,-0xc(%rbp)
    5bd3:	0f 84 ca 00 00 00    	je     5ca3 <_ZL18server_argv_parserPcP14_server_configiPS_S2_+0x1f0>
    5bd9:	83 7d f4 02          	cmpl   $0x2,-0xc(%rbp)
    5bdd:	0f 84 d1 00 00 00    	je     5cb4 <_ZL18server_argv_parserPcP14_server_configiPS_S2_+0x201>
    5be3:	e9 05 01 00 00       	jmpq   5ced <_ZL18server_argv_parserPcP14_server_configiPS_S2_+0x23a>
    5be8:	8b 45 f4             	mov    -0xc(%rbp),%eax
    5beb:	83 e8 63             	sub    $0x63,%eax
    5bee:	83 f8 13             	cmp    $0x13,%eax
    5bf1:	0f 87 f6 00 00 00    	ja     5ced <_ZL18server_argv_parserPcP14_server_configiPS_S2_+0x23a>
    5bf7:	89 c0                	mov    %eax,%eax
    5bf9:	48 8d 14 85 00 00 00 	lea    0x0(,%rax,4),%rdx
    5c00:	00 
    5c01:	48 8d 05 b4 11 00 00 	lea    0x11b4(%rip),%rax        # 6dbc <_IO_stdin_used+0xacc>
    5c08:	8b 04 02             	mov    (%rdx,%rax,1),%eax
    5c0b:	48 98                	cltq   
    5c0d:	48 8d 15 a8 11 00 00 	lea    0x11a8(%rip),%rdx        # 6dbc <_IO_stdin_used+0xacc>
    5c14:	48 01 d0             	add    %rdx,%rax
    5c17:	ff e0                	jmpq   *%rax
    5c19:	48 8b 15 48 36 20 00 	mov    0x203648(%rip),%rdx        # 209268 <optarg@@GLIBC_2.2.5>
    5c20:	48 8b 45 e0          	mov    -0x20(%rbp),%rax
    5c24:	48 89 10             	mov    %rdx,(%rax)
    5c27:	e9 eb 00 00 00       	jmpq   5d17 <_ZL18server_argv_parserPcP14_server_configiPS_S2_+0x264>
    5c2c:	48 8b 05 35 36 20 00 	mov    0x203635(%rip),%rax        # 209268 <optarg@@GLIBC_2.2.5>
    5c33:	48 89 c7             	mov    %rax,%rdi
    5c36:	e8 95 bc ff ff       	callq  18d0 <atoi@plt>
    5c3b:	89 c2                	mov    %eax,%edx
    5c3d:	48 8b 45 e0          	mov    -0x20(%rbp),%rax
    5c41:	66 89 50 3a          	mov    %dx,0x3a(%rax)
    5c45:	e9 cd 00 00 00       	jmpq   5d17 <_ZL18server_argv_parserPcP14_server_configiPS_S2_+0x264>
    5c4a:	48 8b 05 17 36 20 00 	mov    0x203617(%rip),%rax        # 209268 <optarg@@GLIBC_2.2.5>
    5c51:	48 89 c7             	mov    %rax,%rdi
    5c54:	e8 77 bc ff ff       	callq  18d0 <atoi@plt>
    5c59:	89 c2                	mov    %eax,%edx
    5c5b:	48 8b 45 e0          	mov    -0x20(%rbp),%rax
    5c5f:	88 50 3d             	mov    %dl,0x3d(%rax)
    5c62:	e9 b0 00 00 00       	jmpq   5d17 <_ZL18server_argv_parserPcP14_server_configiPS_S2_+0x264>
    5c67:	48 8b 45 e0          	mov    -0x20(%rbp),%rax
    5c6b:	0f b6 40 3c          	movzbl 0x3c(%rax),%eax
    5c6f:	8d 50 01             	lea    0x1(%rax),%edx
    5c72:	48 8b 45 e0          	mov    -0x20(%rbp),%rax
    5c76:	88 50 3c             	mov    %dl,0x3c(%rax)
    5c79:	e9 99 00 00 00       	jmpq   5d17 <_ZL18server_argv_parserPcP14_server_configiPS_S2_+0x264>
    5c7e:	48 8b 15 e3 35 20 00 	mov    0x2035e3(%rip),%rdx        # 209268 <optarg@@GLIBC_2.2.5>
    5c85:	48 8b 45 e0          	mov    -0x20(%rbp),%rax
    5c89:	48 89 50 08          	mov    %rdx,0x8(%rax)
    5c8d:	e9 85 00 00 00       	jmpq   5d17 <_ZL18server_argv_parserPcP14_server_configiPS_S2_+0x264>
    5c92:	48 8b 15 cf 35 20 00 	mov    0x2035cf(%rip),%rdx        # 209268 <optarg@@GLIBC_2.2.5>
    5c99:	48 8b 45 e0          	mov    -0x20(%rbp),%rax
    5c9d:	48 89 50 18          	mov    %rdx,0x18(%rax)
    5ca1:	eb 74                	jmp    5d17 <_ZL18server_argv_parserPcP14_server_configiPS_S2_+0x264>
    5ca3:	48 8b 15 be 35 20 00 	mov    0x2035be(%rip),%rdx        # 209268 <optarg@@GLIBC_2.2.5>
    5caa:	48 8b 45 e0          	mov    -0x20(%rbp),%rax
    5cae:	48 89 50 10          	mov    %rdx,0x10(%rax)
    5cb2:	eb 63                	jmp    5d17 <_ZL18server_argv_parserPcP14_server_configiPS_S2_+0x264>
    5cb4:	48 8b 05 ad 35 20 00 	mov    0x2035ad(%rip),%rax        # 209268 <optarg@@GLIBC_2.2.5>
    5cbb:	48 89 c7             	mov    %rax,%rdi
    5cbe:	e8 0d bc ff ff       	callq  18d0 <atoi@plt>
    5cc3:	89 c2                	mov    %eax,%edx
    5cc5:	48 8b 45 e0          	mov    -0x20(%rbp),%rax
    5cc9:	88 50 3c             	mov    %dl,0x3c(%rax)
    5ccc:	eb 49                	jmp    5d17 <_ZL18server_argv_parserPcP14_server_configiPS_S2_+0x264>
    5cce:	48 8b 15 93 35 20 00 	mov    0x203593(%rip),%rdx        # 209268 <optarg@@GLIBC_2.2.5>
    5cd5:	48 8b 45 e0          	mov    -0x20(%rbp),%rax
    5cd9:	48 89 50 20          	mov    %rdx,0x20(%rax)
    5cdd:	eb 38                	jmp    5d17 <_ZL18server_argv_parserPcP14_server_configiPS_S2_+0x264>
    5cdf:	48 8b 45 e8          	mov    -0x18(%rbp),%rax
    5ce3:	48 89 c7             	mov    %rax,%rdi
    5ce6:	e8 ba 04 00 00       	callq  61a5 <_ZL16show_help_serverPc>
    5ceb:	eb 2a                	jmp    5d17 <_ZL18server_argv_parserPcP14_server_configiPS_S2_+0x264>
    5ced:	48 8b 05 8c 35 20 00 	mov    0x20358c(%rip),%rax        # 209280 <stderr@@GLIBC_2.2.5>
    5cf4:	48 89 c1             	mov    %rax,%rcx
    5cf7:	ba 31 00 00 00       	mov    $0x31,%edx
    5cfc:	be 01 00 00 00       	mov    $0x1,%esi
    5d01:	48 8d 3d 10 10 00 00 	lea    0x1010(%rip),%rdi        # 6d18 <_IO_stdin_used+0xa28>
    5d08:	e8 03 bc ff ff       	callq  1910 <fwrite@plt>
    5d0d:	b8 00 00 00 00       	mov    $0x0,%eax
    5d12:	e9 d1 00 00 00       	jmpq   5de8 <_ZL18server_argv_parserPcP14_server_configiPS_S2_+0x335>
    5d17:	e9 44 fe ff ff       	jmpq   5b60 <_ZL18server_argv_parserPcP14_server_configiPS_S2_+0xad>
    5d1c:	90                   	nop
    5d1d:	48 8d 3d 26 10 00 00 	lea    0x1026(%rip),%rdi        # 6d4a <_IO_stdin_used+0xa5a>
    5d24:	e8 f7 b8 ff ff       	callq  1620 <puts@plt>
    5d29:	48 8b 45 e0          	mov    -0x20(%rbp),%rax
    5d2d:	48 8b 00             	mov    (%rax),%rax
    5d30:	48 89 c6             	mov    %rax,%rsi
    5d33:	48 8d 3d 21 10 00 00 	lea    0x1021(%rip),%rdi        # 6d5b <_IO_stdin_used+0xa6b>
    5d3a:	b8 00 00 00 00       	mov    $0x0,%eax
    5d3f:	e8 ac b9 ff ff       	callq  16f0 <printf@plt>
    5d44:	48 8b 45 e0          	mov    -0x20(%rbp),%rax
    5d48:	0f b7 40 3a          	movzwl 0x3a(%rax),%eax
    5d4c:	0f b7 c0             	movzwl %ax,%eax
    5d4f:	89 c6                	mov    %eax,%esi
    5d51:	48 8d 3d 12 10 00 00 	lea    0x1012(%rip),%rdi        # 6d6a <_IO_stdin_used+0xa7a>
    5d58:	b8 00 00 00 00       	mov    $0x0,%eax
    5d5d:	e8 8e b9 ff ff       	callq  16f0 <printf@plt>
    5d62:	48 8b 45 e0          	mov    -0x20(%rbp),%rax
    5d66:	0f b6 40 3d          	movzbl 0x3d(%rax),%eax
    5d6a:	0f b6 c0             	movzbl %al,%eax
    5d6d:	89 c6                	mov    %eax,%esi
    5d6f:	48 8d 3d 03 10 00 00 	lea    0x1003(%rip),%rdi        # 6d79 <_IO_stdin_used+0xa89>
    5d76:	b8 00 00 00 00       	mov    $0x0,%eax
    5d7b:	e8 70 b9 ff ff       	callq  16f0 <printf@plt>
    5d80:	48 8b 45 e0          	mov    -0x20(%rbp),%rax
    5d84:	48 8b 40 10          	mov    0x10(%rax),%rax
    5d88:	48 89 c6             	mov    %rax,%rsi
    5d8b:	48 8d 3d f4 0f 00 00 	lea    0xff4(%rip),%rdi        # 6d86 <_IO_stdin_used+0xa96>
    5d92:	b8 00 00 00 00       	mov    $0x0,%eax
    5d97:	e8 54 b9 ff ff       	callq  16f0 <printf@plt>
    5d9c:	48 8b 45 e0          	mov    -0x20(%rbp),%rax
    5da0:	48 8b 40 20          	mov    0x20(%rax),%rax
    5da4:	48 89 c6             	mov    %rax,%rsi
    5da7:	48 8d 3d ec 0f 00 00 	lea    0xfec(%rip),%rdi        # 6d9a <_IO_stdin_used+0xaaa>
    5dae:	b8 00 00 00 00       	mov    $0x0,%eax
    5db3:	e8 38 b9 ff ff       	callq  16f0 <printf@plt>
    5db8:	48 8b 45 e0          	mov    -0x20(%rbp),%rax
    5dbc:	48 8b 40 08          	mov    0x8(%rax),%rax
    5dc0:	48 89 c6             	mov    %rax,%rsi
    5dc3:	48 8d 3d de 0f 00 00 	lea    0xfde(%rip),%rdi        # 6da8 <_IO_stdin_used+0xab8>
    5dca:	b8 00 00 00 00       	mov    $0x0,%eax
    5dcf:	e8 1c b9 ff ff       	callq  16f0 <printf@plt>
    5dd4:	48 8b 05 85 34 20 00 	mov    0x203485(%rip),%rax        # 209260 <stdout@@GLIBC_2.2.5>
    5ddb:	48 89 c7             	mov    %rax,%rdi
    5dde:	e8 4d ba ff ff       	callq  1830 <fflush@plt>
    5de3:	b8 01 00 00 00       	mov    $0x1,%eax
    5de8:	48 8b 4d f8          	mov    -0x8(%rbp),%rcx
    5dec:	64 48 33 0c 25 28 00 	xor    %fs:0x28,%rcx
    5df3:	00 00 
    5df5:	74 05                	je     5dfc <_ZL18server_argv_parserPcP14_server_configiPS_S2_+0x349>
    5df7:	e8 b4 b8 ff ff       	callq  16b0 <__stack_chk_fail@plt>
    5dfc:	c9                   	leaveq 
    5dfd:	c3                   	retq   

0000000000005dfe <_ZL18client_argv_parserPcP14_client_configiPS_S2_>:
    5dfe:	55                   	push   %rbp
    5dff:	48 89 e5             	mov    %rsp,%rbp
    5e02:	48 83 ec 40          	sub    $0x40,%rsp
    5e06:	48 89 7d e8          	mov    %rdi,-0x18(%rbp)
    5e0a:	48 89 75 e0          	mov    %rsi,-0x20(%rbp)
    5e0e:	89 55 dc             	mov    %edx,-0x24(%rbp)
    5e11:	48 89 4d d0          	mov    %rcx,-0x30(%rbp)
    5e15:	4c 89 45 c8          	mov    %r8,-0x38(%rbp)
    5e19:	64 48 8b 04 25 28 00 	mov    %fs:0x28,%rax
    5e20:	00 00 
    5e22:	48 89 45 f8          	mov    %rax,-0x8(%rbp)
    5e26:	31 c0                	xor    %eax,%eax
    5e28:	48 8b 45 e0          	mov    -0x20(%rbp),%rax
    5e2c:	48 c7 00 00 00 00 00 	movq   $0x0,(%rax)
    5e33:	48 8b 45 e0          	mov    -0x20(%rbp),%rax
    5e37:	66 c7 40 3a 03 d9    	movw   $0xd903,0x3a(%rax)
    5e3d:	48 8b 45 e0          	mov    -0x20(%rbp),%rax
    5e41:	c6 40 3c 00          	movb   $0x0,0x3c(%rax)
    5e45:	48 8b 45 e0          	mov    -0x20(%rbp),%rax
    5e49:	48 c7 40 10 00 00 00 	movq   $0x0,0x10(%rax)
    5e50:	00 
    5e51:	48 8b 45 e0          	mov    -0x20(%rbp),%rax
    5e55:	48 c7 40 08 00 00 00 	movq   $0x0,0x8(%rax)
    5e5c:	00 
    5e5d:	48 8b 45 e0          	mov    -0x20(%rbp),%rax
    5e61:	66 c7 40 20 dc 05    	movw   $0x5dc,0x20(%rax)
    5e67:	48 8b 45 e0          	mov    -0x20(%rbp),%rax
    5e6b:	48 8d 15 ae 33 20 00 	lea    0x2033ae(%rip),%rdx        # 209220 <_ZL16default_dev_name>
    5e72:	48 89 50 18          	mov    %rdx,0x18(%rax)
    5e76:	c7 45 f0 00 00 00 00 	movl   $0x0,-0x10(%rbp)
    5e7d:	48 8d 55 f0          	lea    -0x10(%rbp),%rdx
    5e81:	48 8b 75 d0          	mov    -0x30(%rbp),%rsi
    5e85:	8b 45 dc             	mov    -0x24(%rbp),%eax
    5e88:	49 89 d0             	mov    %rdx,%r8
    5e8b:	48 8d 0d 4e 2c 20 00 	lea    0x202c4e(%rip),%rcx        # 208ae0 <_ZL14server_options>
    5e92:	48 8d 15 73 0f 00 00 	lea    0xf73(%rip),%rdx        # 6e0c <_IO_stdin_used+0xb1c>
    5e99:	89 c7                	mov    %eax,%edi
    5e9b:	e8 20 b8 ff ff       	callq  16c0 <getopt_long@plt>
    5ea0:	89 45 f4             	mov    %eax,-0xc(%rbp)
    5ea3:	83 7d f4 ff          	cmpl   $0xffffffff,-0xc(%rbp)
    5ea7:	0f 84 c2 01 00 00    	je     606f <_ZL18client_argv_parserPcP14_client_configiPS_S2_+0x271>
    5ead:	83 7d f4 76          	cmpl   $0x76,-0xc(%rbp)
    5eb1:	0f 8f 89 01 00 00    	jg     6040 <_ZL18client_argv_parserPcP14_client_configiPS_S2_+0x242>
    5eb7:	83 7d f4 50          	cmpl   $0x50,-0xc(%rbp)
    5ebb:	7d 41                	jge    5efe <_ZL18client_argv_parserPcP14_client_configiPS_S2_+0x100>
    5ebd:	83 7d f4 0a          	cmpl   $0xa,-0xc(%rbp)
    5ec1:	0f 84 6b 01 00 00    	je     6032 <_ZL18client_argv_parserPcP14_client_configiPS_S2_+0x234>
    5ec7:	83 7d f4 0a          	cmpl   $0xa,-0xc(%rbp)
    5ecb:	0f 8f 6f 01 00 00    	jg     6040 <_ZL18client_argv_parserPcP14_client_configiPS_S2_+0x242>
    5ed1:	83 7d f4 03          	cmpl   $0x3,-0xc(%rbp)
    5ed5:	0f 84 46 01 00 00    	je     6021 <_ZL18client_argv_parserPcP14_client_configiPS_S2_+0x223>
    5edb:	83 7d f4 03          	cmpl   $0x3,-0xc(%rbp)
    5edf:	0f 8f 5b 01 00 00    	jg     6040 <_ZL18client_argv_parserPcP14_client_configiPS_S2_+0x242>
    5ee5:	83 7d f4 01          	cmpl   $0x1,-0xc(%rbp)
    5ee9:	0f 84 07 01 00 00    	je     5ff6 <_ZL18client_argv_parserPcP14_client_configiPS_S2_+0x1f8>
    5eef:	83 7d f4 02          	cmpl   $0x2,-0xc(%rbp)
    5ef3:	0f 84 0e 01 00 00    	je     6007 <_ZL18client_argv_parserPcP14_client_configiPS_S2_+0x209>
    5ef9:	e9 42 01 00 00       	jmpq   6040 <_ZL18client_argv_parserPcP14_client_configiPS_S2_+0x242>
    5efe:	8b 45 f4             	mov    -0xc(%rbp),%eax
    5f01:	83 e8 50             	sub    $0x50,%eax
    5f04:	83 f8 26             	cmp    $0x26,%eax
    5f07:	0f 87 33 01 00 00    	ja     6040 <_ZL18client_argv_parserPcP14_client_configiPS_S2_+0x242>
    5f0d:	89 c0                	mov    %eax,%eax
    5f0f:	48 8d 14 85 00 00 00 	lea    0x0(,%rax,4),%rdx
    5f16:	00 
    5f17:	48 8d 05 f6 0e 00 00 	lea    0xef6(%rip),%rax        # 6e14 <_IO_stdin_used+0xb24>
    5f1e:	8b 04 02             	mov    (%rdx,%rax,1),%eax
    5f21:	48 98                	cltq   
    5f23:	48 8d 15 ea 0e 00 00 	lea    0xeea(%rip),%rdx        # 6e14 <_IO_stdin_used+0xb24>
    5f2a:	48 01 d0             	add    %rdx,%rax
    5f2d:	ff e0                	jmpq   *%rax
    5f2f:	48 8b 15 32 33 20 00 	mov    0x203332(%rip),%rdx        # 209268 <optarg@@GLIBC_2.2.5>
    5f36:	48 8b 45 e0          	mov    -0x20(%rbp),%rax
    5f3a:	48 89 10             	mov    %rdx,(%rax)
    5f3d:	e9 28 01 00 00       	jmpq   606a <_ZL18client_argv_parserPcP14_client_configiPS_S2_+0x26c>
    5f42:	48 8b 05 1f 33 20 00 	mov    0x20331f(%rip),%rax        # 209268 <optarg@@GLIBC_2.2.5>
    5f49:	48 89 c7             	mov    %rax,%rdi
    5f4c:	e8 7f b9 ff ff       	callq  18d0 <atoi@plt>
    5f51:	89 c2                	mov    %eax,%edx
    5f53:	48 8b 45 e0          	mov    -0x20(%rbp),%rax
    5f57:	66 89 50 3a          	mov    %dx,0x3a(%rax)
    5f5b:	e9 0a 01 00 00       	jmpq   606a <_ZL18client_argv_parserPcP14_client_configiPS_S2_+0x26c>
    5f60:	48 8b 45 e0          	mov    -0x20(%rbp),%rax
    5f64:	0f b6 40 3c          	movzbl 0x3c(%rax),%eax
    5f68:	8d 50 01             	lea    0x1(%rax),%edx
    5f6b:	48 8b 45 e0          	mov    -0x20(%rbp),%rax
    5f6f:	88 50 3c             	mov    %dl,0x3c(%rax)
    5f72:	e9 f3 00 00 00       	jmpq   606a <_ZL18client_argv_parserPcP14_client_configiPS_S2_+0x26c>
    5f77:	48 8b 15 ea 32 20 00 	mov    0x2032ea(%rip),%rdx        # 209268 <optarg@@GLIBC_2.2.5>
    5f7e:	48 8b 45 e0          	mov    -0x20(%rbp),%rax
    5f82:	48 89 50 08          	mov    %rdx,0x8(%rax)
    5f86:	e9 df 00 00 00       	jmpq   606a <_ZL18client_argv_parserPcP14_client_configiPS_S2_+0x26c>
    5f8b:	48 8b 15 d6 32 20 00 	mov    0x2032d6(%rip),%rdx        # 209268 <optarg@@GLIBC_2.2.5>
    5f92:	48 8b 45 e0          	mov    -0x20(%rbp),%rax
    5f96:	48 89 50 28          	mov    %rdx,0x28(%rax)
    5f9a:	48 8b 05 c7 32 20 00 	mov    0x2032c7(%rip),%rax        # 209268 <optarg@@GLIBC_2.2.5>
    5fa1:	48 89 c7             	mov    %rax,%rdi
    5fa4:	e8 f7 b6 ff ff       	callq  16a0 <strlen@plt>
    5fa9:	89 c2                	mov    %eax,%edx
    5fab:	48 8b 45 e0          	mov    -0x20(%rbp),%rax
    5faf:	88 50 38             	mov    %dl,0x38(%rax)
    5fb2:	e9 b3 00 00 00       	jmpq   606a <_ZL18client_argv_parserPcP14_client_configiPS_S2_+0x26c>
    5fb7:	48 8b 05 aa 32 20 00 	mov    0x2032aa(%rip),%rax        # 209268 <optarg@@GLIBC_2.2.5>
    5fbe:	48 89 c6             	mov    %rax,%rsi
    5fc1:	48 8d 3d 18 33 20 00 	lea    0x203318(%rip),%rdi        # 2092e0 <_ZZL18client_argv_parserPcP14_client_configiPS_S2_E9_password>
    5fc8:	e8 33 b6 ff ff       	callq  1600 <strcpy@plt>
    5fcd:	48 8b 45 e0          	mov    -0x20(%rbp),%rax
    5fd1:	48 8d 15 08 33 20 00 	lea    0x203308(%rip),%rdx        # 2092e0 <_ZZL18client_argv_parserPcP14_client_configiPS_S2_E9_password>
    5fd8:	48 89 50 30          	mov    %rdx,0x30(%rax)
    5fdc:	48 8b 05 85 32 20 00 	mov    0x203285(%rip),%rax        # 209268 <optarg@@GLIBC_2.2.5>
    5fe3:	48 89 c7             	mov    %rax,%rdi
    5fe6:	e8 b5 b6 ff ff       	callq  16a0 <strlen@plt>
    5feb:	89 c2                	mov    %eax,%edx
    5fed:	48 8b 45 e0          	mov    -0x20(%rbp),%rax
    5ff1:	88 50 39             	mov    %dl,0x39(%rax)
    5ff4:	eb 74                	jmp    606a <_ZL18client_argv_parserPcP14_client_configiPS_S2_+0x26c>
    5ff6:	48 8b 15 6b 32 20 00 	mov    0x20326b(%rip),%rdx        # 209268 <optarg@@GLIBC_2.2.5>
    5ffd:	48 8b 45 e0          	mov    -0x20(%rbp),%rax
    6001:	48 89 50 10          	mov    %rdx,0x10(%rax)
    6005:	eb 63                	jmp    606a <_ZL18client_argv_parserPcP14_client_configiPS_S2_+0x26c>
    6007:	48 8b 05 5a 32 20 00 	mov    0x20325a(%rip),%rax        # 209268 <optarg@@GLIBC_2.2.5>
    600e:	48 89 c7             	mov    %rax,%rdi
    6011:	e8 ba b8 ff ff       	callq  18d0 <atoi@plt>
    6016:	89 c2                	mov    %eax,%edx
    6018:	48 8b 45 e0          	mov    -0x20(%rbp),%rax
    601c:	88 50 3c             	mov    %dl,0x3c(%rax)
    601f:	eb 49                	jmp    606a <_ZL18client_argv_parserPcP14_client_configiPS_S2_+0x26c>
    6021:	48 8b 15 40 32 20 00 	mov    0x203240(%rip),%rdx        # 209268 <optarg@@GLIBC_2.2.5>
    6028:	48 8b 45 e0          	mov    -0x20(%rbp),%rax
    602c:	48 89 50 18          	mov    %rdx,0x18(%rax)
    6030:	eb 38                	jmp    606a <_ZL18client_argv_parserPcP14_client_configiPS_S2_+0x26c>
    6032:	48 8b 45 e8          	mov    -0x18(%rbp),%rax
    6036:	48 89 c7             	mov    %rax,%rdi
    6039:	e8 cd 01 00 00       	callq  620b <_ZL16show_help_clientPc>
    603e:	eb 2a                	jmp    606a <_ZL18client_argv_parserPcP14_client_configiPS_S2_+0x26c>
    6040:	48 8b 05 39 32 20 00 	mov    0x203239(%rip),%rax        # 209280 <stderr@@GLIBC_2.2.5>
    6047:	48 89 c1             	mov    %rax,%rcx
    604a:	ba 31 00 00 00       	mov    $0x31,%edx
    604f:	be 01 00 00 00       	mov    $0x1,%esi
    6054:	48 8d 3d bd 0c 00 00 	lea    0xcbd(%rip),%rdi        # 6d18 <_IO_stdin_used+0xa28>
    605b:	e8 b0 b8 ff ff       	callq  1910 <fwrite@plt>
    6060:	b8 00 00 00 00       	mov    $0x0,%eax
    6065:	e9 b3 00 00 00       	jmpq   611d <_ZL18client_argv_parserPcP14_client_configiPS_S2_+0x31f>
    606a:	e9 07 fe ff ff       	jmpq   5e76 <_ZL18client_argv_parserPcP14_client_configiPS_S2_+0x78>
    606f:	90                   	nop
    6070:	48 8d 3d d3 0c 00 00 	lea    0xcd3(%rip),%rdi        # 6d4a <_IO_stdin_used+0xa5a>
    6077:	e8 a4 b5 ff ff       	callq  1620 <puts@plt>
    607c:	48 8b 45 e0          	mov    -0x20(%rbp),%rax
    6080:	48 8b 00             	mov    (%rax),%rax
    6083:	48 89 c6             	mov    %rax,%rsi
    6086:	48 8d 3d ce 0c 00 00 	lea    0xcce(%rip),%rdi        # 6d5b <_IO_stdin_used+0xa6b>
    608d:	b8 00 00 00 00       	mov    $0x0,%eax
    6092:	e8 59 b6 ff ff       	callq  16f0 <printf@plt>
    6097:	48 8b 45 e0          	mov    -0x20(%rbp),%rax
    609b:	0f b7 40 3a          	movzwl 0x3a(%rax),%eax
    609f:	0f b7 c0             	movzwl %ax,%eax
    60a2:	89 c6                	mov    %eax,%esi
    60a4:	48 8d 3d bf 0c 00 00 	lea    0xcbf(%rip),%rdi        # 6d6a <_IO_stdin_used+0xa7a>
    60ab:	b8 00 00 00 00       	mov    $0x0,%eax
    60b0:	e8 3b b6 ff ff       	callq  16f0 <printf@plt>
    60b5:	48 8b 45 e0          	mov    -0x20(%rbp),%rax
    60b9:	48 8b 40 10          	mov    0x10(%rax),%rax
    60bd:	48 89 c6             	mov    %rax,%rsi
    60c0:	48 8d 3d bf 0c 00 00 	lea    0xcbf(%rip),%rdi        # 6d86 <_IO_stdin_used+0xa96>
    60c7:	b8 00 00 00 00       	mov    $0x0,%eax
    60cc:	e8 1f b6 ff ff       	callq  16f0 <printf@plt>
    60d1:	48 8b 45 e0          	mov    -0x20(%rbp),%rax
    60d5:	48 8b 40 18          	mov    0x18(%rax),%rax
    60d9:	48 89 c6             	mov    %rax,%rsi
    60dc:	48 8d 3d b7 0c 00 00 	lea    0xcb7(%rip),%rdi        # 6d9a <_IO_stdin_used+0xaaa>
    60e3:	b8 00 00 00 00       	mov    $0x0,%eax
    60e8:	e8 03 b6 ff ff       	callq  16f0 <printf@plt>
    60ed:	48 8b 45 e0          	mov    -0x20(%rbp),%rax
    60f1:	48 8b 40 08          	mov    0x8(%rax),%rax
    60f5:	48 89 c6             	mov    %rax,%rsi
    60f8:	48 8d 3d a9 0c 00 00 	lea    0xca9(%rip),%rdi        # 6da8 <_IO_stdin_used+0xab8>
    60ff:	b8 00 00 00 00       	mov    $0x0,%eax
    6104:	e8 e7 b5 ff ff       	callq  16f0 <printf@plt>
    6109:	48 8b 05 50 31 20 00 	mov    0x203150(%rip),%rax        # 209260 <stdout@@GLIBC_2.2.5>
    6110:	48 89 c7             	mov    %rax,%rdi
    6113:	e8 18 b7 ff ff       	callq  1830 <fflush@plt>
    6118:	b8 01 00 00 00       	mov    $0x1,%eax
    611d:	48 8b 4d f8          	mov    -0x8(%rbp),%rcx
    6121:	64 48 33 0c 25 28 00 	xor    %fs:0x28,%rcx
    6128:	00 00 
    612a:	74 05                	je     6131 <_ZL18client_argv_parserPcP14_client_configiPS_S2_+0x333>
    612c:	e8 7f b5 ff ff       	callq  16b0 <__stack_chk_fail@plt>
    6131:	c9                   	leaveq 
    6132:	c3                   	retq   

0000000000006133 <_ZL17show_help_commandPc>:
    6133:	55                   	push   %rbp
    6134:	48 89 e5             	mov    %rsp,%rbp
    6137:	48 83 ec 10          	sub    $0x10,%rsp
    613b:	48 89 7d f8          	mov    %rdi,-0x8(%rbp)
    613f:	48 8b 45 f8          	mov    -0x8(%rbp),%rax
    6143:	48 89 c6             	mov    %rax,%rsi
    6146:	48 8d 3d 63 0d 00 00 	lea    0xd63(%rip),%rdi        # 6eb0 <_IO_stdin_used+0xbc0>
    614d:	b8 00 00 00 00       	mov    $0x0,%eax
    6152:	e8 99 b5 ff ff       	callq  16f0 <printf@plt>
    6157:	48 8d 3d 72 0d 00 00 	lea    0xd72(%rip),%rdi        # 6ed0 <_IO_stdin_used+0xbe0>
    615e:	e8 bd b4 ff ff       	callq  1620 <puts@plt>
    6163:	48 8d 3d 7a 0d 00 00 	lea    0xd7a(%rip),%rdi        # 6ee4 <_IO_stdin_used+0xbf4>
    616a:	e8 b1 b4 ff ff       	callq  1620 <puts@plt>
    616f:	48 8d 3d 92 0d 00 00 	lea    0xd92(%rip),%rdi        # 6f08 <_IO_stdin_used+0xc18>
    6176:	e8 a5 b4 ff ff       	callq  1620 <puts@plt>
    617b:	48 8b 45 f8          	mov    -0x8(%rbp),%rax
    617f:	48 89 c6             	mov    %rax,%rsi
    6182:	48 8d 3d a7 0d 00 00 	lea    0xda7(%rip),%rdi        # 6f30 <_IO_stdin_used+0xc40>
    6189:	b8 00 00 00 00       	mov    $0x0,%eax
    618e:	e8 5d b5 ff ff       	callq  16f0 <printf@plt>
    6193:	48 8b 05 c6 30 20 00 	mov    0x2030c6(%rip),%rax        # 209260 <stdout@@GLIBC_2.2.5>
    619a:	48 89 c7             	mov    %rax,%rdi
    619d:	e8 8e b6 ff ff       	callq  1830 <fflush@plt>
    61a2:	90                   	nop
    61a3:	c9                   	leaveq 
    61a4:	c3                   	retq   

00000000000061a5 <_ZL16show_help_serverPc>:
    61a5:	55                   	push   %rbp
    61a6:	48 89 e5             	mov    %rsp,%rbp
    61a9:	48 83 ec 10          	sub    $0x10,%rsp
    61ad:	48 89 7d f8          	mov    %rdi,-0x8(%rbp)
    61b1:	48 8b 45 f8          	mov    -0x8(%rbp),%rax
    61b5:	48 89 c6             	mov    %rax,%rsi
    61b8:	48 8d 3d 9d 0d 00 00 	lea    0xd9d(%rip),%rdi        # 6f5c <_IO_stdin_used+0xc6c>
    61bf:	b8 00 00 00 00       	mov    $0x0,%eax
    61c4:	e8 27 b5 ff ff       	callq  16f0 <printf@plt>
    61c9:	48 8d 3d a9 0d 00 00 	lea    0xda9(%rip),%rdi        # 6f79 <_IO_stdin_used+0xc89>
    61d0:	e8 4b b4 ff ff       	callq  1620 <puts@plt>
    61d5:	48 8d 3d b4 0d 00 00 	lea    0xdb4(%rip),%rdi        # 6f90 <_IO_stdin_used+0xca0>
    61dc:	e8 3f b4 ff ff       	callq  1620 <puts@plt>
    61e1:	48 8d 3d e0 0d 00 00 	lea    0xde0(%rip),%rdi        # 6fc8 <_IO_stdin_used+0xcd8>
    61e8:	e8 33 b4 ff ff       	callq  1620 <puts@plt>
    61ed:	48 8d 3d 04 0e 00 00 	lea    0xe04(%rip),%rdi        # 6ff8 <_IO_stdin_used+0xd08>
    61f4:	e8 27 b4 ff ff       	callq  1620 <puts@plt>
    61f9:	48 8b 05 60 30 20 00 	mov    0x203060(%rip),%rax        # 209260 <stdout@@GLIBC_2.2.5>
    6200:	48 89 c7             	mov    %rax,%rdi
    6203:	e8 28 b6 ff ff       	callq  1830 <fflush@plt>
    6208:	90                   	nop
    6209:	c9                   	leaveq 
    620a:	c3                   	retq   

000000000000620b <_ZL16show_help_clientPc>:
    620b:	55                   	push   %rbp
    620c:	48 89 e5             	mov    %rsp,%rbp
    620f:	48 83 ec 10          	sub    $0x10,%rsp
    6213:	48 89 7d f8          	mov    %rdi,-0x8(%rbp)
    6217:	48 8b 45 f8          	mov    -0x8(%rbp),%rax
    621b:	48 89 c6             	mov    %rax,%rsi
    621e:	48 8d 3d 03 0e 00 00 	lea    0xe03(%rip),%rdi        # 7028 <_IO_stdin_used+0xd38>
    6225:	b8 00 00 00 00       	mov    $0x0,%eax
    622a:	e8 c1 b4 ff ff       	callq  16f0 <printf@plt>
    622f:	48 8d 3d 43 0d 00 00 	lea    0xd43(%rip),%rdi        # 6f79 <_IO_stdin_used+0xc89>
    6236:	e8 e5 b3 ff ff       	callq  1620 <puts@plt>
    623b:	48 8d 3d 06 0e 00 00 	lea    0xe06(%rip),%rdi        # 7048 <_IO_stdin_used+0xd58>
    6242:	e8 d9 b3 ff ff       	callq  1620 <puts@plt>
    6247:	48 8d 3d 7a 0d 00 00 	lea    0xd7a(%rip),%rdi        # 6fc8 <_IO_stdin_used+0xcd8>
    624e:	e8 cd b3 ff ff       	callq  1620 <puts@plt>
    6253:	48 8b 05 06 30 20 00 	mov    0x203006(%rip),%rax        # 209260 <stdout@@GLIBC_2.2.5>
    625a:	48 89 c7             	mov    %rax,%rdi
    625d:	e8 ce b5 ff ff       	callq  1830 <fflush@plt>
    6262:	90                   	nop
    6263:	c9                   	leaveq 
    6264:	c3                   	retq   
    6265:	66 2e 0f 1f 84 00 00 	nopw   %cs:0x0(%rax,%rax,1)
    626c:	00 00 00 
    626f:	90                   	nop

0000000000006270 <__libc_csu_init>:
    6270:	41 57                	push   %r15
    6272:	41 56                	push   %r14
    6274:	49 89 d7             	mov    %rdx,%r15
    6277:	41 55                	push   %r13
    6279:	41 54                	push   %r12
    627b:	4c 8d 25 4e 28 20 00 	lea    0x20284e(%rip),%r12        # 208ad0 <__frame_dummy_init_array_entry>
    6282:	55                   	push   %rbp
    6283:	48 8d 2d 4e 28 20 00 	lea    0x20284e(%rip),%rbp        # 208ad8 <__init_array_end>
    628a:	53                   	push   %rbx
    628b:	41 89 fd             	mov    %edi,%r13d
    628e:	49 89 f6             	mov    %rsi,%r14
    6291:	4c 29 e5             	sub    %r12,%rbp
    6294:	48 83 ec 08          	sub    $0x8,%rsp
    6298:	48 c1 fd 03          	sar    $0x3,%rbp
    629c:	e8 e7 b2 ff ff       	callq  1588 <_init>
    62a1:	48 85 ed             	test   %rbp,%rbp
    62a4:	74 20                	je     62c6 <__libc_csu_init+0x56>
    62a6:	31 db                	xor    %ebx,%ebx
    62a8:	0f 1f 84 00 00 00 00 	nopl   0x0(%rax,%rax,1)
    62af:	00 
    62b0:	4c 89 fa             	mov    %r15,%rdx
    62b3:	4c 89 f6             	mov    %r14,%rsi
    62b6:	44 89 ef             	mov    %r13d,%edi
    62b9:	41 ff 14 dc          	callq  *(%r12,%rbx,8)
    62bd:	48 83 c3 01          	add    $0x1,%rbx
    62c1:	48 39 dd             	cmp    %rbx,%rbp
    62c4:	75 ea                	jne    62b0 <__libc_csu_init+0x40>
    62c6:	48 83 c4 08          	add    $0x8,%rsp
    62ca:	5b                   	pop    %rbx
    62cb:	5d                   	pop    %rbp
    62cc:	41 5c                	pop    %r12
    62ce:	41 5d                	pop    %r13
    62d0:	41 5e                	pop    %r14
    62d2:	41 5f                	pop    %r15
    62d4:	c3                   	retq   
    62d5:	90                   	nop
    62d6:	66 2e 0f 1f 84 00 00 	nopw   %cs:0x0(%rax,%rax,1)
    62dd:	00 00 00 

00000000000062e0 <__libc_csu_fini>:
    62e0:	f3 c3                	repz retq 

Disassembly of section .fini:

00000000000062e4 <_fini>:
    62e4:	48 83 ec 08          	sub    $0x8,%rsp
    62e8:	48 83 c4 08          	add    $0x8,%rsp
    62ec:	c3                   	retq   
