
teavpn:     file format elf64-x86-64


Disassembly of section .init:

0000000000402000 <_init>:
  402000:	f3 0f 1e fa          	endbr64 
  402004:	48 83 ec 08          	sub    $0x8,%rsp
  402008:	48 8b 05 d9 8f 00 00 	mov    0x8fd9(%rip),%rax        # 40afe8 <__gmon_start__>
  40200f:	48 85 c0             	test   %rax,%rax
  402012:	74 02                	je     402016 <_init+0x16>
  402014:	ff d0                	callq  *%rax
  402016:	48 83 c4 08          	add    $0x8,%rsp
  40201a:	c3                   	retq   

Disassembly of section .plt:

0000000000402020 <.plt>:
  402020:	ff 35 e2 8f 00 00    	pushq  0x8fe2(%rip)        # 40b008 <_GLOBAL_OFFSET_TABLE_+0x8>
  402026:	f2 ff 25 e3 8f 00 00 	bnd jmpq *0x8fe3(%rip)        # 40b010 <_GLOBAL_OFFSET_TABLE_+0x10>
  40202d:	0f 1f 00             	nopl   (%rax)
  402030:	f3 0f 1e fa          	endbr64 
  402034:	68 00 00 00 00       	pushq  $0x0
  402039:	f2 e9 e1 ff ff ff    	bnd jmpq 402020 <.plt>
  40203f:	90                   	nop
  402040:	f3 0f 1e fa          	endbr64 
  402044:	68 01 00 00 00       	pushq  $0x1
  402049:	f2 e9 d1 ff ff ff    	bnd jmpq 402020 <.plt>
  40204f:	90                   	nop
  402050:	f3 0f 1e fa          	endbr64 
  402054:	68 02 00 00 00       	pushq  $0x2
  402059:	f2 e9 c1 ff ff ff    	bnd jmpq 402020 <.plt>
  40205f:	90                   	nop
  402060:	f3 0f 1e fa          	endbr64 
  402064:	68 03 00 00 00       	pushq  $0x3
  402069:	f2 e9 b1 ff ff ff    	bnd jmpq 402020 <.plt>
  40206f:	90                   	nop
  402070:	f3 0f 1e fa          	endbr64 
  402074:	68 04 00 00 00       	pushq  $0x4
  402079:	f2 e9 a1 ff ff ff    	bnd jmpq 402020 <.plt>
  40207f:	90                   	nop
  402080:	f3 0f 1e fa          	endbr64 
  402084:	68 05 00 00 00       	pushq  $0x5
  402089:	f2 e9 91 ff ff ff    	bnd jmpq 402020 <.plt>
  40208f:	90                   	nop
  402090:	f3 0f 1e fa          	endbr64 
  402094:	68 06 00 00 00       	pushq  $0x6
  402099:	f2 e9 81 ff ff ff    	bnd jmpq 402020 <.plt>
  40209f:	90                   	nop
  4020a0:	f3 0f 1e fa          	endbr64 
  4020a4:	68 07 00 00 00       	pushq  $0x7
  4020a9:	f2 e9 71 ff ff ff    	bnd jmpq 402020 <.plt>
  4020af:	90                   	nop
  4020b0:	f3 0f 1e fa          	endbr64 
  4020b4:	68 08 00 00 00       	pushq  $0x8
  4020b9:	f2 e9 61 ff ff ff    	bnd jmpq 402020 <.plt>
  4020bf:	90                   	nop
  4020c0:	f3 0f 1e fa          	endbr64 
  4020c4:	68 09 00 00 00       	pushq  $0x9
  4020c9:	f2 e9 51 ff ff ff    	bnd jmpq 402020 <.plt>
  4020cf:	90                   	nop
  4020d0:	f3 0f 1e fa          	endbr64 
  4020d4:	68 0a 00 00 00       	pushq  $0xa
  4020d9:	f2 e9 41 ff ff ff    	bnd jmpq 402020 <.plt>
  4020df:	90                   	nop
  4020e0:	f3 0f 1e fa          	endbr64 
  4020e4:	68 0b 00 00 00       	pushq  $0xb
  4020e9:	f2 e9 31 ff ff ff    	bnd jmpq 402020 <.plt>
  4020ef:	90                   	nop
  4020f0:	f3 0f 1e fa          	endbr64 
  4020f4:	68 0c 00 00 00       	pushq  $0xc
  4020f9:	f2 e9 21 ff ff ff    	bnd jmpq 402020 <.plt>
  4020ff:	90                   	nop
  402100:	f3 0f 1e fa          	endbr64 
  402104:	68 0d 00 00 00       	pushq  $0xd
  402109:	f2 e9 11 ff ff ff    	bnd jmpq 402020 <.plt>
  40210f:	90                   	nop
  402110:	f3 0f 1e fa          	endbr64 
  402114:	68 0e 00 00 00       	pushq  $0xe
  402119:	f2 e9 01 ff ff ff    	bnd jmpq 402020 <.plt>
  40211f:	90                   	nop
  402120:	f3 0f 1e fa          	endbr64 
  402124:	68 0f 00 00 00       	pushq  $0xf
  402129:	f2 e9 f1 fe ff ff    	bnd jmpq 402020 <.plt>
  40212f:	90                   	nop
  402130:	f3 0f 1e fa          	endbr64 
  402134:	68 10 00 00 00       	pushq  $0x10
  402139:	f2 e9 e1 fe ff ff    	bnd jmpq 402020 <.plt>
  40213f:	90                   	nop
  402140:	f3 0f 1e fa          	endbr64 
  402144:	68 11 00 00 00       	pushq  $0x11
  402149:	f2 e9 d1 fe ff ff    	bnd jmpq 402020 <.plt>
  40214f:	90                   	nop
  402150:	f3 0f 1e fa          	endbr64 
  402154:	68 12 00 00 00       	pushq  $0x12
  402159:	f2 e9 c1 fe ff ff    	bnd jmpq 402020 <.plt>
  40215f:	90                   	nop
  402160:	f3 0f 1e fa          	endbr64 
  402164:	68 13 00 00 00       	pushq  $0x13
  402169:	f2 e9 b1 fe ff ff    	bnd jmpq 402020 <.plt>
  40216f:	90                   	nop
  402170:	f3 0f 1e fa          	endbr64 
  402174:	68 14 00 00 00       	pushq  $0x14
  402179:	f2 e9 a1 fe ff ff    	bnd jmpq 402020 <.plt>
  40217f:	90                   	nop
  402180:	f3 0f 1e fa          	endbr64 
  402184:	68 15 00 00 00       	pushq  $0x15
  402189:	f2 e9 91 fe ff ff    	bnd jmpq 402020 <.plt>
  40218f:	90                   	nop
  402190:	f3 0f 1e fa          	endbr64 
  402194:	68 16 00 00 00       	pushq  $0x16
  402199:	f2 e9 81 fe ff ff    	bnd jmpq 402020 <.plt>
  40219f:	90                   	nop
  4021a0:	f3 0f 1e fa          	endbr64 
  4021a4:	68 17 00 00 00       	pushq  $0x17
  4021a9:	f2 e9 71 fe ff ff    	bnd jmpq 402020 <.plt>
  4021af:	90                   	nop
  4021b0:	f3 0f 1e fa          	endbr64 
  4021b4:	68 18 00 00 00       	pushq  $0x18
  4021b9:	f2 e9 61 fe ff ff    	bnd jmpq 402020 <.plt>
  4021bf:	90                   	nop
  4021c0:	f3 0f 1e fa          	endbr64 
  4021c4:	68 19 00 00 00       	pushq  $0x19
  4021c9:	f2 e9 51 fe ff ff    	bnd jmpq 402020 <.plt>
  4021cf:	90                   	nop
  4021d0:	f3 0f 1e fa          	endbr64 
  4021d4:	68 1a 00 00 00       	pushq  $0x1a
  4021d9:	f2 e9 41 fe ff ff    	bnd jmpq 402020 <.plt>
  4021df:	90                   	nop
  4021e0:	f3 0f 1e fa          	endbr64 
  4021e4:	68 1b 00 00 00       	pushq  $0x1b
  4021e9:	f2 e9 31 fe ff ff    	bnd jmpq 402020 <.plt>
  4021ef:	90                   	nop
  4021f0:	f3 0f 1e fa          	endbr64 
  4021f4:	68 1c 00 00 00       	pushq  $0x1c
  4021f9:	f2 e9 21 fe ff ff    	bnd jmpq 402020 <.plt>
  4021ff:	90                   	nop
  402200:	f3 0f 1e fa          	endbr64 
  402204:	68 1d 00 00 00       	pushq  $0x1d
  402209:	f2 e9 11 fe ff ff    	bnd jmpq 402020 <.plt>
  40220f:	90                   	nop
  402210:	f3 0f 1e fa          	endbr64 
  402214:	68 1e 00 00 00       	pushq  $0x1e
  402219:	f2 e9 01 fe ff ff    	bnd jmpq 402020 <.plt>
  40221f:	90                   	nop
  402220:	f3 0f 1e fa          	endbr64 
  402224:	68 1f 00 00 00       	pushq  $0x1f
  402229:	f2 e9 f1 fd ff ff    	bnd jmpq 402020 <.plt>
  40222f:	90                   	nop
  402230:	f3 0f 1e fa          	endbr64 
  402234:	68 20 00 00 00       	pushq  $0x20
  402239:	f2 e9 e1 fd ff ff    	bnd jmpq 402020 <.plt>
  40223f:	90                   	nop
  402240:	f3 0f 1e fa          	endbr64 
  402244:	68 21 00 00 00       	pushq  $0x21
  402249:	f2 e9 d1 fd ff ff    	bnd jmpq 402020 <.plt>
  40224f:	90                   	nop
  402250:	f3 0f 1e fa          	endbr64 
  402254:	68 22 00 00 00       	pushq  $0x22
  402259:	f2 e9 c1 fd ff ff    	bnd jmpq 402020 <.plt>
  40225f:	90                   	nop
  402260:	f3 0f 1e fa          	endbr64 
  402264:	68 23 00 00 00       	pushq  $0x23
  402269:	f2 e9 b1 fd ff ff    	bnd jmpq 402020 <.plt>
  40226f:	90                   	nop
  402270:	f3 0f 1e fa          	endbr64 
  402274:	68 24 00 00 00       	pushq  $0x24
  402279:	f2 e9 a1 fd ff ff    	bnd jmpq 402020 <.plt>
  40227f:	90                   	nop
  402280:	f3 0f 1e fa          	endbr64 
  402284:	68 25 00 00 00       	pushq  $0x25
  402289:	f2 e9 91 fd ff ff    	bnd jmpq 402020 <.plt>
  40228f:	90                   	nop
  402290:	f3 0f 1e fa          	endbr64 
  402294:	68 26 00 00 00       	pushq  $0x26
  402299:	f2 e9 81 fd ff ff    	bnd jmpq 402020 <.plt>
  40229f:	90                   	nop
  4022a0:	f3 0f 1e fa          	endbr64 
  4022a4:	68 27 00 00 00       	pushq  $0x27
  4022a9:	f2 e9 71 fd ff ff    	bnd jmpq 402020 <.plt>
  4022af:	90                   	nop
  4022b0:	f3 0f 1e fa          	endbr64 
  4022b4:	68 28 00 00 00       	pushq  $0x28
  4022b9:	f2 e9 61 fd ff ff    	bnd jmpq 402020 <.plt>
  4022bf:	90                   	nop
  4022c0:	f3 0f 1e fa          	endbr64 
  4022c4:	68 29 00 00 00       	pushq  $0x29
  4022c9:	f2 e9 51 fd ff ff    	bnd jmpq 402020 <.plt>
  4022cf:	90                   	nop
  4022d0:	f3 0f 1e fa          	endbr64 
  4022d4:	68 2a 00 00 00       	pushq  $0x2a
  4022d9:	f2 e9 41 fd ff ff    	bnd jmpq 402020 <.plt>
  4022df:	90                   	nop
  4022e0:	f3 0f 1e fa          	endbr64 
  4022e4:	68 2b 00 00 00       	pushq  $0x2b
  4022e9:	f2 e9 31 fd ff ff    	bnd jmpq 402020 <.plt>
  4022ef:	90                   	nop
  4022f0:	f3 0f 1e fa          	endbr64 
  4022f4:	68 2c 00 00 00       	pushq  $0x2c
  4022f9:	f2 e9 21 fd ff ff    	bnd jmpq 402020 <.plt>
  4022ff:	90                   	nop
  402300:	f3 0f 1e fa          	endbr64 
  402304:	68 2d 00 00 00       	pushq  $0x2d
  402309:	f2 e9 11 fd ff ff    	bnd jmpq 402020 <.plt>
  40230f:	90                   	nop
  402310:	f3 0f 1e fa          	endbr64 
  402314:	68 2e 00 00 00       	pushq  $0x2e
  402319:	f2 e9 01 fd ff ff    	bnd jmpq 402020 <.plt>
  40231f:	90                   	nop
  402320:	f3 0f 1e fa          	endbr64 
  402324:	68 2f 00 00 00       	pushq  $0x2f
  402329:	f2 e9 f1 fc ff ff    	bnd jmpq 402020 <.plt>
  40232f:	90                   	nop
  402330:	f3 0f 1e fa          	endbr64 
  402334:	68 30 00 00 00       	pushq  $0x30
  402339:	f2 e9 e1 fc ff ff    	bnd jmpq 402020 <.plt>
  40233f:	90                   	nop
  402340:	f3 0f 1e fa          	endbr64 
  402344:	68 31 00 00 00       	pushq  $0x31
  402349:	f2 e9 d1 fc ff ff    	bnd jmpq 402020 <.plt>
  40234f:	90                   	nop
  402350:	f3 0f 1e fa          	endbr64 
  402354:	68 32 00 00 00       	pushq  $0x32
  402359:	f2 e9 c1 fc ff ff    	bnd jmpq 402020 <.plt>
  40235f:	90                   	nop
  402360:	f3 0f 1e fa          	endbr64 
  402364:	68 33 00 00 00       	pushq  $0x33
  402369:	f2 e9 b1 fc ff ff    	bnd jmpq 402020 <.plt>
  40236f:	90                   	nop
  402370:	f3 0f 1e fa          	endbr64 
  402374:	68 34 00 00 00       	pushq  $0x34
  402379:	f2 e9 a1 fc ff ff    	bnd jmpq 402020 <.plt>
  40237f:	90                   	nop
  402380:	f3 0f 1e fa          	endbr64 
  402384:	68 35 00 00 00       	pushq  $0x35
  402389:	f2 e9 91 fc ff ff    	bnd jmpq 402020 <.plt>
  40238f:	90                   	nop
  402390:	f3 0f 1e fa          	endbr64 
  402394:	68 36 00 00 00       	pushq  $0x36
  402399:	f2 e9 81 fc ff ff    	bnd jmpq 402020 <.plt>
  40239f:	90                   	nop
  4023a0:	f3 0f 1e fa          	endbr64 
  4023a4:	68 37 00 00 00       	pushq  $0x37
  4023a9:	f2 e9 71 fc ff ff    	bnd jmpq 402020 <.plt>
  4023af:	90                   	nop
  4023b0:	f3 0f 1e fa          	endbr64 
  4023b4:	68 38 00 00 00       	pushq  $0x38
  4023b9:	f2 e9 61 fc ff ff    	bnd jmpq 402020 <.plt>
  4023bf:	90                   	nop
  4023c0:	f3 0f 1e fa          	endbr64 
  4023c4:	68 39 00 00 00       	pushq  $0x39
  4023c9:	f2 e9 51 fc ff ff    	bnd jmpq 402020 <.plt>
  4023cf:	90                   	nop
  4023d0:	f3 0f 1e fa          	endbr64 
  4023d4:	68 3a 00 00 00       	pushq  $0x3a
  4023d9:	f2 e9 41 fc ff ff    	bnd jmpq 402020 <.plt>
  4023df:	90                   	nop
  4023e0:	f3 0f 1e fa          	endbr64 
  4023e4:	68 3b 00 00 00       	pushq  $0x3b
  4023e9:	f2 e9 31 fc ff ff    	bnd jmpq 402020 <.plt>
  4023ef:	90                   	nop
  4023f0:	f3 0f 1e fa          	endbr64 
  4023f4:	68 3c 00 00 00       	pushq  $0x3c
  4023f9:	f2 e9 21 fc ff ff    	bnd jmpq 402020 <.plt>
  4023ff:	90                   	nop
  402400:	f3 0f 1e fa          	endbr64 
  402404:	68 3d 00 00 00       	pushq  $0x3d
  402409:	f2 e9 11 fc ff ff    	bnd jmpq 402020 <.plt>
  40240f:	90                   	nop

Disassembly of section .plt.sec:

0000000000402410 <free@plt>:
  402410:	f3 0f 1e fa          	endbr64 
  402414:	f2 ff 25 fd 8b 00 00 	bnd jmpq *0x8bfd(%rip)        # 40b018 <free@GLIBC_2.2.5>
  40241b:	0f 1f 44 00 00       	nopl   0x0(%rax,%rax,1)

0000000000402420 <pthread_create@plt>:
  402420:	f3 0f 1e fa          	endbr64 
  402424:	f2 ff 25 f5 8b 00 00 	bnd jmpq *0x8bf5(%rip)        # 40b020 <pthread_create@GLIBC_2.2.5>
  40242b:	0f 1f 44 00 00       	nopl   0x0(%rax,%rax,1)

0000000000402430 <pthread_detach@plt>:
  402430:	f3 0f 1e fa          	endbr64 
  402434:	f2 ff 25 ed 8b 00 00 	bnd jmpq *0x8bed(%rip)        # 40b028 <pthread_detach@GLIBC_2.2.5>
  40243b:	0f 1f 44 00 00       	nopl   0x0(%rax,%rax,1)

0000000000402440 <localtime@plt>:
  402440:	f3 0f 1e fa          	endbr64 
  402444:	f2 ff 25 e5 8b 00 00 	bnd jmpq *0x8be5(%rip)        # 40b030 <localtime@GLIBC_2.2.5>
  40244b:	0f 1f 44 00 00       	nopl   0x0(%rax,%rax,1)

0000000000402450 <__errno_location@plt>:
  402450:	f3 0f 1e fa          	endbr64 
  402454:	f2 ff 25 dd 8b 00 00 	bnd jmpq *0x8bdd(%rip)        # 40b038 <__errno_location@GLIBC_2.2.5>
  40245b:	0f 1f 44 00 00       	nopl   0x0(%rax,%rax,1)

0000000000402460 <strncpy@plt>:
  402460:	f3 0f 1e fa          	endbr64 
  402464:	f2 ff 25 d5 8b 00 00 	bnd jmpq *0x8bd5(%rip)        # 40b040 <strncpy@GLIBC_2.2.5>
  40246b:	0f 1f 44 00 00       	nopl   0x0(%rax,%rax,1)

0000000000402470 <strcpy@plt>:
  402470:	f3 0f 1e fa          	endbr64 
  402474:	f2 ff 25 cd 8b 00 00 	bnd jmpq *0x8bcd(%rip)        # 40b048 <strcpy@GLIBC_2.2.5>
  40247b:	0f 1f 44 00 00       	nopl   0x0(%rax,%rax,1)

0000000000402480 <pthread_cond_broadcast@plt>:
  402480:	f3 0f 1e fa          	endbr64 
  402484:	f2 ff 25 c5 8b 00 00 	bnd jmpq *0x8bc5(%rip)        # 40b050 <pthread_cond_broadcast@GLIBC_2.3.2>
  40248b:	0f 1f 44 00 00       	nopl   0x0(%rax,%rax,1)

0000000000402490 <puts@plt>:
  402490:	f3 0f 1e fa          	endbr64 
  402494:	f2 ff 25 bd 8b 00 00 	bnd jmpq *0x8bbd(%rip)        # 40b058 <puts@GLIBC_2.2.5>
  40249b:	0f 1f 44 00 00       	nopl   0x0(%rax,%rax,1)

00000000004024a0 <sigaction@plt>:
  4024a0:	f3 0f 1e fa          	endbr64 
  4024a4:	f2 ff 25 b5 8b 00 00 	bnd jmpq *0x8bb5(%rip)        # 40b060 <sigaction@GLIBC_2.2.5>
  4024ab:	0f 1f 44 00 00       	nopl   0x0(%rax,%rax,1)

00000000004024b0 <setsockopt@plt>:
  4024b0:	f3 0f 1e fa          	endbr64 
  4024b4:	f2 ff 25 ad 8b 00 00 	bnd jmpq *0x8bad(%rip)        # 40b068 <setsockopt@GLIBC_2.2.5>
  4024bb:	0f 1f 44 00 00       	nopl   0x0(%rax,%rax,1)

00000000004024c0 <pthread_kill@plt>:
  4024c0:	f3 0f 1e fa          	endbr64 
  4024c4:	f2 ff 25 a5 8b 00 00 	bnd jmpq *0x8ba5(%rip)        # 40b070 <pthread_kill@GLIBC_2.2.5>
  4024cb:	0f 1f 44 00 00       	nopl   0x0(%rax,%rax,1)

00000000004024d0 <inet_ntoa@plt>:
  4024d0:	f3 0f 1e fa          	endbr64 
  4024d4:	f2 ff 25 9d 8b 00 00 	bnd jmpq *0x8b9d(%rip)        # 40b078 <inet_ntoa@GLIBC_2.2.5>
  4024db:	0f 1f 44 00 00       	nopl   0x0(%rax,%rax,1)

00000000004024e0 <pthread_cond_wait@plt>:
  4024e0:	f3 0f 1e fa          	endbr64 
  4024e4:	f2 ff 25 95 8b 00 00 	bnd jmpq *0x8b95(%rip)        # 40b080 <pthread_cond_wait@GLIBC_2.3.2>
  4024eb:	0f 1f 44 00 00       	nopl   0x0(%rax,%rax,1)

00000000004024f0 <fclose@plt>:
  4024f0:	f3 0f 1e fa          	endbr64 
  4024f4:	f2 ff 25 8d 8b 00 00 	bnd jmpq *0x8b8d(%rip)        # 40b088 <fclose@GLIBC_2.2.5>
  4024fb:	0f 1f 44 00 00       	nopl   0x0(%rax,%rax,1)

0000000000402500 <strlen@plt>:
  402500:	f3 0f 1e fa          	endbr64 
  402504:	f2 ff 25 85 8b 00 00 	bnd jmpq *0x8b85(%rip)        # 40b090 <strlen@GLIBC_2.2.5>
  40250b:	0f 1f 44 00 00       	nopl   0x0(%rax,%rax,1)

0000000000402510 <__stack_chk_fail@plt>:
  402510:	f3 0f 1e fa          	endbr64 
  402514:	f2 ff 25 7d 8b 00 00 	bnd jmpq *0x8b7d(%rip)        # 40b098 <__stack_chk_fail@GLIBC_2.4>
  40251b:	0f 1f 44 00 00       	nopl   0x0(%rax,%rax,1)

0000000000402520 <getopt_long@plt>:
  402520:	f3 0f 1e fa          	endbr64 
  402524:	f2 ff 25 75 8b 00 00 	bnd jmpq *0x8b75(%rip)        # 40b0a0 <getopt_long@GLIBC_2.2.5>
  40252b:	0f 1f 44 00 00       	nopl   0x0(%rax,%rax,1)

0000000000402530 <asctime@plt>:
  402530:	f3 0f 1e fa          	endbr64 
  402534:	f2 ff 25 6d 8b 00 00 	bnd jmpq *0x8b6d(%rip)        # 40b0a8 <asctime@GLIBC_2.2.5>
  40253b:	0f 1f 44 00 00       	nopl   0x0(%rax,%rax,1)

0000000000402540 <system@plt>:
  402540:	f3 0f 1e fa          	endbr64 
  402544:	f2 ff 25 65 8b 00 00 	bnd jmpq *0x8b65(%rip)        # 40b0b0 <system@GLIBC_2.2.5>
  40254b:	0f 1f 44 00 00       	nopl   0x0(%rax,%rax,1)

0000000000402550 <htons@plt>:
  402550:	f3 0f 1e fa          	endbr64 
  402554:	f2 ff 25 5d 8b 00 00 	bnd jmpq *0x8b5d(%rip)        # 40b0b8 <htons@GLIBC_2.2.5>
  40255b:	0f 1f 44 00 00       	nopl   0x0(%rax,%rax,1)

0000000000402560 <printf@plt>:
  402560:	f3 0f 1e fa          	endbr64 
  402564:	f2 ff 25 55 8b 00 00 	bnd jmpq *0x8b55(%rip)        # 40b0c0 <printf@GLIBC_2.2.5>
  40256b:	0f 1f 44 00 00       	nopl   0x0(%rax,%rax,1)

0000000000402570 <difftime@plt>:
  402570:	f3 0f 1e fa          	endbr64 
  402574:	f2 ff 25 4d 8b 00 00 	bnd jmpq *0x8b4d(%rip)        # 40b0c8 <difftime@GLIBC_2.2.5>
  40257b:	0f 1f 44 00 00       	nopl   0x0(%rax,%rax,1)

0000000000402580 <memset@plt>:
  402580:	f3 0f 1e fa          	endbr64 
  402584:	f2 ff 25 45 8b 00 00 	bnd jmpq *0x8b45(%rip)        # 40b0d0 <memset@GLIBC_2.2.5>
  40258b:	0f 1f 44 00 00       	nopl   0x0(%rax,%rax,1)

0000000000402590 <ioctl@plt>:
  402590:	f3 0f 1e fa          	endbr64 
  402594:	f2 ff 25 3d 8b 00 00 	bnd jmpq *0x8b3d(%rip)        # 40b0d8 <ioctl@GLIBC_2.2.5>
  40259b:	0f 1f 44 00 00       	nopl   0x0(%rax,%rax,1)

00000000004025a0 <sendto@plt>:
  4025a0:	f3 0f 1e fa          	endbr64 
  4025a4:	f2 ff 25 35 8b 00 00 	bnd jmpq *0x8b35(%rip)        # 40b0e0 <sendto@GLIBC_2.2.5>
  4025ab:	0f 1f 44 00 00       	nopl   0x0(%rax,%rax,1)

00000000004025b0 <close@plt>:
  4025b0:	f3 0f 1e fa          	endbr64 
  4025b4:	f2 ff 25 2d 8b 00 00 	bnd jmpq *0x8b2d(%rip)        # 40b0e8 <close@GLIBC_2.2.5>
  4025bb:	0f 1f 44 00 00       	nopl   0x0(%rax,%rax,1)

00000000004025c0 <pipe@plt>:
  4025c0:	f3 0f 1e fa          	endbr64 
  4025c4:	f2 ff 25 25 8b 00 00 	bnd jmpq *0x8b25(%rip)        # 40b0f0 <pipe@GLIBC_2.2.5>
  4025cb:	0f 1f 44 00 00       	nopl   0x0(%rax,%rax,1)

00000000004025d0 <fputc@plt>:
  4025d0:	f3 0f 1e fa          	endbr64 
  4025d4:	f2 ff 25 1d 8b 00 00 	bnd jmpq *0x8b1d(%rip)        # 40b0f8 <fputc@GLIBC_2.2.5>
  4025db:	0f 1f 44 00 00       	nopl   0x0(%rax,%rax,1)

00000000004025e0 <read@plt>:
  4025e0:	f3 0f 1e fa          	endbr64 
  4025e4:	f2 ff 25 15 8b 00 00 	bnd jmpq *0x8b15(%rip)        # 40b100 <read@GLIBC_2.2.5>
  4025eb:	0f 1f 44 00 00       	nopl   0x0(%rax,%rax,1)

00000000004025f0 <fgets@plt>:
  4025f0:	f3 0f 1e fa          	endbr64 
  4025f4:	f2 ff 25 0d 8b 00 00 	bnd jmpq *0x8b0d(%rip)        # 40b108 <fgets@GLIBC_2.2.5>
  4025fb:	0f 1f 44 00 00       	nopl   0x0(%rax,%rax,1)

0000000000402600 <pthread_cond_signal@plt>:
  402600:	f3 0f 1e fa          	endbr64 
  402604:	f2 ff 25 05 8b 00 00 	bnd jmpq *0x8b05(%rip)        # 40b110 <pthread_cond_signal@GLIBC_2.3.2>
  40260b:	0f 1f 44 00 00       	nopl   0x0(%rax,%rax,1)

0000000000402610 <inet_addr@plt>:
  402610:	f3 0f 1e fa          	endbr64 
  402614:	f2 ff 25 fd 8a 00 00 	bnd jmpq *0x8afd(%rip)        # 40b118 <inet_addr@GLIBC_2.2.5>
  40261b:	0f 1f 44 00 00       	nopl   0x0(%rax,%rax,1)

0000000000402620 <strcmp@plt>:
  402620:	f3 0f 1e fa          	endbr64 
  402624:	f2 ff 25 f5 8a 00 00 	bnd jmpq *0x8af5(%rip)        # 40b120 <strcmp@GLIBC_2.2.5>
  40262b:	0f 1f 44 00 00       	nopl   0x0(%rax,%rax,1)

0000000000402630 <signal@plt>:
  402630:	f3 0f 1e fa          	endbr64 
  402634:	f2 ff 25 ed 8a 00 00 	bnd jmpq *0x8aed(%rip)        # 40b128 <signal@GLIBC_2.2.5>
  40263b:	0f 1f 44 00 00       	nopl   0x0(%rax,%rax,1)

0000000000402640 <fprintf@plt>:
  402640:	f3 0f 1e fa          	endbr64 
  402644:	f2 ff 25 e5 8a 00 00 	bnd jmpq *0x8ae5(%rip)        # 40b130 <fprintf@GLIBC_2.2.5>
  40264b:	0f 1f 44 00 00       	nopl   0x0(%rax,%rax,1)

0000000000402650 <sigemptyset@plt>:
  402650:	f3 0f 1e fa          	endbr64 
  402654:	f2 ff 25 dd 8a 00 00 	bnd jmpq *0x8add(%rip)        # 40b138 <sigemptyset@GLIBC_2.2.5>
  40265b:	0f 1f 44 00 00       	nopl   0x0(%rax,%rax,1)

0000000000402660 <prctl@plt>:
  402660:	f3 0f 1e fa          	endbr64 
  402664:	f2 ff 25 d5 8a 00 00 	bnd jmpq *0x8ad5(%rip)        # 40b140 <prctl@GLIBC_2.2.5>
  40266b:	0f 1f 44 00 00       	nopl   0x0(%rax,%rax,1)

0000000000402670 <pthread_setname_np@plt>:
  402670:	f3 0f 1e fa          	endbr64 
  402674:	f2 ff 25 cd 8a 00 00 	bnd jmpq *0x8acd(%rip)        # 40b148 <pthread_setname_np@GLIBC_2.12>
  40267b:	0f 1f 44 00 00       	nopl   0x0(%rax,%rax,1)

0000000000402680 <time@plt>:
  402680:	f3 0f 1e fa          	endbr64 
  402684:	f2 ff 25 c5 8a 00 00 	bnd jmpq *0x8ac5(%rip)        # 40b150 <time@GLIBC_2.2.5>
  40268b:	0f 1f 44 00 00       	nopl   0x0(%rax,%rax,1)

0000000000402690 <select@plt>:
  402690:	f3 0f 1e fa          	endbr64 
  402694:	f2 ff 25 bd 8a 00 00 	bnd jmpq *0x8abd(%rip)        # 40b158 <select@GLIBC_2.2.5>
  40269b:	0f 1f 44 00 00       	nopl   0x0(%rax,%rax,1)

00000000004026a0 <pthread_cond_init@plt>:
  4026a0:	f3 0f 1e fa          	endbr64 
  4026a4:	f2 ff 25 b5 8a 00 00 	bnd jmpq *0x8ab5(%rip)        # 40b160 <pthread_cond_init@GLIBC_2.3.2>
  4026ab:	0f 1f 44 00 00       	nopl   0x0(%rax,%rax,1)

00000000004026b0 <pthread_mutex_unlock@plt>:
  4026b0:	f3 0f 1e fa          	endbr64 
  4026b4:	f2 ff 25 ad 8a 00 00 	bnd jmpq *0x8aad(%rip)        # 40b168 <pthread_mutex_unlock@GLIBC_2.2.5>
  4026bb:	0f 1f 44 00 00       	nopl   0x0(%rax,%rax,1)

00000000004026c0 <malloc@plt>:
  4026c0:	f3 0f 1e fa          	endbr64 
  4026c4:	f2 ff 25 a5 8a 00 00 	bnd jmpq *0x8aa5(%rip)        # 40b170 <malloc@GLIBC_2.2.5>
  4026cb:	0f 1f 44 00 00       	nopl   0x0(%rax,%rax,1)

00000000004026d0 <fflush@plt>:
  4026d0:	f3 0f 1e fa          	endbr64 
  4026d4:	f2 ff 25 9d 8a 00 00 	bnd jmpq *0x8a9d(%rip)        # 40b178 <fflush@GLIBC_2.2.5>
  4026db:	0f 1f 44 00 00       	nopl   0x0(%rax,%rax,1)

00000000004026e0 <listen@plt>:
  4026e0:	f3 0f 1e fa          	endbr64 
  4026e4:	f2 ff 25 95 8a 00 00 	bnd jmpq *0x8a95(%rip)        # 40b180 <listen@GLIBC_2.2.5>
  4026eb:	0f 1f 44 00 00       	nopl   0x0(%rax,%rax,1)

00000000004026f0 <recvfrom@plt>:
  4026f0:	f3 0f 1e fa          	endbr64 
  4026f4:	f2 ff 25 8d 8a 00 00 	bnd jmpq *0x8a8d(%rip)        # 40b188 <recvfrom@GLIBC_2.2.5>
  4026fb:	0f 1f 44 00 00       	nopl   0x0(%rax,%rax,1)

0000000000402700 <ntohs@plt>:
  402700:	f3 0f 1e fa          	endbr64 
  402704:	f2 ff 25 85 8a 00 00 	bnd jmpq *0x8a85(%rip)        # 40b190 <ntohs@GLIBC_2.2.5>
  40270b:	0f 1f 44 00 00       	nopl   0x0(%rax,%rax,1)

0000000000402710 <bind@plt>:
  402710:	f3 0f 1e fa          	endbr64 
  402714:	f2 ff 25 7d 8a 00 00 	bnd jmpq *0x8a7d(%rip)        # 40b198 <bind@GLIBC_2.2.5>
  40271b:	0f 1f 44 00 00       	nopl   0x0(%rax,%rax,1)

0000000000402720 <open@plt>:
  402720:	f3 0f 1e fa          	endbr64 
  402724:	f2 ff 25 75 8a 00 00 	bnd jmpq *0x8a75(%rip)        # 40b1a0 <open@GLIBC_2.2.5>
  40272b:	0f 1f 44 00 00       	nopl   0x0(%rax,%rax,1)

0000000000402730 <fopen@plt>:
  402730:	f3 0f 1e fa          	endbr64 
  402734:	f2 ff 25 6d 8a 00 00 	bnd jmpq *0x8a6d(%rip)        # 40b1a8 <fopen@GLIBC_2.2.5>
  40273b:	0f 1f 44 00 00       	nopl   0x0(%rax,%rax,1)

0000000000402740 <perror@plt>:
  402740:	f3 0f 1e fa          	endbr64 
  402744:	f2 ff 25 65 8a 00 00 	bnd jmpq *0x8a65(%rip)        # 40b1b0 <perror@GLIBC_2.2.5>
  40274b:	0f 1f 44 00 00       	nopl   0x0(%rax,%rax,1)

0000000000402750 <vfprintf@plt>:
  402750:	f3 0f 1e fa          	endbr64 
  402754:	f2 ff 25 5d 8a 00 00 	bnd jmpq *0x8a5d(%rip)        # 40b1b8 <vfprintf@GLIBC_2.2.5>
  40275b:	0f 1f 44 00 00       	nopl   0x0(%rax,%rax,1)

0000000000402760 <atoi@plt>:
  402760:	f3 0f 1e fa          	endbr64 
  402764:	f2 ff 25 55 8a 00 00 	bnd jmpq *0x8a55(%rip)        # 40b1c0 <atoi@GLIBC_2.2.5>
  40276b:	0f 1f 44 00 00       	nopl   0x0(%rax,%rax,1)

0000000000402770 <sprintf@plt>:
  402770:	f3 0f 1e fa          	endbr64 
  402774:	f2 ff 25 4d 8a 00 00 	bnd jmpq *0x8a4d(%rip)        # 40b1c8 <sprintf@GLIBC_2.2.5>
  40277b:	0f 1f 44 00 00       	nopl   0x0(%rax,%rax,1)

0000000000402780 <exit@plt>:
  402780:	f3 0f 1e fa          	endbr64 
  402784:	f2 ff 25 45 8a 00 00 	bnd jmpq *0x8a45(%rip)        # 40b1d0 <exit@GLIBC_2.2.5>
  40278b:	0f 1f 44 00 00       	nopl   0x0(%rax,%rax,1)

0000000000402790 <fwrite@plt>:
  402790:	f3 0f 1e fa          	endbr64 
  402794:	f2 ff 25 3d 8a 00 00 	bnd jmpq *0x8a3d(%rip)        # 40b1d8 <fwrite@GLIBC_2.2.5>
  40279b:	0f 1f 44 00 00       	nopl   0x0(%rax,%rax,1)

00000000004027a0 <sleep@plt>:
  4027a0:	f3 0f 1e fa          	endbr64 
  4027a4:	f2 ff 25 35 8a 00 00 	bnd jmpq *0x8a35(%rip)        # 40b1e0 <sleep@GLIBC_2.2.5>
  4027ab:	0f 1f 44 00 00       	nopl   0x0(%rax,%rax,1)

00000000004027b0 <pthread_mutex_init@plt>:
  4027b0:	f3 0f 1e fa          	endbr64 
  4027b4:	f2 ff 25 2d 8a 00 00 	bnd jmpq *0x8a2d(%rip)        # 40b1e8 <pthread_mutex_init@GLIBC_2.2.5>
  4027bb:	0f 1f 44 00 00       	nopl   0x0(%rax,%rax,1)

00000000004027c0 <pthread_mutex_lock@plt>:
  4027c0:	f3 0f 1e fa          	endbr64 
  4027c4:	f2 ff 25 25 8a 00 00 	bnd jmpq *0x8a25(%rip)        # 40b1f0 <pthread_mutex_lock@GLIBC_2.2.5>
  4027cb:	0f 1f 44 00 00       	nopl   0x0(%rax,%rax,1)

00000000004027d0 <usleep@plt>:
  4027d0:	f3 0f 1e fa          	endbr64 
  4027d4:	f2 ff 25 1d 8a 00 00 	bnd jmpq *0x8a1d(%rip)        # 40b1f8 <usleep@GLIBC_2.2.5>
  4027db:	0f 1f 44 00 00       	nopl   0x0(%rax,%rax,1)

00000000004027e0 <socket@plt>:
  4027e0:	f3 0f 1e fa          	endbr64 
  4027e4:	f2 ff 25 15 8a 00 00 	bnd jmpq *0x8a15(%rip)        # 40b200 <socket@GLIBC_2.2.5>
  4027eb:	0f 1f 44 00 00       	nopl   0x0(%rax,%rax,1)

Disassembly of section .text:

00000000004027f0 <_start>:
  4027f0:	f3 0f 1e fa          	endbr64 
  4027f4:	31 ed                	xor    %ebp,%ebp
  4027f6:	49 89 d1             	mov    %rdx,%r9
  4027f9:	5e                   	pop    %rsi
  4027fa:	48 89 e2             	mov    %rsp,%rdx
  4027fd:	48 83 e4 f0          	and    $0xfffffffffffffff0,%rsp
  402801:	50                   	push   %rax
  402802:	54                   	push   %rsp
  402803:	49 c7 c0 e0 72 40 00 	mov    $0x4072e0,%r8
  40280a:	48 c7 c1 70 72 40 00 	mov    $0x407270,%rcx
  402811:	48 c7 c7 18 42 40 00 	mov    $0x404218,%rdi
  402818:	ff 15 c2 87 00 00    	callq  *0x87c2(%rip)        # 40afe0 <__libc_start_main@GLIBC_2.2.5>
  40281e:	f4                   	hlt    
  40281f:	90                   	nop

0000000000402820 <_dl_relocate_static_pie>:
  402820:	f3 0f 1e fa          	endbr64 
  402824:	c3                   	retq   
  402825:	66 2e 0f 1f 84 00 00 	nopw   %cs:0x0(%rax,%rax,1)
  40282c:	00 00 00 
  40282f:	90                   	nop

0000000000402830 <deregister_tm_clones>:
  402830:	b8 58 b2 40 00       	mov    $0x40b258,%eax
  402835:	48 3d 58 b2 40 00    	cmp    $0x40b258,%rax
  40283b:	74 13                	je     402850 <deregister_tm_clones+0x20>
  40283d:	b8 00 00 00 00       	mov    $0x0,%eax
  402842:	48 85 c0             	test   %rax,%rax
  402845:	74 09                	je     402850 <deregister_tm_clones+0x20>
  402847:	bf 58 b2 40 00       	mov    $0x40b258,%edi
  40284c:	ff e0                	jmpq   *%rax
  40284e:	66 90                	xchg   %ax,%ax
  402850:	c3                   	retq   
  402851:	66 66 2e 0f 1f 84 00 	data16 nopw %cs:0x0(%rax,%rax,1)
  402858:	00 00 00 00 
  40285c:	0f 1f 40 00          	nopl   0x0(%rax)

0000000000402860 <register_tm_clones>:
  402860:	be 58 b2 40 00       	mov    $0x40b258,%esi
  402865:	48 81 ee 58 b2 40 00 	sub    $0x40b258,%rsi
  40286c:	48 89 f0             	mov    %rsi,%rax
  40286f:	48 c1 ee 3f          	shr    $0x3f,%rsi
  402873:	48 c1 f8 03          	sar    $0x3,%rax
  402877:	48 01 c6             	add    %rax,%rsi
  40287a:	48 d1 fe             	sar    %rsi
  40287d:	74 11                	je     402890 <register_tm_clones+0x30>
  40287f:	b8 00 00 00 00       	mov    $0x0,%eax
  402884:	48 85 c0             	test   %rax,%rax
  402887:	74 07                	je     402890 <register_tm_clones+0x30>
  402889:	bf 58 b2 40 00       	mov    $0x40b258,%edi
  40288e:	ff e0                	jmpq   *%rax
  402890:	c3                   	retq   
  402891:	66 66 2e 0f 1f 84 00 	data16 nopw %cs:0x0(%rax,%rax,1)
  402898:	00 00 00 00 
  40289c:	0f 1f 40 00          	nopl   0x0(%rax)

00000000004028a0 <__do_global_dtors_aux>:
  4028a0:	f3 0f 1e fa          	endbr64 
  4028a4:	80 3d dd 89 00 00 00 	cmpb   $0x0,0x89dd(%rip)        # 40b288 <completed.8055>
  4028ab:	75 13                	jne    4028c0 <__do_global_dtors_aux+0x20>
  4028ad:	55                   	push   %rbp
  4028ae:	48 89 e5             	mov    %rsp,%rbp
  4028b1:	e8 7a ff ff ff       	callq  402830 <deregister_tm_clones>
  4028b6:	c6 05 cb 89 00 00 01 	movb   $0x1,0x89cb(%rip)        # 40b288 <completed.8055>
  4028bd:	5d                   	pop    %rbp
  4028be:	c3                   	retq   
  4028bf:	90                   	nop
  4028c0:	c3                   	retq   
  4028c1:	66 66 2e 0f 1f 84 00 	data16 nopw %cs:0x0(%rax,%rax,1)
  4028c8:	00 00 00 00 
  4028cc:	0f 1f 40 00          	nopl   0x0(%rax)

00000000004028d0 <frame_dummy>:
  4028d0:	f3 0f 1e fa          	endbr64 
  4028d4:	eb 8a                	jmp    402860 <register_tm_clones>

00000000004028d6 <thpool_init>:
  4028d6:	f3 0f 1e fa          	endbr64 
  4028da:	55                   	push   %rbp
  4028db:	48 89 e5             	mov    %rsp,%rbp
  4028de:	48 83 ec 20          	sub    $0x20,%rsp
  4028e2:	89 7d ec             	mov    %edi,-0x14(%rbp)
  4028e5:	c7 05 a1 89 00 00 00 	movl   $0x0,0x89a1(%rip)        # 40b290 <threads_on_hold>
  4028ec:	00 00 00 
  4028ef:	c7 05 93 89 00 00 01 	movl   $0x1,0x8993(%rip)        # 40b28c <threads_keepalive>
  4028f6:	00 00 00 
  4028f9:	83 7d ec 00          	cmpl   $0x0,-0x14(%rbp)
  4028fd:	79 07                	jns    402906 <thpool_init+0x30>
  4028ff:	c7 45 ec 00 00 00 00 	movl   $0x0,-0x14(%rbp)
  402906:	bf b0 00 00 00       	mov    $0xb0,%edi
  40290b:	e8 b0 fd ff ff       	callq  4026c0 <malloc@plt>
  402910:	48 89 45 f8          	mov    %rax,-0x8(%rbp)
  402914:	48 83 7d f8 00       	cmpq   $0x0,-0x8(%rbp)
  402919:	75 2a                	jne    402945 <thpool_init+0x6f>
  40291b:	48 8b 05 5e 89 00 00 	mov    0x895e(%rip),%rax        # 40b280 <stderr@@GLIBC_2.2.5>
  402922:	48 89 c1             	mov    %rax,%rcx
  402925:	ba 39 00 00 00       	mov    $0x39,%edx
  40292a:	be 01 00 00 00       	mov    $0x1,%esi
  40292f:	48 8d 3d d2 56 00 00 	lea    0x56d2(%rip),%rdi        # 408008 <_IO_stdin_used+0x8>
  402936:	e8 55 fe ff ff       	callq  402790 <fwrite@plt>
  40293b:	b8 00 00 00 00       	mov    $0x0,%eax
  402940:	e9 42 01 00 00       	jmpq   402a87 <thpool_init+0x1b1>
  402945:	48 8b 45 f8          	mov    -0x8(%rbp),%rax
  402949:	c7 40 08 00 00 00 00 	movl   $0x0,0x8(%rax)
  402950:	48 8b 45 f8          	mov    -0x8(%rbp),%rax
  402954:	c7 40 0c 00 00 00 00 	movl   $0x0,0xc(%rax)
  40295b:	48 8b 45 f8          	mov    -0x8(%rbp),%rax
  40295f:	48 83 c0 68          	add    $0x68,%rax
  402963:	48 89 c7             	mov    %rax,%rdi
  402966:	e8 24 08 00 00       	callq  40318f <jobqueue_init>
  40296b:	83 f8 ff             	cmp    $0xffffffff,%eax
  40296e:	75 36                	jne    4029a6 <thpool_init+0xd0>
  402970:	48 8b 05 09 89 00 00 	mov    0x8909(%rip),%rax        # 40b280 <stderr@@GLIBC_2.2.5>
  402977:	48 89 c1             	mov    %rax,%rcx
  40297a:	ba 37 00 00 00       	mov    $0x37,%edx
  40297f:	be 01 00 00 00       	mov    $0x1,%esi
  402984:	48 8d 3d bd 56 00 00 	lea    0x56bd(%rip),%rdi        # 408048 <_IO_stdin_used+0x48>
  40298b:	e8 00 fe ff ff       	callq  402790 <fwrite@plt>
  402990:	48 8b 45 f8          	mov    -0x8(%rbp),%rax
  402994:	48 89 c7             	mov    %rax,%rdi
  402997:	e8 74 fa ff ff       	callq  402410 <free@plt>
  40299c:	b8 00 00 00 00       	mov    $0x0,%eax
  4029a1:	e9 e1 00 00 00       	jmpq   402a87 <thpool_init+0x1b1>
  4029a6:	8b 45 ec             	mov    -0x14(%rbp),%eax
  4029a9:	48 98                	cltq   
  4029ab:	48 c1 e0 03          	shl    $0x3,%rax
  4029af:	48 89 c7             	mov    %rax,%rdi
  4029b2:	e8 09 fd ff ff       	callq  4026c0 <malloc@plt>
  4029b7:	48 89 c2             	mov    %rax,%rdx
  4029ba:	48 8b 45 f8          	mov    -0x8(%rbp),%rax
  4029be:	48 89 10             	mov    %rdx,(%rax)
  4029c1:	48 8b 45 f8          	mov    -0x8(%rbp),%rax
  4029c5:	48 8b 00             	mov    (%rax),%rax
  4029c8:	48 85 c0             	test   %rax,%rax
  4029cb:	75 43                	jne    402a10 <thpool_init+0x13a>
  4029cd:	48 8b 05 ac 88 00 00 	mov    0x88ac(%rip),%rax        # 40b280 <stderr@@GLIBC_2.2.5>
  4029d4:	48 89 c1             	mov    %rax,%rcx
  4029d7:	ba 35 00 00 00       	mov    $0x35,%edx
  4029dc:	be 01 00 00 00       	mov    $0x1,%esi
  4029e1:	48 8d 3d 98 56 00 00 	lea    0x5698(%rip),%rdi        # 408080 <_IO_stdin_used+0x80>
  4029e8:	e8 a3 fd ff ff       	callq  402790 <fwrite@plt>
  4029ed:	48 8b 45 f8          	mov    -0x8(%rbp),%rax
  4029f1:	48 83 c0 68          	add    $0x68,%rax
  4029f5:	48 89 c7             	mov    %rax,%rdi
  4029f8:	e8 bf 09 00 00       	callq  4033bc <jobqueue_destroy>
  4029fd:	48 8b 45 f8          	mov    -0x8(%rbp),%rax
  402a01:	48 89 c7             	mov    %rax,%rdi
  402a04:	e8 07 fa ff ff       	callq  402410 <free@plt>
  402a09:	b8 00 00 00 00       	mov    $0x0,%eax
  402a0e:	eb 77                	jmp    402a87 <thpool_init+0x1b1>
  402a10:	48 8b 45 f8          	mov    -0x8(%rbp),%rax
  402a14:	48 83 c0 10          	add    $0x10,%rax
  402a18:	be 00 00 00 00       	mov    $0x0,%esi
  402a1d:	48 89 c7             	mov    %rax,%rdi
  402a20:	e8 8b fd ff ff       	callq  4027b0 <pthread_mutex_init@plt>
  402a25:	48 8b 45 f8          	mov    -0x8(%rbp),%rax
  402a29:	48 83 c0 38          	add    $0x38,%rax
  402a2d:	be 00 00 00 00       	mov    $0x0,%esi
  402a32:	48 89 c7             	mov    %rax,%rdi
  402a35:	e8 66 fc ff ff       	callq  4026a0 <pthread_cond_init@plt>
  402a3a:	c7 45 f4 00 00 00 00 	movl   $0x0,-0xc(%rbp)
  402a41:	eb 2b                	jmp    402a6e <thpool_init+0x198>
  402a43:	48 8b 45 f8          	mov    -0x8(%rbp),%rax
  402a47:	48 8b 00             	mov    (%rax),%rax
  402a4a:	8b 55 f4             	mov    -0xc(%rbp),%edx
  402a4d:	48 63 d2             	movslq %edx,%rdx
  402a50:	48 c1 e2 03          	shl    $0x3,%rdx
  402a54:	48 8d 0c 10          	lea    (%rax,%rdx,1),%rcx
  402a58:	8b 55 f4             	mov    -0xc(%rbp),%edx
  402a5b:	48 8b 45 f8          	mov    -0x8(%rbp),%rax
  402a5f:	48 89 ce             	mov    %rcx,%rsi
  402a62:	48 89 c7             	mov    %rax,%rdi
  402a65:	e8 eb 02 00 00       	callq  402d55 <thread_init>
  402a6a:	83 45 f4 01          	addl   $0x1,-0xc(%rbp)
  402a6e:	8b 45 f4             	mov    -0xc(%rbp),%eax
  402a71:	3b 45 ec             	cmp    -0x14(%rbp),%eax
  402a74:	7c cd                	jl     402a43 <thpool_init+0x16d>
  402a76:	90                   	nop
  402a77:	48 8b 45 f8          	mov    -0x8(%rbp),%rax
  402a7b:	8b 40 08             	mov    0x8(%rax),%eax
  402a7e:	39 45 ec             	cmp    %eax,-0x14(%rbp)
  402a81:	75 f4                	jne    402a77 <thpool_init+0x1a1>
  402a83:	48 8b 45 f8          	mov    -0x8(%rbp),%rax
  402a87:	c9                   	leaveq 
  402a88:	c3                   	retq   

0000000000402a89 <thpool_add_work>:
  402a89:	f3 0f 1e fa          	endbr64 
  402a8d:	55                   	push   %rbp
  402a8e:	48 89 e5             	mov    %rsp,%rbp
  402a91:	48 83 ec 30          	sub    $0x30,%rsp
  402a95:	48 89 7d e8          	mov    %rdi,-0x18(%rbp)
  402a99:	48 89 75 e0          	mov    %rsi,-0x20(%rbp)
  402a9d:	48 89 55 d8          	mov    %rdx,-0x28(%rbp)
  402aa1:	bf 18 00 00 00       	mov    $0x18,%edi
  402aa6:	e8 15 fc ff ff       	callq  4026c0 <malloc@plt>
  402aab:	48 89 45 f8          	mov    %rax,-0x8(%rbp)
  402aaf:	48 83 7d f8 00       	cmpq   $0x0,-0x8(%rbp)
  402ab4:	75 27                	jne    402add <thpool_add_work+0x54>
  402ab6:	48 8b 05 c3 87 00 00 	mov    0x87c3(%rip),%rax        # 40b280 <stderr@@GLIBC_2.2.5>
  402abd:	48 89 c1             	mov    %rax,%rcx
  402ac0:	ba 39 00 00 00       	mov    $0x39,%edx
  402ac5:	be 01 00 00 00       	mov    $0x1,%esi
  402aca:	48 8d 3d e7 55 00 00 	lea    0x55e7(%rip),%rdi        # 4080b8 <_IO_stdin_used+0xb8>
  402ad1:	e8 ba fc ff ff       	callq  402790 <fwrite@plt>
  402ad6:	b8 ff ff ff ff       	mov    $0xffffffff,%eax
  402adb:	eb 34                	jmp    402b11 <thpool_add_work+0x88>
  402add:	48 8b 45 f8          	mov    -0x8(%rbp),%rax
  402ae1:	48 8b 55 e0          	mov    -0x20(%rbp),%rdx
  402ae5:	48 89 50 08          	mov    %rdx,0x8(%rax)
  402ae9:	48 8b 45 f8          	mov    -0x8(%rbp),%rax
  402aed:	48 8b 55 d8          	mov    -0x28(%rbp),%rdx
  402af1:	48 89 50 10          	mov    %rdx,0x10(%rax)
  402af5:	48 8b 45 e8          	mov    -0x18(%rbp),%rax
  402af9:	48 8d 50 68          	lea    0x68(%rax),%rdx
  402afd:	48 8b 45 f8          	mov    -0x8(%rbp),%rax
  402b01:	48 89 c6             	mov    %rax,%rsi
  402b04:	48 89 d7             	mov    %rdx,%rdi
  402b07:	e8 73 07 00 00       	callq  40327f <jobqueue_push>
  402b0c:	b8 00 00 00 00       	mov    $0x0,%eax
  402b11:	c9                   	leaveq 
  402b12:	c3                   	retq   

0000000000402b13 <thpool_wait>:
  402b13:	f3 0f 1e fa          	endbr64 
  402b17:	55                   	push   %rbp
  402b18:	48 89 e5             	mov    %rsp,%rbp
  402b1b:	48 83 ec 10          	sub    $0x10,%rsp
  402b1f:	48 89 7d f8          	mov    %rdi,-0x8(%rbp)
  402b23:	48 8b 45 f8          	mov    -0x8(%rbp),%rax
  402b27:	48 83 c0 10          	add    $0x10,%rax
  402b2b:	48 89 c7             	mov    %rax,%rdi
  402b2e:	e8 8d fc ff ff       	callq  4027c0 <pthread_mutex_lock@plt>
  402b33:	eb 1b                	jmp    402b50 <thpool_wait+0x3d>
  402b35:	48 8b 45 f8          	mov    -0x8(%rbp),%rax
  402b39:	48 8d 50 10          	lea    0x10(%rax),%rdx
  402b3d:	48 8b 45 f8          	mov    -0x8(%rbp),%rax
  402b41:	48 83 c0 38          	add    $0x38,%rax
  402b45:	48 89 d6             	mov    %rdx,%rsi
  402b48:	48 89 c7             	mov    %rax,%rdi
  402b4b:	e8 90 f9 ff ff       	callq  4024e0 <pthread_cond_wait@plt>
  402b50:	48 8b 45 f8          	mov    -0x8(%rbp),%rax
  402b54:	8b 80 a8 00 00 00    	mov    0xa8(%rax),%eax
  402b5a:	85 c0                	test   %eax,%eax
  402b5c:	75 d7                	jne    402b35 <thpool_wait+0x22>
  402b5e:	48 8b 45 f8          	mov    -0x8(%rbp),%rax
  402b62:	8b 40 0c             	mov    0xc(%rax),%eax
  402b65:	85 c0                	test   %eax,%eax
  402b67:	75 cc                	jne    402b35 <thpool_wait+0x22>
  402b69:	48 8b 45 f8          	mov    -0x8(%rbp),%rax
  402b6d:	48 83 c0 10          	add    $0x10,%rax
  402b71:	48 89 c7             	mov    %rax,%rdi
  402b74:	e8 37 fb ff ff       	callq  4026b0 <pthread_mutex_unlock@plt>
  402b79:	90                   	nop
  402b7a:	c9                   	leaveq 
  402b7b:	c3                   	retq   

0000000000402b7c <thpool_destroy>:
  402b7c:	f3 0f 1e fa          	endbr64 
  402b80:	55                   	push   %rbp
  402b81:	48 89 e5             	mov    %rsp,%rbp
  402b84:	48 83 ec 40          	sub    $0x40,%rsp
  402b88:	48 89 7d c8          	mov    %rdi,-0x38(%rbp)
  402b8c:	64 48 8b 04 25 28 00 	mov    %fs:0x28,%rax
  402b93:	00 00 
  402b95:	48 89 45 f8          	mov    %rax,-0x8(%rbp)
  402b99:	31 c0                	xor    %eax,%eax
  402b9b:	48 83 7d c8 00       	cmpq   $0x0,-0x38(%rbp)
  402ba0:	0f 84 15 01 00 00    	je     402cbb <thpool_destroy+0x13f>
  402ba6:	48 8b 45 c8          	mov    -0x38(%rbp),%rax
  402baa:	8b 40 08             	mov    0x8(%rax),%eax
  402bad:	89 45 d0             	mov    %eax,-0x30(%rbp)
  402bb0:	c7 05 d2 86 00 00 00 	movl   $0x0,0x86d2(%rip)        # 40b28c <threads_keepalive>
  402bb7:	00 00 00 
  402bba:	f2 0f 10 05 e6 55 00 	movsd  0x55e6(%rip),%xmm0        # 4081a8 <_IO_stdin_used+0x1a8>
  402bc1:	00 
  402bc2:	f2 0f 11 45 f0       	movsd  %xmm0,-0x10(%rbp)
  402bc7:	66 0f ef c0          	pxor   %xmm0,%xmm0
  402bcb:	f2 0f 11 45 e8       	movsd  %xmm0,-0x18(%rbp)
  402bd0:	48 8d 45 d8          	lea    -0x28(%rbp),%rax
  402bd4:	48 89 c7             	mov    %rax,%rdi
  402bd7:	e8 a4 fa ff ff       	callq  402680 <time@plt>
  402bdc:	eb 3b                	jmp    402c19 <thpool_destroy+0x9d>
  402bde:	48 8b 45 c8          	mov    -0x38(%rbp),%rax
  402be2:	48 8b 80 a0 00 00 00 	mov    0xa0(%rax),%rax
  402be9:	48 89 c7             	mov    %rax,%rdi
  402bec:	e8 e0 08 00 00       	callq  4034d1 <bsem_post_all>
  402bf1:	48 8d 45 e0          	lea    -0x20(%rbp),%rax
  402bf5:	48 89 c7             	mov    %rax,%rdi
  402bf8:	e8 83 fa ff ff       	callq  402680 <time@plt>
  402bfd:	48 8b 55 d8          	mov    -0x28(%rbp),%rdx
  402c01:	48 8b 45 e0          	mov    -0x20(%rbp),%rax
  402c05:	48 89 d6             	mov    %rdx,%rsi
  402c08:	48 89 c7             	mov    %rax,%rdi
  402c0b:	e8 60 f9 ff ff       	callq  402570 <difftime@plt>
  402c10:	66 48 0f 7e c0       	movq   %xmm0,%rax
  402c15:	48 89 45 e8          	mov    %rax,-0x18(%rbp)
  402c19:	f2 0f 10 45 f0       	movsd  -0x10(%rbp),%xmm0
  402c1e:	66 0f 2f 45 e8       	comisd -0x18(%rbp),%xmm0
  402c23:	76 0b                	jbe    402c30 <thpool_destroy+0xb4>
  402c25:	48 8b 45 c8          	mov    -0x38(%rbp),%rax
  402c29:	8b 40 08             	mov    0x8(%rax),%eax
  402c2c:	85 c0                	test   %eax,%eax
  402c2e:	75 ae                	jne    402bde <thpool_destroy+0x62>
  402c30:	eb 1d                	jmp    402c4f <thpool_destroy+0xd3>
  402c32:	48 8b 45 c8          	mov    -0x38(%rbp),%rax
  402c36:	48 8b 80 a0 00 00 00 	mov    0xa0(%rax),%rax
  402c3d:	48 89 c7             	mov    %rax,%rdi
  402c40:	e8 8c 08 00 00       	callq  4034d1 <bsem_post_all>
  402c45:	bf 01 00 00 00       	mov    $0x1,%edi
  402c4a:	e8 51 fb ff ff       	callq  4027a0 <sleep@plt>
  402c4f:	48 8b 45 c8          	mov    -0x38(%rbp),%rax
  402c53:	8b 40 08             	mov    0x8(%rax),%eax
  402c56:	85 c0                	test   %eax,%eax
  402c58:	75 d8                	jne    402c32 <thpool_destroy+0xb6>
  402c5a:	48 8b 45 c8          	mov    -0x38(%rbp),%rax
  402c5e:	48 83 c0 68          	add    $0x68,%rax
  402c62:	48 89 c7             	mov    %rax,%rdi
  402c65:	e8 52 07 00 00       	callq  4033bc <jobqueue_destroy>
  402c6a:	c7 45 d4 00 00 00 00 	movl   $0x0,-0x2c(%rbp)
  402c71:	eb 23                	jmp    402c96 <thpool_destroy+0x11a>
  402c73:	48 8b 45 c8          	mov    -0x38(%rbp),%rax
  402c77:	48 8b 00             	mov    (%rax),%rax
  402c7a:	8b 55 d4             	mov    -0x2c(%rbp),%edx
  402c7d:	48 63 d2             	movslq %edx,%rdx
  402c80:	48 c1 e2 03          	shl    $0x3,%rdx
  402c84:	48 01 d0             	add    %rdx,%rax
  402c87:	48 8b 00             	mov    (%rax),%rax
  402c8a:	48 89 c7             	mov    %rax,%rdi
  402c8d:	e8 de 04 00 00       	callq  403170 <thread_destroy>
  402c92:	83 45 d4 01          	addl   $0x1,-0x2c(%rbp)
  402c96:	8b 45 d0             	mov    -0x30(%rbp),%eax
  402c99:	39 45 d4             	cmp    %eax,-0x2c(%rbp)
  402c9c:	7c d5                	jl     402c73 <thpool_destroy+0xf7>
  402c9e:	48 8b 45 c8          	mov    -0x38(%rbp),%rax
  402ca2:	48 8b 00             	mov    (%rax),%rax
  402ca5:	48 89 c7             	mov    %rax,%rdi
  402ca8:	e8 63 f7 ff ff       	callq  402410 <free@plt>
  402cad:	48 8b 45 c8          	mov    -0x38(%rbp),%rax
  402cb1:	48 89 c7             	mov    %rax,%rdi
  402cb4:	e8 57 f7 ff ff       	callq  402410 <free@plt>
  402cb9:	eb 01                	jmp    402cbc <thpool_destroy+0x140>
  402cbb:	90                   	nop
  402cbc:	48 8b 45 f8          	mov    -0x8(%rbp),%rax
  402cc0:	64 48 33 04 25 28 00 	xor    %fs:0x28,%rax
  402cc7:	00 00 
  402cc9:	74 05                	je     402cd0 <thpool_destroy+0x154>
  402ccb:	e8 40 f8 ff ff       	callq  402510 <__stack_chk_fail@plt>
  402cd0:	c9                   	leaveq 
  402cd1:	c3                   	retq   

0000000000402cd2 <thpool_pause>:
  402cd2:	f3 0f 1e fa          	endbr64 
  402cd6:	55                   	push   %rbp
  402cd7:	48 89 e5             	mov    %rsp,%rbp
  402cda:	48 83 ec 20          	sub    $0x20,%rsp
  402cde:	48 89 7d e8          	mov    %rdi,-0x18(%rbp)
  402ce2:	c7 45 fc 00 00 00 00 	movl   $0x0,-0x4(%rbp)
  402ce9:	eb 2c                	jmp    402d17 <thpool_pause+0x45>
  402ceb:	48 8b 45 e8          	mov    -0x18(%rbp),%rax
  402cef:	48 8b 00             	mov    (%rax),%rax
  402cf2:	8b 55 fc             	mov    -0x4(%rbp),%edx
  402cf5:	48 63 d2             	movslq %edx,%rdx
  402cf8:	48 c1 e2 03          	shl    $0x3,%rdx
  402cfc:	48 01 d0             	add    %rdx,%rax
  402cff:	48 8b 00             	mov    (%rax),%rax
  402d02:	48 8b 40 08          	mov    0x8(%rax),%rax
  402d06:	be 0a 00 00 00       	mov    $0xa,%esi
  402d0b:	48 89 c7             	mov    %rax,%rdi
  402d0e:	e8 ad f7 ff ff       	callq  4024c0 <pthread_kill@plt>
  402d13:	83 45 fc 01          	addl   $0x1,-0x4(%rbp)
  402d17:	48 8b 45 e8          	mov    -0x18(%rbp),%rax
  402d1b:	8b 40 08             	mov    0x8(%rax),%eax
  402d1e:	39 45 fc             	cmp    %eax,-0x4(%rbp)
  402d21:	7c c8                	jl     402ceb <thpool_pause+0x19>
  402d23:	90                   	nop
  402d24:	90                   	nop
  402d25:	c9                   	leaveq 
  402d26:	c3                   	retq   

0000000000402d27 <thpool_resume>:
  402d27:	f3 0f 1e fa          	endbr64 
  402d2b:	55                   	push   %rbp
  402d2c:	48 89 e5             	mov    %rsp,%rbp
  402d2f:	48 89 7d f8          	mov    %rdi,-0x8(%rbp)
  402d33:	c7 05 53 85 00 00 00 	movl   $0x0,0x8553(%rip)        # 40b290 <threads_on_hold>
  402d3a:	00 00 00 
  402d3d:	90                   	nop
  402d3e:	5d                   	pop    %rbp
  402d3f:	c3                   	retq   

0000000000402d40 <thpool_num_threads_working>:
  402d40:	f3 0f 1e fa          	endbr64 
  402d44:	55                   	push   %rbp
  402d45:	48 89 e5             	mov    %rsp,%rbp
  402d48:	48 89 7d f8          	mov    %rdi,-0x8(%rbp)
  402d4c:	48 8b 45 f8          	mov    -0x8(%rbp),%rax
  402d50:	8b 40 0c             	mov    0xc(%rax),%eax
  402d53:	5d                   	pop    %rbp
  402d54:	c3                   	retq   

0000000000402d55 <thread_init>:
  402d55:	f3 0f 1e fa          	endbr64 
  402d59:	55                   	push   %rbp
  402d5a:	48 89 e5             	mov    %rsp,%rbp
  402d5d:	48 83 ec 20          	sub    $0x20,%rsp
  402d61:	48 89 7d f8          	mov    %rdi,-0x8(%rbp)
  402d65:	48 89 75 f0          	mov    %rsi,-0x10(%rbp)
  402d69:	89 55 ec             	mov    %edx,-0x14(%rbp)
  402d6c:	bf 18 00 00 00       	mov    $0x18,%edi
  402d71:	e8 4a f9 ff ff       	callq  4026c0 <malloc@plt>
  402d76:	48 89 c2             	mov    %rax,%rdx
  402d79:	48 8b 45 f0          	mov    -0x10(%rbp),%rax
  402d7d:	48 89 10             	mov    %rdx,(%rax)
  402d80:	48 83 7d f0 00       	cmpq   $0x0,-0x10(%rbp)
  402d85:	75 27                	jne    402dae <thread_init+0x59>
  402d87:	48 8b 05 f2 84 00 00 	mov    0x84f2(%rip),%rax        # 40b280 <stderr@@GLIBC_2.2.5>
  402d8e:	48 89 c1             	mov    %rax,%rcx
  402d91:	ba 34 00 00 00       	mov    $0x34,%edx
  402d96:	be 01 00 00 00       	mov    $0x1,%esi
  402d9b:	48 8d 3d 56 53 00 00 	lea    0x5356(%rip),%rdi        # 4080f8 <_IO_stdin_used+0xf8>
  402da2:	e8 e9 f9 ff ff       	callq  402790 <fwrite@plt>
  402da7:	b8 ff ff ff ff       	mov    $0xffffffff,%eax
  402dac:	eb 59                	jmp    402e07 <thread_init+0xb2>
  402dae:	48 8b 45 f0          	mov    -0x10(%rbp),%rax
  402db2:	48 8b 00             	mov    (%rax),%rax
  402db5:	48 8b 55 f8          	mov    -0x8(%rbp),%rdx
  402db9:	48 89 50 10          	mov    %rdx,0x10(%rax)
  402dbd:	48 8b 45 f0          	mov    -0x10(%rbp),%rax
  402dc1:	48 8b 00             	mov    (%rax),%rax
  402dc4:	8b 55 ec             	mov    -0x14(%rbp),%edx
  402dc7:	89 10                	mov    %edx,(%rax)
  402dc9:	48 8b 45 f0          	mov    -0x10(%rbp),%rax
  402dcd:	48 8b 00             	mov    (%rax),%rax
  402dd0:	48 8b 55 f0          	mov    -0x10(%rbp),%rdx
  402dd4:	48 8b 12             	mov    (%rdx),%rdx
  402dd7:	48 8d 7a 08          	lea    0x8(%rdx),%rdi
  402ddb:	48 89 c1             	mov    %rax,%rcx
  402dde:	48 8d 15 57 00 00 00 	lea    0x57(%rip),%rdx        # 402e3c <thread_do>
  402de5:	be 00 00 00 00       	mov    $0x0,%esi
  402dea:	e8 31 f6 ff ff       	callq  402420 <pthread_create@plt>
  402def:	48 8b 45 f0          	mov    -0x10(%rbp),%rax
  402df3:	48 8b 00             	mov    (%rax),%rax
  402df6:	48 8b 40 08          	mov    0x8(%rax),%rax
  402dfa:	48 89 c7             	mov    %rax,%rdi
  402dfd:	e8 2e f6 ff ff       	callq  402430 <pthread_detach@plt>
  402e02:	b8 00 00 00 00       	mov    $0x0,%eax
  402e07:	c9                   	leaveq 
  402e08:	c3                   	retq   

0000000000402e09 <thread_hold>:
  402e09:	f3 0f 1e fa          	endbr64 
  402e0d:	55                   	push   %rbp
  402e0e:	48 89 e5             	mov    %rsp,%rbp
  402e11:	48 83 ec 10          	sub    $0x10,%rsp
  402e15:	89 7d fc             	mov    %edi,-0x4(%rbp)
  402e18:	c7 05 6e 84 00 00 01 	movl   $0x1,0x846e(%rip)        # 40b290 <threads_on_hold>
  402e1f:	00 00 00 
  402e22:	eb 0a                	jmp    402e2e <thread_hold+0x25>
  402e24:	bf 01 00 00 00       	mov    $0x1,%edi
  402e29:	e8 72 f9 ff ff       	callq  4027a0 <sleep@plt>
  402e2e:	8b 05 5c 84 00 00    	mov    0x845c(%rip),%eax        # 40b290 <threads_on_hold>
  402e34:	85 c0                	test   %eax,%eax
  402e36:	75 ec                	jne    402e24 <thread_hold+0x1b>
  402e38:	90                   	nop
  402e39:	90                   	nop
  402e3a:	c9                   	leaveq 
  402e3b:	c3                   	retq   

0000000000402e3c <thread_do>:
  402e3c:	f3 0f 1e fa          	endbr64 
  402e40:	55                   	push   %rbp
  402e41:	48 89 e5             	mov    %rsp,%rbp
  402e44:	48 81 ec 60 01 00 00 	sub    $0x160,%rsp
  402e4b:	48 89 bd a8 fe ff ff 	mov    %rdi,-0x158(%rbp)
  402e52:	64 48 8b 04 25 28 00 	mov    %fs:0x28,%rax
  402e59:	00 00 
  402e5b:	48 89 45 f8          	mov    %rax,-0x8(%rbp)
  402e5f:	31 c0                	xor    %eax,%eax
  402e61:	48 c7 85 70 ff ff ff 	movq   $0x0,-0x90(%rbp)
  402e68:	00 00 00 00 
  402e6c:	48 c7 85 78 ff ff ff 	movq   $0x0,-0x88(%rbp)
  402e73:	00 00 00 00 
  402e77:	48 c7 45 80 00 00 00 	movq   $0x0,-0x80(%rbp)
  402e7e:	00 
  402e7f:	48 c7 45 88 00 00 00 	movq   $0x0,-0x78(%rbp)
  402e86:	00 
  402e87:	48 c7 45 90 00 00 00 	movq   $0x0,-0x70(%rbp)
  402e8e:	00 
  402e8f:	48 c7 45 98 00 00 00 	movq   $0x0,-0x68(%rbp)
  402e96:	00 
  402e97:	48 c7 45 a0 00 00 00 	movq   $0x0,-0x60(%rbp)
  402e9e:	00 
  402e9f:	48 c7 45 a8 00 00 00 	movq   $0x0,-0x58(%rbp)
  402ea6:	00 
  402ea7:	48 c7 45 b0 00 00 00 	movq   $0x0,-0x50(%rbp)
  402eae:	00 
  402eaf:	48 c7 45 b8 00 00 00 	movq   $0x0,-0x48(%rbp)
  402eb6:	00 
  402eb7:	48 c7 45 c0 00 00 00 	movq   $0x0,-0x40(%rbp)
  402ebe:	00 
  402ebf:	48 c7 45 c8 00 00 00 	movq   $0x0,-0x38(%rbp)
  402ec6:	00 
  402ec7:	48 c7 45 d0 00 00 00 	movq   $0x0,-0x30(%rbp)
  402ece:	00 
  402ecf:	48 c7 45 d8 00 00 00 	movq   $0x0,-0x28(%rbp)
  402ed6:	00 
  402ed7:	48 c7 45 e0 00 00 00 	movq   $0x0,-0x20(%rbp)
  402ede:	00 
  402edf:	48 c7 45 e8 00 00 00 	movq   $0x0,-0x18(%rbp)
  402ee6:	00 
  402ee7:	48 8b 85 a8 fe ff ff 	mov    -0x158(%rbp),%rax
  402eee:	8b 10                	mov    (%rax),%edx
  402ef0:	48 8d 85 70 ff ff ff 	lea    -0x90(%rbp),%rax
  402ef7:	48 8d 35 2f 52 00 00 	lea    0x522f(%rip),%rsi        # 40812d <_IO_stdin_used+0x12d>
  402efe:	48 89 c7             	mov    %rax,%rdi
  402f01:	b8 00 00 00 00       	mov    $0x0,%eax
  402f06:	e8 65 f8 ff ff       	callq  402770 <sprintf@plt>
  402f0b:	48 8d 85 70 ff ff ff 	lea    -0x90(%rbp),%rax
  402f12:	48 89 c6             	mov    %rax,%rsi
  402f15:	bf 0f 00 00 00       	mov    $0xf,%edi
  402f1a:	b8 00 00 00 00       	mov    $0x0,%eax
  402f1f:	e8 3c f7 ff ff       	callq  402660 <prctl@plt>
  402f24:	48 8b 85 a8 fe ff ff 	mov    -0x158(%rbp),%rax
  402f2b:	48 8b 40 10          	mov    0x10(%rax),%rax
  402f2f:	48 89 85 b0 fe ff ff 	mov    %rax,-0x150(%rbp)
  402f36:	48 8d 85 d0 fe ff ff 	lea    -0x130(%rbp),%rax
  402f3d:	48 83 c0 08          	add    $0x8,%rax
  402f41:	48 89 c7             	mov    %rax,%rdi
  402f44:	e8 07 f7 ff ff       	callq  402650 <sigemptyset@plt>
  402f49:	c7 85 58 ff ff ff 00 	movl   $0x0,-0xa8(%rbp)
  402f50:	00 00 00 
  402f53:	48 8d 05 af fe ff ff 	lea    -0x151(%rip),%rax        # 402e09 <thread_hold>
  402f5a:	48 89 85 d0 fe ff ff 	mov    %rax,-0x130(%rbp)
  402f61:	48 8d 85 d0 fe ff ff 	lea    -0x130(%rbp),%rax
  402f68:	ba 00 00 00 00       	mov    $0x0,%edx
  402f6d:	48 89 c6             	mov    %rax,%rsi
  402f70:	bf 0a 00 00 00       	mov    $0xa,%edi
  402f75:	e8 26 f5 ff ff       	callq  4024a0 <sigaction@plt>
  402f7a:	83 f8 ff             	cmp    $0xffffffff,%eax
  402f7d:	75 20                	jne    402f9f <thread_do+0x163>
  402f7f:	48 8b 05 fa 82 00 00 	mov    0x82fa(%rip),%rax        # 40b280 <stderr@@GLIBC_2.2.5>
  402f86:	48 89 c1             	mov    %rax,%rcx
  402f89:	ba 22 00 00 00       	mov    $0x22,%edx
  402f8e:	be 01 00 00 00       	mov    $0x1,%esi
  402f93:	48 8d 3d a6 51 00 00 	lea    0x51a6(%rip),%rdi        # 408140 <_IO_stdin_used+0x140>
  402f9a:	e8 f1 f7 ff ff       	callq  402790 <fwrite@plt>
  402f9f:	48 8b 85 b0 fe ff ff 	mov    -0x150(%rbp),%rax
  402fa6:	48 83 c0 10          	add    $0x10,%rax
  402faa:	48 89 c7             	mov    %rax,%rdi
  402fad:	e8 0e f8 ff ff       	callq  4027c0 <pthread_mutex_lock@plt>
  402fb2:	48 8b 85 b0 fe ff ff 	mov    -0x150(%rbp),%rax
  402fb9:	8b 40 08             	mov    0x8(%rax),%eax
  402fbc:	8d 50 01             	lea    0x1(%rax),%edx
  402fbf:	48 8b 85 b0 fe ff ff 	mov    -0x150(%rbp),%rax
  402fc6:	89 50 08             	mov    %edx,0x8(%rax)
  402fc9:	48 8b 85 b0 fe ff ff 	mov    -0x150(%rbp),%rax
  402fd0:	48 83 c0 10          	add    $0x10,%rax
  402fd4:	48 89 c7             	mov    %rax,%rdi
  402fd7:	e8 d4 f6 ff ff       	callq  4026b0 <pthread_mutex_unlock@plt>
  402fdc:	e9 29 01 00 00       	jmpq   40310a <thread_do+0x2ce>
  402fe1:	48 8b 85 b0 fe ff ff 	mov    -0x150(%rbp),%rax
  402fe8:	48 8b 80 a0 00 00 00 	mov    0xa0(%rax),%rax
  402fef:	48 89 c7             	mov    %rax,%rdi
  402ff2:	e8 20 05 00 00       	callq  403517 <bsem_wait>
  402ff7:	8b 05 8f 82 00 00    	mov    0x828f(%rip),%eax        # 40b28c <threads_keepalive>
  402ffd:	85 c0                	test   %eax,%eax
  402fff:	0f 84 05 01 00 00    	je     40310a <thread_do+0x2ce>
  403005:	48 8b 85 b0 fe ff ff 	mov    -0x150(%rbp),%rax
  40300c:	48 83 c0 10          	add    $0x10,%rax
  403010:	48 89 c7             	mov    %rax,%rdi
  403013:	e8 a8 f7 ff ff       	callq  4027c0 <pthread_mutex_lock@plt>
  403018:	48 8b 85 b0 fe ff ff 	mov    -0x150(%rbp),%rax
  40301f:	8b 40 0c             	mov    0xc(%rax),%eax
  403022:	8d 50 01             	lea    0x1(%rax),%edx
  403025:	48 8b 85 b0 fe ff ff 	mov    -0x150(%rbp),%rax
  40302c:	89 50 0c             	mov    %edx,0xc(%rax)
  40302f:	48 8b 85 b0 fe ff ff 	mov    -0x150(%rbp),%rax
  403036:	48 83 c0 10          	add    $0x10,%rax
  40303a:	48 89 c7             	mov    %rax,%rdi
  40303d:	e8 6e f6 ff ff       	callq  4026b0 <pthread_mutex_unlock@plt>
  403042:	48 8b 85 b0 fe ff ff 	mov    -0x150(%rbp),%rax
  403049:	48 83 c0 68          	add    $0x68,%rax
  40304d:	48 89 c7             	mov    %rax,%rdi
  403050:	e8 c5 02 00 00       	callq  40331a <jobqueue_pull>
  403055:	48 89 85 b8 fe ff ff 	mov    %rax,-0x148(%rbp)
  40305c:	48 83 bd b8 fe ff ff 	cmpq   $0x0,-0x148(%rbp)
  403063:	00 
  403064:	74 46                	je     4030ac <thread_do+0x270>
  403066:	48 8b 85 b8 fe ff ff 	mov    -0x148(%rbp),%rax
  40306d:	48 8b 40 08          	mov    0x8(%rax),%rax
  403071:	48 89 85 c0 fe ff ff 	mov    %rax,-0x140(%rbp)
  403078:	48 8b 85 b8 fe ff ff 	mov    -0x148(%rbp),%rax
  40307f:	48 8b 40 10          	mov    0x10(%rax),%rax
  403083:	48 89 85 c8 fe ff ff 	mov    %rax,-0x138(%rbp)
  40308a:	48 8b 85 c8 fe ff ff 	mov    -0x138(%rbp),%rax
  403091:	48 8b 95 c0 fe ff ff 	mov    -0x140(%rbp),%rdx
  403098:	48 89 c7             	mov    %rax,%rdi
  40309b:	ff d2                	callq  *%rdx
  40309d:	48 8b 85 b8 fe ff ff 	mov    -0x148(%rbp),%rax
  4030a4:	48 89 c7             	mov    %rax,%rdi
  4030a7:	e8 64 f3 ff ff       	callq  402410 <free@plt>
  4030ac:	48 8b 85 b0 fe ff ff 	mov    -0x150(%rbp),%rax
  4030b3:	48 83 c0 10          	add    $0x10,%rax
  4030b7:	48 89 c7             	mov    %rax,%rdi
  4030ba:	e8 01 f7 ff ff       	callq  4027c0 <pthread_mutex_lock@plt>
  4030bf:	48 8b 85 b0 fe ff ff 	mov    -0x150(%rbp),%rax
  4030c6:	8b 40 0c             	mov    0xc(%rax),%eax
  4030c9:	8d 50 ff             	lea    -0x1(%rax),%edx
  4030cc:	48 8b 85 b0 fe ff ff 	mov    -0x150(%rbp),%rax
  4030d3:	89 50 0c             	mov    %edx,0xc(%rax)
  4030d6:	48 8b 85 b0 fe ff ff 	mov    -0x150(%rbp),%rax
  4030dd:	8b 40 0c             	mov    0xc(%rax),%eax
  4030e0:	85 c0                	test   %eax,%eax
  4030e2:	75 13                	jne    4030f7 <thread_do+0x2bb>
  4030e4:	48 8b 85 b0 fe ff ff 	mov    -0x150(%rbp),%rax
  4030eb:	48 83 c0 38          	add    $0x38,%rax
  4030ef:	48 89 c7             	mov    %rax,%rdi
  4030f2:	e8 09 f5 ff ff       	callq  402600 <pthread_cond_signal@plt>
  4030f7:	48 8b 85 b0 fe ff ff 	mov    -0x150(%rbp),%rax
  4030fe:	48 83 c0 10          	add    $0x10,%rax
  403102:	48 89 c7             	mov    %rax,%rdi
  403105:	e8 a6 f5 ff ff       	callq  4026b0 <pthread_mutex_unlock@plt>
  40310a:	8b 05 7c 81 00 00    	mov    0x817c(%rip),%eax        # 40b28c <threads_keepalive>
  403110:	85 c0                	test   %eax,%eax
  403112:	0f 85 c9 fe ff ff    	jne    402fe1 <thread_do+0x1a5>
  403118:	48 8b 85 b0 fe ff ff 	mov    -0x150(%rbp),%rax
  40311f:	48 83 c0 10          	add    $0x10,%rax
  403123:	48 89 c7             	mov    %rax,%rdi
  403126:	e8 95 f6 ff ff       	callq  4027c0 <pthread_mutex_lock@plt>
  40312b:	48 8b 85 b0 fe ff ff 	mov    -0x150(%rbp),%rax
  403132:	8b 40 08             	mov    0x8(%rax),%eax
  403135:	8d 50 ff             	lea    -0x1(%rax),%edx
  403138:	48 8b 85 b0 fe ff ff 	mov    -0x150(%rbp),%rax
  40313f:	89 50 08             	mov    %edx,0x8(%rax)
  403142:	48 8b 85 b0 fe ff ff 	mov    -0x150(%rbp),%rax
  403149:	48 83 c0 10          	add    $0x10,%rax
  40314d:	48 89 c7             	mov    %rax,%rdi
  403150:	e8 5b f5 ff ff       	callq  4026b0 <pthread_mutex_unlock@plt>
  403155:	b8 00 00 00 00       	mov    $0x0,%eax
  40315a:	48 8b 4d f8          	mov    -0x8(%rbp),%rcx
  40315e:	64 48 33 0c 25 28 00 	xor    %fs:0x28,%rcx
  403165:	00 00 
  403167:	74 05                	je     40316e <thread_do+0x332>
  403169:	e8 a2 f3 ff ff       	callq  402510 <__stack_chk_fail@plt>
  40316e:	c9                   	leaveq 
  40316f:	c3                   	retq   

0000000000403170 <thread_destroy>:
  403170:	f3 0f 1e fa          	endbr64 
  403174:	55                   	push   %rbp
  403175:	48 89 e5             	mov    %rsp,%rbp
  403178:	48 83 ec 10          	sub    $0x10,%rsp
  40317c:	48 89 7d f8          	mov    %rdi,-0x8(%rbp)
  403180:	48 8b 45 f8          	mov    -0x8(%rbp),%rax
  403184:	48 89 c7             	mov    %rax,%rdi
  403187:	e8 84 f2 ff ff       	callq  402410 <free@plt>
  40318c:	90                   	nop
  40318d:	c9                   	leaveq 
  40318e:	c3                   	retq   

000000000040318f <jobqueue_init>:
  40318f:	f3 0f 1e fa          	endbr64 
  403193:	55                   	push   %rbp
  403194:	48 89 e5             	mov    %rsp,%rbp
  403197:	48 83 ec 10          	sub    $0x10,%rsp
  40319b:	48 89 7d f8          	mov    %rdi,-0x8(%rbp)
  40319f:	48 8b 45 f8          	mov    -0x8(%rbp),%rax
  4031a3:	c7 40 40 00 00 00 00 	movl   $0x0,0x40(%rax)
  4031aa:	48 8b 45 f8          	mov    -0x8(%rbp),%rax
  4031ae:	48 c7 40 28 00 00 00 	movq   $0x0,0x28(%rax)
  4031b5:	00 
  4031b6:	48 8b 45 f8          	mov    -0x8(%rbp),%rax
  4031ba:	48 c7 40 30 00 00 00 	movq   $0x0,0x30(%rax)
  4031c1:	00 
  4031c2:	bf 60 00 00 00       	mov    $0x60,%edi
  4031c7:	e8 f4 f4 ff ff       	callq  4026c0 <malloc@plt>
  4031cc:	48 89 c2             	mov    %rax,%rdx
  4031cf:	48 8b 45 f8          	mov    -0x8(%rbp),%rax
  4031d3:	48 89 50 38          	mov    %rdx,0x38(%rax)
  4031d7:	48 8b 45 f8          	mov    -0x8(%rbp),%rax
  4031db:	48 8b 40 38          	mov    0x38(%rax),%rax
  4031df:	48 85 c0             	test   %rax,%rax
  4031e2:	75 07                	jne    4031eb <jobqueue_init+0x5c>
  4031e4:	b8 ff ff ff ff       	mov    $0xffffffff,%eax
  4031e9:	eb 2b                	jmp    403216 <jobqueue_init+0x87>
  4031eb:	48 8b 45 f8          	mov    -0x8(%rbp),%rax
  4031ef:	be 00 00 00 00       	mov    $0x0,%esi
  4031f4:	48 89 c7             	mov    %rax,%rdi
  4031f7:	e8 b4 f5 ff ff       	callq  4027b0 <pthread_mutex_init@plt>
  4031fc:	48 8b 45 f8          	mov    -0x8(%rbp),%rax
  403200:	48 8b 40 38          	mov    0x38(%rax),%rax
  403204:	be 00 00 00 00       	mov    $0x0,%esi
  403209:	48 89 c7             	mov    %rax,%rdi
  40320c:	e8 da 01 00 00       	callq  4033eb <bsem_init>
  403211:	b8 00 00 00 00       	mov    $0x0,%eax
  403216:	c9                   	leaveq 
  403217:	c3                   	retq   

0000000000403218 <jobqueue_clear>:
  403218:	f3 0f 1e fa          	endbr64 
  40321c:	55                   	push   %rbp
  40321d:	48 89 e5             	mov    %rsp,%rbp
  403220:	48 83 ec 10          	sub    $0x10,%rsp
  403224:	48 89 7d f8          	mov    %rdi,-0x8(%rbp)
  403228:	eb 14                	jmp    40323e <jobqueue_clear+0x26>
  40322a:	48 8b 45 f8          	mov    -0x8(%rbp),%rax
  40322e:	48 89 c7             	mov    %rax,%rdi
  403231:	e8 e4 00 00 00       	callq  40331a <jobqueue_pull>
  403236:	48 89 c7             	mov    %rax,%rdi
  403239:	e8 d2 f1 ff ff       	callq  402410 <free@plt>
  40323e:	48 8b 45 f8          	mov    -0x8(%rbp),%rax
  403242:	8b 40 40             	mov    0x40(%rax),%eax
  403245:	85 c0                	test   %eax,%eax
  403247:	75 e1                	jne    40322a <jobqueue_clear+0x12>
  403249:	48 8b 45 f8          	mov    -0x8(%rbp),%rax
  40324d:	48 c7 40 28 00 00 00 	movq   $0x0,0x28(%rax)
  403254:	00 
  403255:	48 8b 45 f8          	mov    -0x8(%rbp),%rax
  403259:	48 c7 40 30 00 00 00 	movq   $0x0,0x30(%rax)
  403260:	00 
  403261:	48 8b 45 f8          	mov    -0x8(%rbp),%rax
  403265:	48 8b 40 38          	mov    0x38(%rax),%rax
  403269:	48 89 c7             	mov    %rax,%rdi
  40326c:	e8 f6 01 00 00       	callq  403467 <bsem_reset>
  403271:	48 8b 45 f8          	mov    -0x8(%rbp),%rax
  403275:	c7 40 40 00 00 00 00 	movl   $0x0,0x40(%rax)
  40327c:	90                   	nop
  40327d:	c9                   	leaveq 
  40327e:	c3                   	retq   

000000000040327f <jobqueue_push>:
  40327f:	f3 0f 1e fa          	endbr64 
  403283:	55                   	push   %rbp
  403284:	48 89 e5             	mov    %rsp,%rbp
  403287:	48 83 ec 10          	sub    $0x10,%rsp
  40328b:	48 89 7d f8          	mov    %rdi,-0x8(%rbp)
  40328f:	48 89 75 f0          	mov    %rsi,-0x10(%rbp)
  403293:	48 8b 45 f8          	mov    -0x8(%rbp),%rax
  403297:	48 89 c7             	mov    %rax,%rdi
  40329a:	e8 21 f5 ff ff       	callq  4027c0 <pthread_mutex_lock@plt>
  40329f:	48 8b 45 f0          	mov    -0x10(%rbp),%rax
  4032a3:	48 c7 00 00 00 00 00 	movq   $0x0,(%rax)
  4032aa:	48 8b 45 f8          	mov    -0x8(%rbp),%rax
  4032ae:	8b 40 40             	mov    0x40(%rax),%eax
  4032b1:	85 c0                	test   %eax,%eax
  4032b3:	75 1a                	jne    4032cf <jobqueue_push+0x50>
  4032b5:	48 8b 45 f8          	mov    -0x8(%rbp),%rax
  4032b9:	48 8b 55 f0          	mov    -0x10(%rbp),%rdx
  4032bd:	48 89 50 28          	mov    %rdx,0x28(%rax)
  4032c1:	48 8b 45 f8          	mov    -0x8(%rbp),%rax
  4032c5:	48 8b 55 f0          	mov    -0x10(%rbp),%rdx
  4032c9:	48 89 50 30          	mov    %rdx,0x30(%rax)
  4032cd:	eb 1b                	jmp    4032ea <jobqueue_push+0x6b>
  4032cf:	48 8b 45 f8          	mov    -0x8(%rbp),%rax
  4032d3:	48 8b 40 30          	mov    0x30(%rax),%rax
  4032d7:	48 8b 55 f0          	mov    -0x10(%rbp),%rdx
  4032db:	48 89 10             	mov    %rdx,(%rax)
  4032de:	48 8b 45 f8          	mov    -0x8(%rbp),%rax
  4032e2:	48 8b 55 f0          	mov    -0x10(%rbp),%rdx
  4032e6:	48 89 50 30          	mov    %rdx,0x30(%rax)
  4032ea:	48 8b 45 f8          	mov    -0x8(%rbp),%rax
  4032ee:	8b 40 40             	mov    0x40(%rax),%eax
  4032f1:	8d 50 01             	lea    0x1(%rax),%edx
  4032f4:	48 8b 45 f8          	mov    -0x8(%rbp),%rax
  4032f8:	89 50 40             	mov    %edx,0x40(%rax)
  4032fb:	48 8b 45 f8          	mov    -0x8(%rbp),%rax
  4032ff:	48 8b 40 38          	mov    0x38(%rax),%rax
  403303:	48 89 c7             	mov    %rax,%rdi
  403306:	e8 80 01 00 00       	callq  40348b <bsem_post>
  40330b:	48 8b 45 f8          	mov    -0x8(%rbp),%rax
  40330f:	48 89 c7             	mov    %rax,%rdi
  403312:	e8 99 f3 ff ff       	callq  4026b0 <pthread_mutex_unlock@plt>
  403317:	90                   	nop
  403318:	c9                   	leaveq 
  403319:	c3                   	retq   

000000000040331a <jobqueue_pull>:
  40331a:	f3 0f 1e fa          	endbr64 
  40331e:	55                   	push   %rbp
  40331f:	48 89 e5             	mov    %rsp,%rbp
  403322:	48 83 ec 20          	sub    $0x20,%rsp
  403326:	48 89 7d e8          	mov    %rdi,-0x18(%rbp)
  40332a:	48 8b 45 e8          	mov    -0x18(%rbp),%rax
  40332e:	48 89 c7             	mov    %rax,%rdi
  403331:	e8 8a f4 ff ff       	callq  4027c0 <pthread_mutex_lock@plt>
  403336:	48 8b 45 e8          	mov    -0x18(%rbp),%rax
  40333a:	48 8b 40 28          	mov    0x28(%rax),%rax
  40333e:	48 89 45 f8          	mov    %rax,-0x8(%rbp)
  403342:	48 8b 45 e8          	mov    -0x18(%rbp),%rax
  403346:	8b 40 40             	mov    0x40(%rax),%eax
  403349:	85 c0                	test   %eax,%eax
  40334b:	74 5c                	je     4033a9 <jobqueue_pull+0x8f>
  40334d:	83 f8 01             	cmp    $0x1,%eax
  403350:	75 25                	jne    403377 <jobqueue_pull+0x5d>
  403352:	48 8b 45 e8          	mov    -0x18(%rbp),%rax
  403356:	48 c7 40 28 00 00 00 	movq   $0x0,0x28(%rax)
  40335d:	00 
  40335e:	48 8b 45 e8          	mov    -0x18(%rbp),%rax
  403362:	48 c7 40 30 00 00 00 	movq   $0x0,0x30(%rax)
  403369:	00 
  40336a:	48 8b 45 e8          	mov    -0x18(%rbp),%rax
  40336e:	c7 40 40 00 00 00 00 	movl   $0x0,0x40(%rax)
  403375:	eb 33                	jmp    4033aa <jobqueue_pull+0x90>
  403377:	48 8b 45 f8          	mov    -0x8(%rbp),%rax
  40337b:	48 8b 10             	mov    (%rax),%rdx
  40337e:	48 8b 45 e8          	mov    -0x18(%rbp),%rax
  403382:	48 89 50 28          	mov    %rdx,0x28(%rax)
  403386:	48 8b 45 e8          	mov    -0x18(%rbp),%rax
  40338a:	8b 40 40             	mov    0x40(%rax),%eax
  40338d:	8d 50 ff             	lea    -0x1(%rax),%edx
  403390:	48 8b 45 e8          	mov    -0x18(%rbp),%rax
  403394:	89 50 40             	mov    %edx,0x40(%rax)
  403397:	48 8b 45 e8          	mov    -0x18(%rbp),%rax
  40339b:	48 8b 40 38          	mov    0x38(%rax),%rax
  40339f:	48 89 c7             	mov    %rax,%rdi
  4033a2:	e8 e4 00 00 00       	callq  40348b <bsem_post>
  4033a7:	eb 01                	jmp    4033aa <jobqueue_pull+0x90>
  4033a9:	90                   	nop
  4033aa:	48 8b 45 e8          	mov    -0x18(%rbp),%rax
  4033ae:	48 89 c7             	mov    %rax,%rdi
  4033b1:	e8 fa f2 ff ff       	callq  4026b0 <pthread_mutex_unlock@plt>
  4033b6:	48 8b 45 f8          	mov    -0x8(%rbp),%rax
  4033ba:	c9                   	leaveq 
  4033bb:	c3                   	retq   

00000000004033bc <jobqueue_destroy>:
  4033bc:	f3 0f 1e fa          	endbr64 
  4033c0:	55                   	push   %rbp
  4033c1:	48 89 e5             	mov    %rsp,%rbp
  4033c4:	48 83 ec 10          	sub    $0x10,%rsp
  4033c8:	48 89 7d f8          	mov    %rdi,-0x8(%rbp)
  4033cc:	48 8b 45 f8          	mov    -0x8(%rbp),%rax
  4033d0:	48 89 c7             	mov    %rax,%rdi
  4033d3:	e8 40 fe ff ff       	callq  403218 <jobqueue_clear>
  4033d8:	48 8b 45 f8          	mov    -0x8(%rbp),%rax
  4033dc:	48 8b 40 38          	mov    0x38(%rax),%rax
  4033e0:	48 89 c7             	mov    %rax,%rdi
  4033e3:	e8 28 f0 ff ff       	callq  402410 <free@plt>
  4033e8:	90                   	nop
  4033e9:	c9                   	leaveq 
  4033ea:	c3                   	retq   

00000000004033eb <bsem_init>:
  4033eb:	f3 0f 1e fa          	endbr64 
  4033ef:	55                   	push   %rbp
  4033f0:	48 89 e5             	mov    %rsp,%rbp
  4033f3:	48 83 ec 10          	sub    $0x10,%rsp
  4033f7:	48 89 7d f8          	mov    %rdi,-0x8(%rbp)
  4033fb:	89 75 f4             	mov    %esi,-0xc(%rbp)
  4033fe:	83 7d f4 00          	cmpl   $0x0,-0xc(%rbp)
  403402:	78 06                	js     40340a <bsem_init+0x1f>
  403404:	83 7d f4 01          	cmpl   $0x1,-0xc(%rbp)
  403408:	7e 2a                	jle    403434 <bsem_init+0x49>
  40340a:	48 8b 05 6f 7e 00 00 	mov    0x7e6f(%rip),%rax        # 40b280 <stderr@@GLIBC_2.2.5>
  403411:	48 89 c1             	mov    %rax,%rcx
  403414:	ba 39 00 00 00       	mov    $0x39,%edx
  403419:	be 01 00 00 00       	mov    $0x1,%esi
  40341e:	48 8d 3d 43 4d 00 00 	lea    0x4d43(%rip),%rdi        # 408168 <_IO_stdin_used+0x168>
  403425:	e8 66 f3 ff ff       	callq  402790 <fwrite@plt>
  40342a:	bf 01 00 00 00       	mov    $0x1,%edi
  40342f:	e8 4c f3 ff ff       	callq  402780 <exit@plt>
  403434:	48 8b 45 f8          	mov    -0x8(%rbp),%rax
  403438:	be 00 00 00 00       	mov    $0x0,%esi
  40343d:	48 89 c7             	mov    %rax,%rdi
  403440:	e8 6b f3 ff ff       	callq  4027b0 <pthread_mutex_init@plt>
  403445:	48 8b 45 f8          	mov    -0x8(%rbp),%rax
  403449:	48 83 c0 28          	add    $0x28,%rax
  40344d:	be 00 00 00 00       	mov    $0x0,%esi
  403452:	48 89 c7             	mov    %rax,%rdi
  403455:	e8 46 f2 ff ff       	callq  4026a0 <pthread_cond_init@plt>
  40345a:	48 8b 45 f8          	mov    -0x8(%rbp),%rax
  40345e:	8b 55 f4             	mov    -0xc(%rbp),%edx
  403461:	89 50 58             	mov    %edx,0x58(%rax)
  403464:	90                   	nop
  403465:	c9                   	leaveq 
  403466:	c3                   	retq   

0000000000403467 <bsem_reset>:
  403467:	f3 0f 1e fa          	endbr64 
  40346b:	55                   	push   %rbp
  40346c:	48 89 e5             	mov    %rsp,%rbp
  40346f:	48 83 ec 10          	sub    $0x10,%rsp
  403473:	48 89 7d f8          	mov    %rdi,-0x8(%rbp)
  403477:	48 8b 45 f8          	mov    -0x8(%rbp),%rax
  40347b:	be 00 00 00 00       	mov    $0x0,%esi
  403480:	48 89 c7             	mov    %rax,%rdi
  403483:	e8 63 ff ff ff       	callq  4033eb <bsem_init>
  403488:	90                   	nop
  403489:	c9                   	leaveq 
  40348a:	c3                   	retq   

000000000040348b <bsem_post>:
  40348b:	f3 0f 1e fa          	endbr64 
  40348f:	55                   	push   %rbp
  403490:	48 89 e5             	mov    %rsp,%rbp
  403493:	48 83 ec 10          	sub    $0x10,%rsp
  403497:	48 89 7d f8          	mov    %rdi,-0x8(%rbp)
  40349b:	48 8b 45 f8          	mov    -0x8(%rbp),%rax
  40349f:	48 89 c7             	mov    %rax,%rdi
  4034a2:	e8 19 f3 ff ff       	callq  4027c0 <pthread_mutex_lock@plt>
  4034a7:	48 8b 45 f8          	mov    -0x8(%rbp),%rax
  4034ab:	c7 40 58 01 00 00 00 	movl   $0x1,0x58(%rax)
  4034b2:	48 8b 45 f8          	mov    -0x8(%rbp),%rax
  4034b6:	48 83 c0 28          	add    $0x28,%rax
  4034ba:	48 89 c7             	mov    %rax,%rdi
  4034bd:	e8 3e f1 ff ff       	callq  402600 <pthread_cond_signal@plt>
  4034c2:	48 8b 45 f8          	mov    -0x8(%rbp),%rax
  4034c6:	48 89 c7             	mov    %rax,%rdi
  4034c9:	e8 e2 f1 ff ff       	callq  4026b0 <pthread_mutex_unlock@plt>
  4034ce:	90                   	nop
  4034cf:	c9                   	leaveq 
  4034d0:	c3                   	retq   

00000000004034d1 <bsem_post_all>:
  4034d1:	f3 0f 1e fa          	endbr64 
  4034d5:	55                   	push   %rbp
  4034d6:	48 89 e5             	mov    %rsp,%rbp
  4034d9:	48 83 ec 10          	sub    $0x10,%rsp
  4034dd:	48 89 7d f8          	mov    %rdi,-0x8(%rbp)
  4034e1:	48 8b 45 f8          	mov    -0x8(%rbp),%rax
  4034e5:	48 89 c7             	mov    %rax,%rdi
  4034e8:	e8 d3 f2 ff ff       	callq  4027c0 <pthread_mutex_lock@plt>
  4034ed:	48 8b 45 f8          	mov    -0x8(%rbp),%rax
  4034f1:	c7 40 58 01 00 00 00 	movl   $0x1,0x58(%rax)
  4034f8:	48 8b 45 f8          	mov    -0x8(%rbp),%rax
  4034fc:	48 83 c0 28          	add    $0x28,%rax
  403500:	48 89 c7             	mov    %rax,%rdi
  403503:	e8 78 ef ff ff       	callq  402480 <pthread_cond_broadcast@plt>
  403508:	48 8b 45 f8          	mov    -0x8(%rbp),%rax
  40350c:	48 89 c7             	mov    %rax,%rdi
  40350f:	e8 9c f1 ff ff       	callq  4026b0 <pthread_mutex_unlock@plt>
  403514:	90                   	nop
  403515:	c9                   	leaveq 
  403516:	c3                   	retq   

0000000000403517 <bsem_wait>:
  403517:	f3 0f 1e fa          	endbr64 
  40351b:	55                   	push   %rbp
  40351c:	48 89 e5             	mov    %rsp,%rbp
  40351f:	48 83 ec 10          	sub    $0x10,%rsp
  403523:	48 89 7d f8          	mov    %rdi,-0x8(%rbp)
  403527:	48 8b 45 f8          	mov    -0x8(%rbp),%rax
  40352b:	48 89 c7             	mov    %rax,%rdi
  40352e:	e8 8d f2 ff ff       	callq  4027c0 <pthread_mutex_lock@plt>
  403533:	eb 17                	jmp    40354c <bsem_wait+0x35>
  403535:	48 8b 45 f8          	mov    -0x8(%rbp),%rax
  403539:	48 8b 55 f8          	mov    -0x8(%rbp),%rdx
  40353d:	48 83 c2 28          	add    $0x28,%rdx
  403541:	48 89 c6             	mov    %rax,%rsi
  403544:	48 89 d7             	mov    %rdx,%rdi
  403547:	e8 94 ef ff ff       	callq  4024e0 <pthread_cond_wait@plt>
  40354c:	48 8b 45 f8          	mov    -0x8(%rbp),%rax
  403550:	8b 40 58             	mov    0x58(%rax),%eax
  403553:	83 f8 01             	cmp    $0x1,%eax
  403556:	75 dd                	jne    403535 <bsem_wait+0x1e>
  403558:	48 8b 45 f8          	mov    -0x8(%rbp),%rax
  40355c:	c7 40 58 00 00 00 00 	movl   $0x0,0x58(%rax)
  403563:	48 8b 45 f8          	mov    -0x8(%rbp),%rax
  403567:	48 89 c7             	mov    %rax,%rdi
  40356a:	e8 41 f1 ff ff       	callq  4026b0 <pthread_mutex_unlock@plt>
  40356f:	90                   	nop
  403570:	c9                   	leaveq 
  403571:	c3                   	retq   

0000000000403572 <escapeshellarg>:
  403572:	f3 0f 1e fa          	endbr64 
  403576:	55                   	push   %rbp
  403577:	48 89 e5             	mov    %rsp,%rbp
  40357a:	48 83 ec 30          	sub    $0x30,%rsp
  40357e:	48 89 7d d8          	mov    %rdi,-0x28(%rbp)
  403582:	48 c7 45 e8 00 00 00 	movq   $0x0,-0x18(%rbp)
  403589:	00 
  40358a:	48 8b 45 d8          	mov    -0x28(%rbp),%rax
  40358e:	48 89 c7             	mov    %rax,%rdi
  403591:	e8 6a ef ff ff       	callq  402500 <strlen@plt>
  403596:	48 89 45 f0          	mov    %rax,-0x10(%rbp)
  40359a:	48 8b 45 f0          	mov    -0x10(%rbp),%rax
  40359e:	48 c1 e0 02          	shl    $0x2,%rax
  4035a2:	48 89 c7             	mov    %rax,%rdi
  4035a5:	e8 16 f1 ff ff       	callq  4026c0 <malloc@plt>
  4035aa:	48 89 45 f8          	mov    %rax,-0x8(%rbp)
  4035ae:	48 8b 45 e8          	mov    -0x18(%rbp),%rax
  4035b2:	48 8d 50 01          	lea    0x1(%rax),%rdx
  4035b6:	48 89 55 e8          	mov    %rdx,-0x18(%rbp)
  4035ba:	48 8b 55 f8          	mov    -0x8(%rbp),%rdx
  4035be:	48 01 d0             	add    %rdx,%rax
  4035c1:	c6 00 27             	movb   $0x27,(%rax)
  4035c4:	48 c7 45 e0 00 00 00 	movq   $0x0,-0x20(%rbp)
  4035cb:	00 
  4035cc:	e9 81 00 00 00       	jmpq   403652 <escapeshellarg+0xe0>
  4035d1:	48 8b 55 d8          	mov    -0x28(%rbp),%rdx
  4035d5:	48 8b 45 e0          	mov    -0x20(%rbp),%rax
  4035d9:	48 01 d0             	add    %rdx,%rax
  4035dc:	0f b6 00             	movzbl (%rax),%eax
  4035df:	0f be c0             	movsbl %al,%eax
  4035e2:	83 f8 27             	cmp    $0x27,%eax
  4035e5:	75 42                	jne    403629 <escapeshellarg+0xb7>
  4035e7:	48 8b 45 e8          	mov    -0x18(%rbp),%rax
  4035eb:	48 8d 50 01          	lea    0x1(%rax),%rdx
  4035ef:	48 89 55 e8          	mov    %rdx,-0x18(%rbp)
  4035f3:	48 8b 55 f8          	mov    -0x8(%rbp),%rdx
  4035f7:	48 01 d0             	add    %rdx,%rax
  4035fa:	c6 00 27             	movb   $0x27,(%rax)
  4035fd:	48 8b 45 e8          	mov    -0x18(%rbp),%rax
  403601:	48 8d 50 01          	lea    0x1(%rax),%rdx
  403605:	48 89 55 e8          	mov    %rdx,-0x18(%rbp)
  403609:	48 8b 55 f8          	mov    -0x8(%rbp),%rdx
  40360d:	48 01 d0             	add    %rdx,%rax
  403610:	c6 00 5c             	movb   $0x5c,(%rax)
  403613:	48 8b 45 e8          	mov    -0x18(%rbp),%rax
  403617:	48 8d 50 01          	lea    0x1(%rax),%rdx
  40361b:	48 89 55 e8          	mov    %rdx,-0x18(%rbp)
  40361f:	48 8b 55 f8          	mov    -0x8(%rbp),%rdx
  403623:	48 01 d0             	add    %rdx,%rax
  403626:	c6 00 27             	movb   $0x27,(%rax)
  403629:	48 8b 55 d8          	mov    -0x28(%rbp),%rdx
  40362d:	48 8b 45 e0          	mov    -0x20(%rbp),%rax
  403631:	48 8d 0c 02          	lea    (%rdx,%rax,1),%rcx
  403635:	48 8b 45 e8          	mov    -0x18(%rbp),%rax
  403639:	48 8d 50 01          	lea    0x1(%rax),%rdx
  40363d:	48 89 55 e8          	mov    %rdx,-0x18(%rbp)
  403641:	48 8b 55 f8          	mov    -0x8(%rbp),%rdx
  403645:	48 01 c2             	add    %rax,%rdx
  403648:	0f b6 01             	movzbl (%rcx),%eax
  40364b:	88 02                	mov    %al,(%rdx)
  40364d:	48 83 45 e0 01       	addq   $0x1,-0x20(%rbp)
  403652:	48 8b 45 e0          	mov    -0x20(%rbp),%rax
  403656:	48 3b 45 f0          	cmp    -0x10(%rbp),%rax
  40365a:	0f 82 71 ff ff ff    	jb     4035d1 <escapeshellarg+0x5f>
  403660:	48 8b 45 e8          	mov    -0x18(%rbp),%rax
  403664:	48 8d 50 01          	lea    0x1(%rax),%rdx
  403668:	48 89 55 e8          	mov    %rdx,-0x18(%rbp)
  40366c:	48 8b 55 f8          	mov    -0x8(%rbp),%rdx
  403670:	48 01 d0             	add    %rdx,%rax
  403673:	c6 00 27             	movb   $0x27,(%rax)
  403676:	48 8b 55 f8          	mov    -0x8(%rbp),%rdx
  40367a:	48 8b 45 e8          	mov    -0x18(%rbp),%rax
  40367e:	48 01 d0             	add    %rdx,%rax
  403681:	c6 00 00             	movb   $0x0,(%rax)
  403684:	48 8b 45 f8          	mov    -0x8(%rbp),%rax
  403688:	c9                   	leaveq 
  403689:	c3                   	retq   

000000000040368a <ip_read_conv>:
  40368a:	f3 0f 1e fa          	endbr64 
  40368e:	55                   	push   %rbp
  40368f:	48 89 e5             	mov    %rsp,%rbp
  403692:	48 83 ec 30          	sub    $0x30,%rsp
  403696:	48 89 7d d8          	mov    %rdi,-0x28(%rbp)
  40369a:	64 48 8b 04 25 28 00 	mov    %fs:0x28,%rax
  4036a1:	00 00 
  4036a3:	48 89 45 f8          	mov    %rax,-0x8(%rbp)
  4036a7:	31 c0                	xor    %eax,%eax
  4036a9:	c7 45 f0 00 00 00 00 	movl   $0x0,-0x10(%rbp)
  4036b0:	c6 45 ee 00          	movb   $0x0,-0x12(%rbp)
  4036b4:	c6 45 ef 00          	movb   $0x0,-0x11(%rbp)
  4036b8:	c7 45 f4 00 00 00 00 	movl   $0x0,-0xc(%rbp)
  4036bf:	eb 5a                	jmp    40371b <ip_read_conv+0x91>
  4036c1:	0f b6 4d ee          	movzbl -0x12(%rbp),%ecx
  4036c5:	48 8b 45 d8          	mov    -0x28(%rbp),%rax
  4036c9:	0f b6 10             	movzbl (%rax),%edx
  4036cc:	48 63 c1             	movslq %ecx,%rax
  4036cf:	88 54 05 f4          	mov    %dl,-0xc(%rbp,%rax,1)
  4036d3:	48 83 45 d8 01       	addq   $0x1,-0x28(%rbp)
  4036d8:	0f b6 45 ee          	movzbl -0x12(%rbp),%eax
  4036dc:	83 c0 01             	add    $0x1,%eax
  4036df:	88 45 ee             	mov    %al,-0x12(%rbp)
  4036e2:	80 7d ee 03          	cmpb   $0x3,-0x12(%rbp)
  4036e6:	74 0b                	je     4036f3 <ip_read_conv+0x69>
  4036e8:	48 8b 45 d8          	mov    -0x28(%rbp),%rax
  4036ec:	0f b6 00             	movzbl (%rax),%eax
  4036ef:	3c 2e                	cmp    $0x2e,%al
  4036f1:	75 28                	jne    40371b <ip_read_conv+0x91>
  4036f3:	c6 45 ee 00          	movb   $0x0,-0x12(%rbp)
  4036f7:	48 8d 45 f4          	lea    -0xc(%rbp),%rax
  4036fb:	48 89 c7             	mov    %rax,%rdi
  4036fe:	e8 5d f0 ff ff       	callq  402760 <atoi@plt>
  403703:	89 c2                	mov    %eax,%edx
  403705:	0f b6 45 ef          	movzbl -0x11(%rbp),%eax
  403709:	89 c1                	mov    %eax,%ecx
  40370b:	d3 e2                	shl    %cl,%edx
  40370d:	89 d0                	mov    %edx,%eax
  40370f:	09 45 f0             	or     %eax,-0x10(%rbp)
  403712:	80 45 ef 08          	addb   $0x8,-0x11(%rbp)
  403716:	48 83 45 d8 01       	addq   $0x1,-0x28(%rbp)
  40371b:	48 8b 45 d8          	mov    -0x28(%rbp),%rax
  40371f:	0f b6 00             	movzbl (%rax),%eax
  403722:	84 c0                	test   %al,%al
  403724:	74 0b                	je     403731 <ip_read_conv+0xa7>
  403726:	48 8b 45 d8          	mov    -0x28(%rbp),%rax
  40372a:	0f b6 00             	movzbl (%rax),%eax
  40372d:	3c 2f                	cmp    $0x2f,%al
  40372f:	75 90                	jne    4036c1 <ip_read_conv+0x37>
  403731:	80 7d ef 1f          	cmpb   $0x1f,-0x11(%rbp)
  403735:	77 1b                	ja     403752 <ip_read_conv+0xc8>
  403737:	48 8d 45 f4          	lea    -0xc(%rbp),%rax
  40373b:	48 89 c7             	mov    %rax,%rdi
  40373e:	e8 1d f0 ff ff       	callq  402760 <atoi@plt>
  403743:	89 c2                	mov    %eax,%edx
  403745:	0f b6 45 ef          	movzbl -0x11(%rbp),%eax
  403749:	89 c1                	mov    %eax,%ecx
  40374b:	d3 e2                	shl    %cl,%edx
  40374d:	89 d0                	mov    %edx,%eax
  40374f:	09 45 f0             	or     %eax,-0x10(%rbp)
  403752:	8b 45 f0             	mov    -0x10(%rbp),%eax
  403755:	48 8b 75 f8          	mov    -0x8(%rbp),%rsi
  403759:	64 48 33 34 25 28 00 	xor    %fs:0x28,%rsi
  403760:	00 00 
  403762:	74 05                	je     403769 <ip_read_conv+0xdf>
  403764:	e8 a7 ed ff ff       	callq  402510 <__stack_chk_fail@plt>
  403769:	c9                   	leaveq 
  40376a:	c3                   	retq   

000000000040376b <argv_parser>:
  40376b:	f3 0f 1e fa          	endbr64 
  40376f:	55                   	push   %rbp
  403770:	48 89 e5             	mov    %rsp,%rbp
  403773:	48 83 ec 20          	sub    $0x20,%rsp
  403777:	48 89 7d f8          	mov    %rdi,-0x8(%rbp)
  40377b:	89 75 f4             	mov    %esi,-0xc(%rbp)
  40377e:	48 89 55 e8          	mov    %rdx,-0x18(%rbp)
  403782:	48 89 4d e0          	mov    %rcx,-0x20(%rbp)
  403786:	83 7d f4 01          	cmpl   $0x1,-0xc(%rbp)
  40378a:	75 19                	jne    4037a5 <argv_parser+0x3a>
  40378c:	48 8b 45 e8          	mov    -0x18(%rbp),%rax
  403790:	48 8b 00             	mov    (%rax),%rax
  403793:	48 89 c7             	mov    %rax,%rdi
  403796:	e8 d8 07 00 00       	callq  403f73 <show_help_command>
  40379b:	b8 00 00 00 00       	mov    $0x0,%eax
  4037a0:	e9 42 01 00 00       	jmpq   4038e7 <argv_parser+0x17c>
  4037a5:	48 8b 45 e8          	mov    -0x18(%rbp),%rax
  4037a9:	48 83 c0 08          	add    $0x8,%rax
  4037ad:	48 8b 00             	mov    (%rax),%rax
  4037b0:	48 8d 35 69 4a 00 00 	lea    0x4a69(%rip),%rsi        # 408220 <_IO_stdin_used+0x220>
  4037b7:	48 89 c7             	mov    %rax,%rdi
  4037ba:	e8 61 ee ff ff       	callq  402620 <strcmp@plt>
  4037bf:	85 c0                	test   %eax,%eax
  4037c1:	75 38                	jne    4037fb <argv_parser+0x90>
  4037c3:	48 8b 45 f8          	mov    -0x8(%rbp),%rax
  4037c7:	c7 40 40 00 00 00 00 	movl   $0x0,0x40(%rax)
  4037ce:	48 8b 45 e8          	mov    -0x18(%rbp),%rax
  4037d2:	48 8d 48 08          	lea    0x8(%rax),%rcx
  4037d6:	8b 45 f4             	mov    -0xc(%rbp),%eax
  4037d9:	8d 50 ff             	lea    -0x1(%rax),%edx
  4037dc:	48 8b 75 f8          	mov    -0x8(%rbp),%rsi
  4037e0:	48 8b 45 e8          	mov    -0x18(%rbp),%rax
  4037e4:	48 8b 00             	mov    (%rax),%rax
  4037e7:	48 8b 7d e0          	mov    -0x20(%rbp),%rdi
  4037eb:	49 89 f8             	mov    %rdi,%r8
  4037ee:	48 89 c7             	mov    %rax,%rdi
  4037f1:	e8 f3 00 00 00       	callq  4038e9 <server_argv_parser>
  4037f6:	e9 ec 00 00 00       	jmpq   4038e7 <argv_parser+0x17c>
  4037fb:	48 8b 45 e8          	mov    -0x18(%rbp),%rax
  4037ff:	48 83 c0 08          	add    $0x8,%rax
  403803:	48 8b 00             	mov    (%rax),%rax
  403806:	48 8d 35 1a 4a 00 00 	lea    0x4a1a(%rip),%rsi        # 408227 <_IO_stdin_used+0x227>
  40380d:	48 89 c7             	mov    %rax,%rdi
  403810:	e8 0b ee ff ff       	callq  402620 <strcmp@plt>
  403815:	85 c0                	test   %eax,%eax
  403817:	75 38                	jne    403851 <argv_parser+0xe6>
  403819:	48 8b 45 f8          	mov    -0x8(%rbp),%rax
  40381d:	c7 40 40 01 00 00 00 	movl   $0x1,0x40(%rax)
  403824:	48 8b 45 e8          	mov    -0x18(%rbp),%rax
  403828:	48 8d 48 08          	lea    0x8(%rax),%rcx
  40382c:	8b 45 f4             	mov    -0xc(%rbp),%eax
  40382f:	8d 50 ff             	lea    -0x1(%rax),%edx
  403832:	48 8b 75 f8          	mov    -0x8(%rbp),%rsi
  403836:	48 8b 45 e8          	mov    -0x18(%rbp),%rax
  40383a:	48 8b 00             	mov    (%rax),%rax
  40383d:	48 8b 7d e0          	mov    -0x20(%rbp),%rdi
  403841:	49 89 f8             	mov    %rdi,%r8
  403844:	48 89 c7             	mov    %rax,%rdi
  403847:	e8 ed 03 00 00       	callq  403c39 <client_argv_parser>
  40384c:	e9 96 00 00 00       	jmpq   4038e7 <argv_parser+0x17c>
  403851:	48 8b 45 e8          	mov    -0x18(%rbp),%rax
  403855:	48 83 c0 08          	add    $0x8,%rax
  403859:	48 8b 00             	mov    (%rax),%rax
  40385c:	48 8d 35 cc 49 00 00 	lea    0x49cc(%rip),%rsi        # 40822f <_IO_stdin_used+0x22f>
  403863:	48 89 c7             	mov    %rax,%rdi
  403866:	e8 b5 ed ff ff       	callq  402620 <strcmp@plt>
  40386b:	85 c0                	test   %eax,%eax
  40386d:	74 3c                	je     4038ab <argv_parser+0x140>
  40386f:	48 8b 45 e8          	mov    -0x18(%rbp),%rax
  403873:	48 83 c0 08          	add    $0x8,%rax
  403877:	48 8b 00             	mov    (%rax),%rax
  40387a:	48 8d 35 b5 49 00 00 	lea    0x49b5(%rip),%rsi        # 408236 <_IO_stdin_used+0x236>
  403881:	48 89 c7             	mov    %rax,%rdi
  403884:	e8 97 ed ff ff       	callq  402620 <strcmp@plt>
  403889:	85 c0                	test   %eax,%eax
  40388b:	74 1e                	je     4038ab <argv_parser+0x140>
  40388d:	48 8b 45 e8          	mov    -0x18(%rbp),%rax
  403891:	48 83 c0 08          	add    $0x8,%rax
  403895:	48 8b 00             	mov    (%rax),%rax
  403898:	48 8d 35 61 49 00 00 	lea    0x4961(%rip),%rsi        # 408200 <_IO_stdin_used+0x200>
  40389f:	48 89 c7             	mov    %rax,%rdi
  4038a2:	e8 79 ed ff ff       	callq  402620 <strcmp@plt>
  4038a7:	85 c0                	test   %eax,%eax
  4038a9:	75 11                	jne    4038bc <argv_parser+0x151>
  4038ab:	48 8b 45 e8          	mov    -0x18(%rbp),%rax
  4038af:	48 8b 00             	mov    (%rax),%rax
  4038b2:	48 89 c7             	mov    %rax,%rdi
  4038b5:	e8 b9 06 00 00       	callq  403f73 <show_help_command>
  4038ba:	eb 26                	jmp    4038e2 <argv_parser+0x177>
  4038bc:	48 8b 45 e8          	mov    -0x18(%rbp),%rax
  4038c0:	48 8b 10             	mov    (%rax),%rdx
  4038c3:	48 8b 45 e8          	mov    -0x18(%rbp),%rax
  4038c7:	48 83 c0 08          	add    $0x8,%rax
  4038cb:	48 8b 00             	mov    (%rax),%rax
  4038ce:	48 89 c6             	mov    %rax,%rsi
  4038d1:	48 8d 3d 68 49 00 00 	lea    0x4968(%rip),%rdi        # 408240 <_IO_stdin_used+0x240>
  4038d8:	b8 00 00 00 00       	mov    $0x0,%eax
  4038dd:	e8 7e ec ff ff       	callq  402560 <printf@plt>
  4038e2:	b8 00 00 00 00       	mov    $0x0,%eax
  4038e7:	c9                   	leaveq 
  4038e8:	c3                   	retq   

00000000004038e9 <server_argv_parser>:
  4038e9:	f3 0f 1e fa          	endbr64 
  4038ed:	55                   	push   %rbp
  4038ee:	48 89 e5             	mov    %rsp,%rbp
  4038f1:	48 83 ec 40          	sub    $0x40,%rsp
  4038f5:	48 89 7d e8          	mov    %rdi,-0x18(%rbp)
  4038f9:	48 89 75 e0          	mov    %rsi,-0x20(%rbp)
  4038fd:	89 55 dc             	mov    %edx,-0x24(%rbp)
  403900:	48 89 4d d0          	mov    %rcx,-0x30(%rbp)
  403904:	4c 89 45 c8          	mov    %r8,-0x38(%rbp)
  403908:	64 48 8b 04 25 28 00 	mov    %fs:0x28,%rax
  40390f:	00 00 
  403911:	48 89 45 f8          	mov    %rax,-0x8(%rbp)
  403915:	31 c0                	xor    %eax,%eax
  403917:	48 8b 45 e0          	mov    -0x20(%rbp),%rax
  40391b:	48 8d 15 f6 78 00 00 	lea    0x78f6(%rip),%rdx        # 40b218 <bind_any_addr>
  403922:	48 89 10             	mov    %rdx,(%rax)
  403925:	48 8b 45 e0          	mov    -0x20(%rbp),%rax
  403929:	66 c7 40 3a 03 d9    	movw   $0xd903,0x3a(%rax)
  40392f:	48 8b 45 e0          	mov    -0x20(%rbp),%rax
  403933:	c6 40 3d 08          	movb   $0x8,0x3d(%rax)
  403937:	48 8b 45 e0          	mov    -0x20(%rbp),%rax
  40393b:	c6 40 3c 00          	movb   $0x0,0x3c(%rax)
  40393f:	48 8b 45 e0          	mov    -0x20(%rbp),%rax
  403943:	48 c7 40 10 00 00 00 	movq   $0x0,0x10(%rax)
  40394a:	00 
  40394b:	48 8b 45 e0          	mov    -0x20(%rbp),%rax
  40394f:	48 c7 40 08 00 00 00 	movq   $0x0,0x8(%rax)
  403956:	00 
  403957:	48 8b 45 e0          	mov    -0x20(%rbp),%rax
  40395b:	66 c7 40 38 dc 05    	movw   $0x5dc,0x38(%rax)
  403961:	48 8b 45 e0          	mov    -0x20(%rbp),%rax
  403965:	48 c7 40 18 00 00 00 	movq   $0x0,0x18(%rax)
  40396c:	00 
  40396d:	48 8b 45 e0          	mov    -0x20(%rbp),%rax
  403971:	48 8d 15 b0 78 00 00 	lea    0x78b0(%rip),%rdx        # 40b228 <default_inet4>
  403978:	48 89 50 28          	mov    %rdx,0x28(%rax)
  40397c:	48 8b 45 e0          	mov    -0x20(%rbp),%rax
  403980:	48 8d 15 b1 78 00 00 	lea    0x78b1(%rip),%rdx        # 40b238 <default_inet4_broadcast>
  403987:	48 89 50 30          	mov    %rdx,0x30(%rax)
  40398b:	48 8b 45 e0          	mov    -0x20(%rbp),%rax
  40398f:	48 8d 15 8a 78 00 00 	lea    0x788a(%rip),%rdx        # 40b220 <default_dev_name>
  403996:	48 89 50 20          	mov    %rdx,0x20(%rax)
  40399a:	c7 45 f0 00 00 00 00 	movl   $0x0,-0x10(%rbp)
  4039a1:	48 8d 55 f0          	lea    -0x10(%rbp),%rdx
  4039a5:	48 8b 75 d0          	mov    -0x30(%rbp),%rsi
  4039a9:	8b 45 dc             	mov    -0x24(%rbp),%eax
  4039ac:	49 89 d0             	mov    %rdx,%r8
  4039af:	48 8d 0d 4a 71 00 00 	lea    0x714a(%rip),%rcx        # 40ab00 <server_options>
  4039b6:	48 8d 15 b1 48 00 00 	lea    0x48b1(%rip),%rdx        # 40826e <_IO_stdin_used+0x26e>
  4039bd:	89 c7                	mov    %eax,%edi
  4039bf:	e8 5c eb ff ff       	callq  402520 <getopt_long@plt>
  4039c4:	89 45 f4             	mov    %eax,-0xc(%rbp)
  4039c7:	83 7d f4 ff          	cmpl   $0xffffffff,-0xc(%rbp)
  4039cb:	0f 84 86 01 00 00    	je     403b57 <server_argv_parser+0x26e>
  4039d1:	83 7d f4 76          	cmpl   $0x76,-0xc(%rbp)
  4039d5:	0f 8f 4d 01 00 00    	jg     403b28 <server_argv_parser+0x23f>
  4039db:	83 7d f4 63          	cmpl   $0x63,-0xc(%rbp)
  4039df:	7d 41                	jge    403a22 <server_argv_parser+0x139>
  4039e1:	83 7d f4 0a          	cmpl   $0xa,-0xc(%rbp)
  4039e5:	0f 84 2f 01 00 00    	je     403b1a <server_argv_parser+0x231>
  4039eb:	83 7d f4 0a          	cmpl   $0xa,-0xc(%rbp)
  4039ef:	0f 8f 33 01 00 00    	jg     403b28 <server_argv_parser+0x23f>
  4039f5:	83 7d f4 03          	cmpl   $0x3,-0xc(%rbp)
  4039f9:	0f 84 0a 01 00 00    	je     403b09 <server_argv_parser+0x220>
  4039ff:	83 7d f4 03          	cmpl   $0x3,-0xc(%rbp)
  403a03:	0f 8f 1f 01 00 00    	jg     403b28 <server_argv_parser+0x23f>
  403a09:	83 7d f4 01          	cmpl   $0x1,-0xc(%rbp)
  403a0d:	0f 84 cb 00 00 00    	je     403ade <server_argv_parser+0x1f5>
  403a13:	83 7d f4 02          	cmpl   $0x2,-0xc(%rbp)
  403a17:	0f 84 d2 00 00 00    	je     403aef <server_argv_parser+0x206>
  403a1d:	e9 06 01 00 00       	jmpq   403b28 <server_argv_parser+0x23f>
  403a22:	8b 45 f4             	mov    -0xc(%rbp),%eax
  403a25:	83 e8 63             	sub    $0x63,%eax
  403a28:	83 f8 13             	cmp    $0x13,%eax
  403a2b:	0f 87 f7 00 00 00    	ja     403b28 <server_argv_parser+0x23f>
  403a31:	89 c0                	mov    %eax,%eax
  403a33:	48 8d 14 85 00 00 00 	lea    0x0(,%rax,4),%rdx
  403a3a:	00 
  403a3b:	48 8d 05 e2 48 00 00 	lea    0x48e2(%rip),%rax        # 408324 <_IO_stdin_used+0x324>
  403a42:	8b 04 02             	mov    (%rdx,%rax,1),%eax
  403a45:	48 98                	cltq   
  403a47:	48 8d 15 d6 48 00 00 	lea    0x48d6(%rip),%rdx        # 408324 <_IO_stdin_used+0x324>
  403a4e:	48 01 d0             	add    %rdx,%rax
  403a51:	3e ff e0             	notrack jmpq *%rax
  403a54:	48 8b 15 0d 78 00 00 	mov    0x780d(%rip),%rdx        # 40b268 <optarg@@GLIBC_2.2.5>
  403a5b:	48 8b 45 e0          	mov    -0x20(%rbp),%rax
  403a5f:	48 89 10             	mov    %rdx,(%rax)
  403a62:	e9 eb 00 00 00       	jmpq   403b52 <server_argv_parser+0x269>
  403a67:	48 8b 05 fa 77 00 00 	mov    0x77fa(%rip),%rax        # 40b268 <optarg@@GLIBC_2.2.5>
  403a6e:	48 89 c7             	mov    %rax,%rdi
  403a71:	e8 ea ec ff ff       	callq  402760 <atoi@plt>
  403a76:	89 c2                	mov    %eax,%edx
  403a78:	48 8b 45 e0          	mov    -0x20(%rbp),%rax
  403a7c:	66 89 50 3a          	mov    %dx,0x3a(%rax)
  403a80:	e9 cd 00 00 00       	jmpq   403b52 <server_argv_parser+0x269>
  403a85:	48 8b 05 dc 77 00 00 	mov    0x77dc(%rip),%rax        # 40b268 <optarg@@GLIBC_2.2.5>
  403a8c:	48 89 c7             	mov    %rax,%rdi
  403a8f:	e8 cc ec ff ff       	callq  402760 <atoi@plt>
  403a94:	89 c2                	mov    %eax,%edx
  403a96:	48 8b 45 e0          	mov    -0x20(%rbp),%rax
  403a9a:	88 50 3d             	mov    %dl,0x3d(%rax)
  403a9d:	e9 b0 00 00 00       	jmpq   403b52 <server_argv_parser+0x269>
  403aa2:	48 8b 45 e0          	mov    -0x20(%rbp),%rax
  403aa6:	0f b6 40 3c          	movzbl 0x3c(%rax),%eax
  403aaa:	8d 50 01             	lea    0x1(%rax),%edx
  403aad:	48 8b 45 e0          	mov    -0x20(%rbp),%rax
  403ab1:	88 50 3c             	mov    %dl,0x3c(%rax)
  403ab4:	e9 99 00 00 00       	jmpq   403b52 <server_argv_parser+0x269>
  403ab9:	48 8b 15 a8 77 00 00 	mov    0x77a8(%rip),%rdx        # 40b268 <optarg@@GLIBC_2.2.5>
  403ac0:	48 8b 45 e0          	mov    -0x20(%rbp),%rax
  403ac4:	48 89 50 08          	mov    %rdx,0x8(%rax)
  403ac8:	e9 85 00 00 00       	jmpq   403b52 <server_argv_parser+0x269>
  403acd:	48 8b 15 94 77 00 00 	mov    0x7794(%rip),%rdx        # 40b268 <optarg@@GLIBC_2.2.5>
  403ad4:	48 8b 45 e0          	mov    -0x20(%rbp),%rax
  403ad8:	48 89 50 18          	mov    %rdx,0x18(%rax)
  403adc:	eb 74                	jmp    403b52 <server_argv_parser+0x269>
  403ade:	48 8b 15 83 77 00 00 	mov    0x7783(%rip),%rdx        # 40b268 <optarg@@GLIBC_2.2.5>
  403ae5:	48 8b 45 e0          	mov    -0x20(%rbp),%rax
  403ae9:	48 89 50 10          	mov    %rdx,0x10(%rax)
  403aed:	eb 63                	jmp    403b52 <server_argv_parser+0x269>
  403aef:	48 8b 05 72 77 00 00 	mov    0x7772(%rip),%rax        # 40b268 <optarg@@GLIBC_2.2.5>
  403af6:	48 89 c7             	mov    %rax,%rdi
  403af9:	e8 62 ec ff ff       	callq  402760 <atoi@plt>
  403afe:	89 c2                	mov    %eax,%edx
  403b00:	48 8b 45 e0          	mov    -0x20(%rbp),%rax
  403b04:	88 50 3c             	mov    %dl,0x3c(%rax)
  403b07:	eb 49                	jmp    403b52 <server_argv_parser+0x269>
  403b09:	48 8b 15 58 77 00 00 	mov    0x7758(%rip),%rdx        # 40b268 <optarg@@GLIBC_2.2.5>
  403b10:	48 8b 45 e0          	mov    -0x20(%rbp),%rax
  403b14:	48 89 50 20          	mov    %rdx,0x20(%rax)
  403b18:	eb 38                	jmp    403b52 <server_argv_parser+0x269>
  403b1a:	48 8b 45 e8          	mov    -0x18(%rbp),%rax
  403b1e:	48 89 c7             	mov    %rax,%rdi
  403b21:	e8 c3 04 00 00       	callq  403fe9 <show_help_server>
  403b26:	eb 2a                	jmp    403b52 <server_argv_parser+0x269>
  403b28:	48 8b 05 51 77 00 00 	mov    0x7751(%rip),%rax        # 40b280 <stderr@@GLIBC_2.2.5>
  403b2f:	48 89 c1             	mov    %rax,%rcx
  403b32:	ba 31 00 00 00       	mov    $0x31,%edx
  403b37:	be 01 00 00 00       	mov    $0x1,%esi
  403b3c:	48 8d 3d 3d 47 00 00 	lea    0x473d(%rip),%rdi        # 408280 <_IO_stdin_used+0x280>
  403b43:	e8 48 ec ff ff       	callq  402790 <fwrite@plt>
  403b48:	b8 00 00 00 00       	mov    $0x0,%eax
  403b4d:	e9 d1 00 00 00       	jmpq   403c23 <server_argv_parser+0x33a>
  403b52:	e9 43 fe ff ff       	jmpq   40399a <server_argv_parser+0xb1>
  403b57:	90                   	nop
  403b58:	48 8d 3d 53 47 00 00 	lea    0x4753(%rip),%rdi        # 4082b2 <_IO_stdin_used+0x2b2>
  403b5f:	e8 2c e9 ff ff       	callq  402490 <puts@plt>
  403b64:	48 8b 45 e0          	mov    -0x20(%rbp),%rax
  403b68:	48 8b 00             	mov    (%rax),%rax
  403b6b:	48 89 c6             	mov    %rax,%rsi
  403b6e:	48 8d 3d 4e 47 00 00 	lea    0x474e(%rip),%rdi        # 4082c3 <_IO_stdin_used+0x2c3>
  403b75:	b8 00 00 00 00       	mov    $0x0,%eax
  403b7a:	e8 e1 e9 ff ff       	callq  402560 <printf@plt>
  403b7f:	48 8b 45 e0          	mov    -0x20(%rbp),%rax
  403b83:	0f b7 40 3a          	movzwl 0x3a(%rax),%eax
  403b87:	0f b7 c0             	movzwl %ax,%eax
  403b8a:	89 c6                	mov    %eax,%esi
  403b8c:	48 8d 3d 3f 47 00 00 	lea    0x473f(%rip),%rdi        # 4082d2 <_IO_stdin_used+0x2d2>
  403b93:	b8 00 00 00 00       	mov    $0x0,%eax
  403b98:	e8 c3 e9 ff ff       	callq  402560 <printf@plt>
  403b9d:	48 8b 45 e0          	mov    -0x20(%rbp),%rax
  403ba1:	0f b6 40 3d          	movzbl 0x3d(%rax),%eax
  403ba5:	0f b6 c0             	movzbl %al,%eax
  403ba8:	89 c6                	mov    %eax,%esi
  403baa:	48 8d 3d 30 47 00 00 	lea    0x4730(%rip),%rdi        # 4082e1 <_IO_stdin_used+0x2e1>
  403bb1:	b8 00 00 00 00       	mov    $0x0,%eax
  403bb6:	e8 a5 e9 ff ff       	callq  402560 <printf@plt>
  403bbb:	48 8b 45 e0          	mov    -0x20(%rbp),%rax
  403bbf:	48 8b 40 10          	mov    0x10(%rax),%rax
  403bc3:	48 89 c6             	mov    %rax,%rsi
  403bc6:	48 8d 3d 21 47 00 00 	lea    0x4721(%rip),%rdi        # 4082ee <_IO_stdin_used+0x2ee>
  403bcd:	b8 00 00 00 00       	mov    $0x0,%eax
  403bd2:	e8 89 e9 ff ff       	callq  402560 <printf@plt>
  403bd7:	48 8b 45 e0          	mov    -0x20(%rbp),%rax
  403bdb:	48 8b 40 20          	mov    0x20(%rax),%rax
  403bdf:	48 89 c6             	mov    %rax,%rsi
  403be2:	48 8d 3d 19 47 00 00 	lea    0x4719(%rip),%rdi        # 408302 <_IO_stdin_used+0x302>
  403be9:	b8 00 00 00 00       	mov    $0x0,%eax
  403bee:	e8 6d e9 ff ff       	callq  402560 <printf@plt>
  403bf3:	48 8b 45 e0          	mov    -0x20(%rbp),%rax
  403bf7:	48 8b 40 08          	mov    0x8(%rax),%rax
  403bfb:	48 89 c6             	mov    %rax,%rsi
  403bfe:	48 8d 3d 0b 47 00 00 	lea    0x470b(%rip),%rdi        # 408310 <_IO_stdin_used+0x310>
  403c05:	b8 00 00 00 00       	mov    $0x0,%eax
  403c0a:	e8 51 e9 ff ff       	callq  402560 <printf@plt>
  403c0f:	48 8b 05 4a 76 00 00 	mov    0x764a(%rip),%rax        # 40b260 <stdout@@GLIBC_2.2.5>
  403c16:	48 89 c7             	mov    %rax,%rdi
  403c19:	e8 b2 ea ff ff       	callq  4026d0 <fflush@plt>
  403c1e:	b8 01 00 00 00       	mov    $0x1,%eax
  403c23:	48 8b 4d f8          	mov    -0x8(%rbp),%rcx
  403c27:	64 48 33 0c 25 28 00 	xor    %fs:0x28,%rcx
  403c2e:	00 00 
  403c30:	74 05                	je     403c37 <server_argv_parser+0x34e>
  403c32:	e8 d9 e8 ff ff       	callq  402510 <__stack_chk_fail@plt>
  403c37:	c9                   	leaveq 
  403c38:	c3                   	retq   

0000000000403c39 <client_argv_parser>:
  403c39:	f3 0f 1e fa          	endbr64 
  403c3d:	55                   	push   %rbp
  403c3e:	48 89 e5             	mov    %rsp,%rbp
  403c41:	48 83 ec 40          	sub    $0x40,%rsp
  403c45:	48 89 7d e8          	mov    %rdi,-0x18(%rbp)
  403c49:	48 89 75 e0          	mov    %rsi,-0x20(%rbp)
  403c4d:	89 55 dc             	mov    %edx,-0x24(%rbp)
  403c50:	48 89 4d d0          	mov    %rcx,-0x30(%rbp)
  403c54:	4c 89 45 c8          	mov    %r8,-0x38(%rbp)
  403c58:	64 48 8b 04 25 28 00 	mov    %fs:0x28,%rax
  403c5f:	00 00 
  403c61:	48 89 45 f8          	mov    %rax,-0x8(%rbp)
  403c65:	31 c0                	xor    %eax,%eax
  403c67:	48 8b 45 e0          	mov    -0x20(%rbp),%rax
  403c6b:	48 c7 00 00 00 00 00 	movq   $0x0,(%rax)
  403c72:	48 8b 45 e0          	mov    -0x20(%rbp),%rax
  403c76:	66 c7 40 3a 03 d9    	movw   $0xd903,0x3a(%rax)
  403c7c:	48 8b 45 e0          	mov    -0x20(%rbp),%rax
  403c80:	c6 40 3c 00          	movb   $0x0,0x3c(%rax)
  403c84:	48 8b 45 e0          	mov    -0x20(%rbp),%rax
  403c88:	48 c7 40 10 00 00 00 	movq   $0x0,0x10(%rax)
  403c8f:	00 
  403c90:	48 8b 45 e0          	mov    -0x20(%rbp),%rax
  403c94:	48 c7 40 08 00 00 00 	movq   $0x0,0x8(%rax)
  403c9b:	00 
  403c9c:	48 8b 45 e0          	mov    -0x20(%rbp),%rax
  403ca0:	66 c7 40 20 dc 05    	movw   $0x5dc,0x20(%rax)
  403ca6:	48 8b 45 e0          	mov    -0x20(%rbp),%rax
  403caa:	48 8d 15 6f 75 00 00 	lea    0x756f(%rip),%rdx        # 40b220 <default_dev_name>
  403cb1:	48 89 50 18          	mov    %rdx,0x18(%rax)
  403cb5:	c7 45 f0 00 00 00 00 	movl   $0x0,-0x10(%rbp)
  403cbc:	48 8d 55 f0          	lea    -0x10(%rbp),%rdx
  403cc0:	48 8b 75 d0          	mov    -0x30(%rbp),%rsi
  403cc4:	8b 45 dc             	mov    -0x24(%rbp),%eax
  403cc7:	49 89 d0             	mov    %rdx,%r8
  403cca:	48 8d 0d af 6f 00 00 	lea    0x6faf(%rip),%rcx        # 40ac80 <client_options>
  403cd1:	48 8d 15 9c 46 00 00 	lea    0x469c(%rip),%rdx        # 408374 <_IO_stdin_used+0x374>
  403cd8:	89 c7                	mov    %eax,%edi
  403cda:	e8 41 e8 ff ff       	callq  402520 <getopt_long@plt>
  403cdf:	89 45 f4             	mov    %eax,-0xc(%rbp)
  403ce2:	83 7d f4 ff          	cmpl   $0xffffffff,-0xc(%rbp)
  403ce6:	0f 84 c3 01 00 00    	je     403eaf <client_argv_parser+0x276>
  403cec:	83 7d f4 76          	cmpl   $0x76,-0xc(%rbp)
  403cf0:	0f 8f 8a 01 00 00    	jg     403e80 <client_argv_parser+0x247>
  403cf6:	83 7d f4 50          	cmpl   $0x50,-0xc(%rbp)
  403cfa:	7d 41                	jge    403d3d <client_argv_parser+0x104>
  403cfc:	83 7d f4 0a          	cmpl   $0xa,-0xc(%rbp)
  403d00:	0f 84 6c 01 00 00    	je     403e72 <client_argv_parser+0x239>
  403d06:	83 7d f4 0a          	cmpl   $0xa,-0xc(%rbp)
  403d0a:	0f 8f 70 01 00 00    	jg     403e80 <client_argv_parser+0x247>
  403d10:	83 7d f4 03          	cmpl   $0x3,-0xc(%rbp)
  403d14:	0f 84 47 01 00 00    	je     403e61 <client_argv_parser+0x228>
  403d1a:	83 7d f4 03          	cmpl   $0x3,-0xc(%rbp)
  403d1e:	0f 8f 5c 01 00 00    	jg     403e80 <client_argv_parser+0x247>
  403d24:	83 7d f4 01          	cmpl   $0x1,-0xc(%rbp)
  403d28:	0f 84 08 01 00 00    	je     403e36 <client_argv_parser+0x1fd>
  403d2e:	83 7d f4 02          	cmpl   $0x2,-0xc(%rbp)
  403d32:	0f 84 0f 01 00 00    	je     403e47 <client_argv_parser+0x20e>
  403d38:	e9 43 01 00 00       	jmpq   403e80 <client_argv_parser+0x247>
  403d3d:	8b 45 f4             	mov    -0xc(%rbp),%eax
  403d40:	83 e8 50             	sub    $0x50,%eax
  403d43:	83 f8 26             	cmp    $0x26,%eax
  403d46:	0f 87 34 01 00 00    	ja     403e80 <client_argv_parser+0x247>
  403d4c:	89 c0                	mov    %eax,%eax
  403d4e:	48 8d 14 85 00 00 00 	lea    0x0(,%rax,4),%rdx
  403d55:	00 
  403d56:	48 8d 05 1f 46 00 00 	lea    0x461f(%rip),%rax        # 40837c <_IO_stdin_used+0x37c>
  403d5d:	8b 04 02             	mov    (%rdx,%rax,1),%eax
  403d60:	48 98                	cltq   
  403d62:	48 8d 15 13 46 00 00 	lea    0x4613(%rip),%rdx        # 40837c <_IO_stdin_used+0x37c>
  403d69:	48 01 d0             	add    %rdx,%rax
  403d6c:	3e ff e0             	notrack jmpq *%rax
  403d6f:	48 8b 15 f2 74 00 00 	mov    0x74f2(%rip),%rdx        # 40b268 <optarg@@GLIBC_2.2.5>
  403d76:	48 8b 45 e0          	mov    -0x20(%rbp),%rax
  403d7a:	48 89 10             	mov    %rdx,(%rax)
  403d7d:	e9 28 01 00 00       	jmpq   403eaa <client_argv_parser+0x271>
  403d82:	48 8b 05 df 74 00 00 	mov    0x74df(%rip),%rax        # 40b268 <optarg@@GLIBC_2.2.5>
  403d89:	48 89 c7             	mov    %rax,%rdi
  403d8c:	e8 cf e9 ff ff       	callq  402760 <atoi@plt>
  403d91:	89 c2                	mov    %eax,%edx
  403d93:	48 8b 45 e0          	mov    -0x20(%rbp),%rax
  403d97:	66 89 50 3a          	mov    %dx,0x3a(%rax)
  403d9b:	e9 0a 01 00 00       	jmpq   403eaa <client_argv_parser+0x271>
  403da0:	48 8b 45 e0          	mov    -0x20(%rbp),%rax
  403da4:	0f b6 40 3c          	movzbl 0x3c(%rax),%eax
  403da8:	8d 50 01             	lea    0x1(%rax),%edx
  403dab:	48 8b 45 e0          	mov    -0x20(%rbp),%rax
  403daf:	88 50 3c             	mov    %dl,0x3c(%rax)
  403db2:	e9 f3 00 00 00       	jmpq   403eaa <client_argv_parser+0x271>
  403db7:	48 8b 15 aa 74 00 00 	mov    0x74aa(%rip),%rdx        # 40b268 <optarg@@GLIBC_2.2.5>
  403dbe:	48 8b 45 e0          	mov    -0x20(%rbp),%rax
  403dc2:	48 89 50 08          	mov    %rdx,0x8(%rax)
  403dc6:	e9 df 00 00 00       	jmpq   403eaa <client_argv_parser+0x271>
  403dcb:	48 8b 15 96 74 00 00 	mov    0x7496(%rip),%rdx        # 40b268 <optarg@@GLIBC_2.2.5>
  403dd2:	48 8b 45 e0          	mov    -0x20(%rbp),%rax
  403dd6:	48 89 50 28          	mov    %rdx,0x28(%rax)
  403dda:	48 8b 05 87 74 00 00 	mov    0x7487(%rip),%rax        # 40b268 <optarg@@GLIBC_2.2.5>
  403de1:	48 89 c7             	mov    %rax,%rdi
  403de4:	e8 17 e7 ff ff       	callq  402500 <strlen@plt>
  403de9:	89 c2                	mov    %eax,%edx
  403deb:	48 8b 45 e0          	mov    -0x20(%rbp),%rax
  403def:	88 50 38             	mov    %dl,0x38(%rax)
  403df2:	e9 b3 00 00 00       	jmpq   403eaa <client_argv_parser+0x271>
  403df7:	48 8b 05 6a 74 00 00 	mov    0x746a(%rip),%rax        # 40b268 <optarg@@GLIBC_2.2.5>
  403dfe:	48 89 c6             	mov    %rax,%rsi
  403e01:	48 8d 3d 98 74 00 00 	lea    0x7498(%rip),%rdi        # 40b2a0 <_password.4178>
  403e08:	e8 63 e6 ff ff       	callq  402470 <strcpy@plt>
  403e0d:	48 8b 45 e0          	mov    -0x20(%rbp),%rax
  403e11:	48 8d 15 88 74 00 00 	lea    0x7488(%rip),%rdx        # 40b2a0 <_password.4178>
  403e18:	48 89 50 30          	mov    %rdx,0x30(%rax)
  403e1c:	48 8b 05 45 74 00 00 	mov    0x7445(%rip),%rax        # 40b268 <optarg@@GLIBC_2.2.5>
  403e23:	48 89 c7             	mov    %rax,%rdi
  403e26:	e8 d5 e6 ff ff       	callq  402500 <strlen@plt>
  403e2b:	89 c2                	mov    %eax,%edx
  403e2d:	48 8b 45 e0          	mov    -0x20(%rbp),%rax
  403e31:	88 50 39             	mov    %dl,0x39(%rax)
  403e34:	eb 74                	jmp    403eaa <client_argv_parser+0x271>
  403e36:	48 8b 15 2b 74 00 00 	mov    0x742b(%rip),%rdx        # 40b268 <optarg@@GLIBC_2.2.5>
  403e3d:	48 8b 45 e0          	mov    -0x20(%rbp),%rax
  403e41:	48 89 50 10          	mov    %rdx,0x10(%rax)
  403e45:	eb 63                	jmp    403eaa <client_argv_parser+0x271>
  403e47:	48 8b 05 1a 74 00 00 	mov    0x741a(%rip),%rax        # 40b268 <optarg@@GLIBC_2.2.5>
  403e4e:	48 89 c7             	mov    %rax,%rdi
  403e51:	e8 0a e9 ff ff       	callq  402760 <atoi@plt>
  403e56:	89 c2                	mov    %eax,%edx
  403e58:	48 8b 45 e0          	mov    -0x20(%rbp),%rax
  403e5c:	88 50 3c             	mov    %dl,0x3c(%rax)
  403e5f:	eb 49                	jmp    403eaa <client_argv_parser+0x271>
  403e61:	48 8b 15 00 74 00 00 	mov    0x7400(%rip),%rdx        # 40b268 <optarg@@GLIBC_2.2.5>
  403e68:	48 8b 45 e0          	mov    -0x20(%rbp),%rax
  403e6c:	48 89 50 18          	mov    %rdx,0x18(%rax)
  403e70:	eb 38                	jmp    403eaa <client_argv_parser+0x271>
  403e72:	48 8b 45 e8          	mov    -0x18(%rbp),%rax
  403e76:	48 89 c7             	mov    %rax,%rdi
  403e79:	e8 d5 01 00 00       	callq  404053 <show_help_client>
  403e7e:	eb 2a                	jmp    403eaa <client_argv_parser+0x271>
  403e80:	48 8b 05 f9 73 00 00 	mov    0x73f9(%rip),%rax        # 40b280 <stderr@@GLIBC_2.2.5>
  403e87:	48 89 c1             	mov    %rax,%rcx
  403e8a:	ba 31 00 00 00       	mov    $0x31,%edx
  403e8f:	be 01 00 00 00       	mov    $0x1,%esi
  403e94:	48 8d 3d e5 43 00 00 	lea    0x43e5(%rip),%rdi        # 408280 <_IO_stdin_used+0x280>
  403e9b:	e8 f0 e8 ff ff       	callq  402790 <fwrite@plt>
  403ea0:	b8 00 00 00 00       	mov    $0x0,%eax
  403ea5:	e9 b3 00 00 00       	jmpq   403f5d <client_argv_parser+0x324>
  403eaa:	e9 06 fe ff ff       	jmpq   403cb5 <client_argv_parser+0x7c>
  403eaf:	90                   	nop
  403eb0:	48 8d 3d fb 43 00 00 	lea    0x43fb(%rip),%rdi        # 4082b2 <_IO_stdin_used+0x2b2>
  403eb7:	e8 d4 e5 ff ff       	callq  402490 <puts@plt>
  403ebc:	48 8b 45 e0          	mov    -0x20(%rbp),%rax
  403ec0:	48 8b 00             	mov    (%rax),%rax
  403ec3:	48 89 c6             	mov    %rax,%rsi
  403ec6:	48 8d 3d f6 43 00 00 	lea    0x43f6(%rip),%rdi        # 4082c3 <_IO_stdin_used+0x2c3>
  403ecd:	b8 00 00 00 00       	mov    $0x0,%eax
  403ed2:	e8 89 e6 ff ff       	callq  402560 <printf@plt>
  403ed7:	48 8b 45 e0          	mov    -0x20(%rbp),%rax
  403edb:	0f b7 40 3a          	movzwl 0x3a(%rax),%eax
  403edf:	0f b7 c0             	movzwl %ax,%eax
  403ee2:	89 c6                	mov    %eax,%esi
  403ee4:	48 8d 3d e7 43 00 00 	lea    0x43e7(%rip),%rdi        # 4082d2 <_IO_stdin_used+0x2d2>
  403eeb:	b8 00 00 00 00       	mov    $0x0,%eax
  403ef0:	e8 6b e6 ff ff       	callq  402560 <printf@plt>
  403ef5:	48 8b 45 e0          	mov    -0x20(%rbp),%rax
  403ef9:	48 8b 40 10          	mov    0x10(%rax),%rax
  403efd:	48 89 c6             	mov    %rax,%rsi
  403f00:	48 8d 3d e7 43 00 00 	lea    0x43e7(%rip),%rdi        # 4082ee <_IO_stdin_used+0x2ee>
  403f07:	b8 00 00 00 00       	mov    $0x0,%eax
  403f0c:	e8 4f e6 ff ff       	callq  402560 <printf@plt>
  403f11:	48 8b 45 e0          	mov    -0x20(%rbp),%rax
  403f15:	48 8b 40 18          	mov    0x18(%rax),%rax
  403f19:	48 89 c6             	mov    %rax,%rsi
  403f1c:	48 8d 3d df 43 00 00 	lea    0x43df(%rip),%rdi        # 408302 <_IO_stdin_used+0x302>
  403f23:	b8 00 00 00 00       	mov    $0x0,%eax
  403f28:	e8 33 e6 ff ff       	callq  402560 <printf@plt>
  403f2d:	48 8b 45 e0          	mov    -0x20(%rbp),%rax
  403f31:	48 8b 40 08          	mov    0x8(%rax),%rax
  403f35:	48 89 c6             	mov    %rax,%rsi
  403f38:	48 8d 3d d1 43 00 00 	lea    0x43d1(%rip),%rdi        # 408310 <_IO_stdin_used+0x310>
  403f3f:	b8 00 00 00 00       	mov    $0x0,%eax
  403f44:	e8 17 e6 ff ff       	callq  402560 <printf@plt>
  403f49:	48 8b 05 10 73 00 00 	mov    0x7310(%rip),%rax        # 40b260 <stdout@@GLIBC_2.2.5>
  403f50:	48 89 c7             	mov    %rax,%rdi
  403f53:	e8 78 e7 ff ff       	callq  4026d0 <fflush@plt>
  403f58:	b8 01 00 00 00       	mov    $0x1,%eax
  403f5d:	48 8b 4d f8          	mov    -0x8(%rbp),%rcx
  403f61:	64 48 33 0c 25 28 00 	xor    %fs:0x28,%rcx
  403f68:	00 00 
  403f6a:	74 05                	je     403f71 <client_argv_parser+0x338>
  403f6c:	e8 9f e5 ff ff       	callq  402510 <__stack_chk_fail@plt>
  403f71:	c9                   	leaveq 
  403f72:	c3                   	retq   

0000000000403f73 <show_help_command>:
  403f73:	f3 0f 1e fa          	endbr64 
  403f77:	55                   	push   %rbp
  403f78:	48 89 e5             	mov    %rsp,%rbp
  403f7b:	48 83 ec 10          	sub    $0x10,%rsp
  403f7f:	48 89 7d f8          	mov    %rdi,-0x8(%rbp)
  403f83:	48 8b 45 f8          	mov    -0x8(%rbp),%rax
  403f87:	48 89 c6             	mov    %rax,%rsi
  403f8a:	48 8d 3d 87 44 00 00 	lea    0x4487(%rip),%rdi        # 408418 <_IO_stdin_used+0x418>
  403f91:	b8 00 00 00 00       	mov    $0x0,%eax
  403f96:	e8 c5 e5 ff ff       	callq  402560 <printf@plt>
  403f9b:	48 8d 3d 96 44 00 00 	lea    0x4496(%rip),%rdi        # 408438 <_IO_stdin_used+0x438>
  403fa2:	e8 e9 e4 ff ff       	callq  402490 <puts@plt>
  403fa7:	48 8d 3d 9e 44 00 00 	lea    0x449e(%rip),%rdi        # 40844c <_IO_stdin_used+0x44c>
  403fae:	e8 dd e4 ff ff       	callq  402490 <puts@plt>
  403fb3:	48 8d 3d b6 44 00 00 	lea    0x44b6(%rip),%rdi        # 408470 <_IO_stdin_used+0x470>
  403fba:	e8 d1 e4 ff ff       	callq  402490 <puts@plt>
  403fbf:	48 8b 45 f8          	mov    -0x8(%rbp),%rax
  403fc3:	48 89 c6             	mov    %rax,%rsi
  403fc6:	48 8d 3d cb 44 00 00 	lea    0x44cb(%rip),%rdi        # 408498 <_IO_stdin_used+0x498>
  403fcd:	b8 00 00 00 00       	mov    $0x0,%eax
  403fd2:	e8 89 e5 ff ff       	callq  402560 <printf@plt>
  403fd7:	48 8b 05 82 72 00 00 	mov    0x7282(%rip),%rax        # 40b260 <stdout@@GLIBC_2.2.5>
  403fde:	48 89 c7             	mov    %rax,%rdi
  403fe1:	e8 ea e6 ff ff       	callq  4026d0 <fflush@plt>
  403fe6:	90                   	nop
  403fe7:	c9                   	leaveq 
  403fe8:	c3                   	retq   

0000000000403fe9 <show_help_server>:
  403fe9:	f3 0f 1e fa          	endbr64 
  403fed:	55                   	push   %rbp
  403fee:	48 89 e5             	mov    %rsp,%rbp
  403ff1:	48 83 ec 10          	sub    $0x10,%rsp
  403ff5:	48 89 7d f8          	mov    %rdi,-0x8(%rbp)
  403ff9:	48 8b 45 f8          	mov    -0x8(%rbp),%rax
  403ffd:	48 89 c6             	mov    %rax,%rsi
  404000:	48 8d 3d bd 44 00 00 	lea    0x44bd(%rip),%rdi        # 4084c4 <_IO_stdin_used+0x4c4>
  404007:	b8 00 00 00 00       	mov    $0x0,%eax
  40400c:	e8 4f e5 ff ff       	callq  402560 <printf@plt>
  404011:	48 8d 3d c9 44 00 00 	lea    0x44c9(%rip),%rdi        # 4084e1 <_IO_stdin_used+0x4e1>
  404018:	e8 73 e4 ff ff       	callq  402490 <puts@plt>
  40401d:	48 8d 3d d4 44 00 00 	lea    0x44d4(%rip),%rdi        # 4084f8 <_IO_stdin_used+0x4f8>
  404024:	e8 67 e4 ff ff       	callq  402490 <puts@plt>
  404029:	48 8d 3d 00 45 00 00 	lea    0x4500(%rip),%rdi        # 408530 <_IO_stdin_used+0x530>
  404030:	e8 5b e4 ff ff       	callq  402490 <puts@plt>
  404035:	48 8d 3d 24 45 00 00 	lea    0x4524(%rip),%rdi        # 408560 <_IO_stdin_used+0x560>
  40403c:	e8 4f e4 ff ff       	callq  402490 <puts@plt>
  404041:	48 8b 05 18 72 00 00 	mov    0x7218(%rip),%rax        # 40b260 <stdout@@GLIBC_2.2.5>
  404048:	48 89 c7             	mov    %rax,%rdi
  40404b:	e8 80 e6 ff ff       	callq  4026d0 <fflush@plt>
  404050:	90                   	nop
  404051:	c9                   	leaveq 
  404052:	c3                   	retq   

0000000000404053 <show_help_client>:
  404053:	f3 0f 1e fa          	endbr64 
  404057:	55                   	push   %rbp
  404058:	48 89 e5             	mov    %rsp,%rbp
  40405b:	48 83 ec 10          	sub    $0x10,%rsp
  40405f:	48 89 7d f8          	mov    %rdi,-0x8(%rbp)
  404063:	48 8b 45 f8          	mov    -0x8(%rbp),%rax
  404067:	48 89 c6             	mov    %rax,%rsi
  40406a:	48 8d 3d 1f 45 00 00 	lea    0x451f(%rip),%rdi        # 408590 <_IO_stdin_used+0x590>
  404071:	b8 00 00 00 00       	mov    $0x0,%eax
  404076:	e8 e5 e4 ff ff       	callq  402560 <printf@plt>
  40407b:	48 8d 3d 5f 44 00 00 	lea    0x445f(%rip),%rdi        # 4084e1 <_IO_stdin_used+0x4e1>
  404082:	e8 09 e4 ff ff       	callq  402490 <puts@plt>
  404087:	48 8d 3d 22 45 00 00 	lea    0x4522(%rip),%rdi        # 4085b0 <_IO_stdin_used+0x5b0>
  40408e:	e8 fd e3 ff ff       	callq  402490 <puts@plt>
  404093:	48 8d 3d 96 44 00 00 	lea    0x4496(%rip),%rdi        # 408530 <_IO_stdin_used+0x530>
  40409a:	e8 f1 e3 ff ff       	callq  402490 <puts@plt>
  40409f:	48 8b 05 ba 71 00 00 	mov    0x71ba(%rip),%rax        # 40b260 <stdout@@GLIBC_2.2.5>
  4040a6:	48 89 c7             	mov    %rax,%rdi
  4040a9:	e8 22 e6 ff ff       	callq  4026d0 <fflush@plt>
  4040ae:	90                   	nop
  4040af:	c9                   	leaveq 
  4040b0:	c3                   	retq   

00000000004040b1 <_teavpn_send_handshake>:
  4040b1:	f3 0f 1e fa          	endbr64 
  4040b5:	55                   	push   %rbp
  4040b6:	48 89 e5             	mov    %rsp,%rbp
  4040b9:	48 83 ec 10          	sub    $0x10,%rsp
  4040bd:	89 7d fc             	mov    %edi,-0x4(%rbp)
  4040c0:	89 f0                	mov    %esi,%eax
  4040c2:	48 89 55 f0          	mov    %rdx,-0x10(%rbp)
  4040c6:	66 89 45 f8          	mov    %ax,-0x8(%rbp)
  4040ca:	48 8b 55 f0          	mov    -0x10(%rbp),%rdx
  4040ce:	48 8d 75 f8          	lea    -0x8(%rbp),%rsi
  4040d2:	8b 45 fc             	mov    -0x4(%rbp),%eax
  4040d5:	41 b9 10 00 00 00    	mov    $0x10,%r9d
  4040db:	49 89 d0             	mov    %rdx,%r8
  4040de:	b9 00 08 00 00       	mov    $0x800,%ecx
  4040e3:	ba 02 00 00 00       	mov    $0x2,%edx
  4040e8:	89 c7                	mov    %eax,%edi
  4040ea:	e8 b1 e4 ff ff       	callq  4025a0 <sendto@plt>
  4040ef:	48 83 f8 02          	cmp    $0x2,%rax
  4040f3:	0f 94 c0             	sete   %al
  4040f6:	c9                   	leaveq 
  4040f7:	c3                   	retq   

00000000004040f8 <teavpn_syn>:
  4040f8:	f3 0f 1e fa          	endbr64 
  4040fc:	55                   	push   %rbp
  4040fd:	48 89 e5             	mov    %rsp,%rbp
  404100:	48 83 ec 10          	sub    $0x10,%rsp
  404104:	89 7d fc             	mov    %edi,-0x4(%rbp)
  404107:	48 89 75 f0          	mov    %rsi,-0x10(%rbp)
  40410b:	48 8b 55 f0          	mov    -0x10(%rbp),%rdx
  40410f:	8b 45 fc             	mov    -0x4(%rbp),%eax
  404112:	be 22 22 00 00       	mov    $0x2222,%esi
  404117:	89 c7                	mov    %eax,%edi
  404119:	e8 93 ff ff ff       	callq  4040b1 <_teavpn_send_handshake>
  40411e:	c9                   	leaveq 
  40411f:	c3                   	retq   

0000000000404120 <teavpn_ack>:
  404120:	f3 0f 1e fa          	endbr64 
  404124:	55                   	push   %rbp
  404125:	48 89 e5             	mov    %rsp,%rbp
  404128:	48 83 ec 10          	sub    $0x10,%rsp
  40412c:	89 7d fc             	mov    %edi,-0x4(%rbp)
  40412f:	48 89 75 f0          	mov    %rsi,-0x10(%rbp)
  404133:	48 8b 55 f0          	mov    -0x10(%rbp),%rdx
  404137:	8b 45 fc             	mov    -0x4(%rbp),%eax
  40413a:	be 11 11 00 00       	mov    $0x1111,%esi
  40413f:	89 c7                	mov    %eax,%edi
  404141:	e8 6b ff ff ff       	callq  4040b1 <_teavpn_send_handshake>
  404146:	c9                   	leaveq 
  404147:	c3                   	retq   

0000000000404148 <teavpn_nak>:
  404148:	f3 0f 1e fa          	endbr64 
  40414c:	55                   	push   %rbp
  40414d:	48 89 e5             	mov    %rsp,%rbp
  404150:	48 83 ec 10          	sub    $0x10,%rsp
  404154:	89 7d fc             	mov    %edi,-0x4(%rbp)
  404157:	48 89 75 f0          	mov    %rsi,-0x10(%rbp)
  40415b:	48 8b 55 f0          	mov    -0x10(%rbp),%rdx
  40415f:	8b 45 fc             	mov    -0x4(%rbp),%eax
  404162:	be 33 33 00 00       	mov    $0x3333,%esi
  404167:	89 c7                	mov    %eax,%edi
  404169:	e8 43 ff ff ff       	callq  4040b1 <_teavpn_send_handshake>
  40416e:	c9                   	leaveq 
  40416f:	c3                   	retq   

0000000000404170 <teavpn_synack>:
  404170:	f3 0f 1e fa          	endbr64 
  404174:	55                   	push   %rbp
  404175:	48 89 e5             	mov    %rsp,%rbp
  404178:	48 83 ec 10          	sub    $0x10,%rsp
  40417c:	89 7d fc             	mov    %edi,-0x4(%rbp)
  40417f:	48 89 75 f0          	mov    %rsi,-0x10(%rbp)
  404183:	48 8b 55 f0          	mov    -0x10(%rbp),%rdx
  404187:	8b 45 fc             	mov    -0x4(%rbp),%eax
  40418a:	be 44 44 00 00       	mov    $0x4444,%esi
  40418f:	89 c7                	mov    %eax,%edi
  404191:	e8 1b ff ff ff       	callq  4040b1 <_teavpn_send_handshake>
  404196:	c9                   	leaveq 
  404197:	c3                   	retq   

0000000000404198 <get_handshake>:
  404198:	f3 0f 1e fa          	endbr64 
  40419c:	55                   	push   %rbp
  40419d:	48 89 e5             	mov    %rsp,%rbp
  4041a0:	48 83 ec 30          	sub    $0x30,%rsp
  4041a4:	89 7d dc             	mov    %edi,-0x24(%rbp)
  4041a7:	48 89 75 d0          	mov    %rsi,-0x30(%rbp)
  4041ab:	64 48 8b 04 25 28 00 	mov    %fs:0x28,%rax
  4041b2:	00 00 
  4041b4:	48 89 45 f8          	mov    %rax,-0x8(%rbp)
  4041b8:	31 c0                	xor    %eax,%eax
  4041ba:	48 8b 55 d0          	mov    -0x30(%rbp),%rdx
  4041be:	48 8d 75 ee          	lea    -0x12(%rbp),%rsi
  4041c2:	8b 45 dc             	mov    -0x24(%rbp),%eax
  4041c5:	4c 8d 0d 78 70 00 00 	lea    0x7078(%rip),%r9        # 40b244 <remote_len.3678>
  4041cc:	49 89 d0             	mov    %rdx,%r8
  4041cf:	b9 00 01 00 00       	mov    $0x100,%ecx
  4041d4:	ba 02 00 00 00       	mov    $0x2,%edx
  4041d9:	89 c7                	mov    %eax,%edi
  4041db:	e8 10 e5 ff ff       	callq  4026f0 <recvfrom@plt>
  4041e0:	48 89 45 f0          	mov    %rax,-0x10(%rbp)
  4041e4:	48 83 7d f0 02       	cmpq   $0x2,-0x10(%rbp)
  4041e9:	74 13                	je     4041fe <get_handshake+0x66>
  4041eb:	48 8d 3d e0 43 00 00 	lea    0x43e0(%rip),%rdi        # 4085d2 <_IO_stdin_used+0x5d2>
  4041f2:	e8 49 e5 ff ff       	callq  402740 <perror@plt>
  4041f7:	b8 00 00 00 00       	mov    $0x0,%eax
  4041fc:	eb 04                	jmp    404202 <get_handshake+0x6a>
  4041fe:	0f b7 45 ee          	movzwl -0x12(%rbp),%eax
  404202:	48 8b 4d f8          	mov    -0x8(%rbp),%rcx
  404206:	64 48 33 0c 25 28 00 	xor    %fs:0x28,%rcx
  40420d:	00 00 
  40420f:	74 05                	je     404216 <get_handshake+0x7e>
  404211:	e8 fa e2 ff ff       	callq  402510 <__stack_chk_fail@plt>
  404216:	c9                   	leaveq 
  404217:	c3                   	retq   

0000000000404218 <main>:
  404218:	f3 0f 1e fa          	endbr64 
  40421c:	55                   	push   %rbp
  40421d:	48 89 e5             	mov    %rsp,%rbp
  404220:	48 83 c4 80          	add    $0xffffffffffffff80,%rsp
  404224:	89 7d 9c             	mov    %edi,-0x64(%rbp)
  404227:	48 89 75 90          	mov    %rsi,-0x70(%rbp)
  40422b:	48 89 55 88          	mov    %rdx,-0x78(%rbp)
  40422f:	64 48 8b 04 25 28 00 	mov    %fs:0x28,%rax
  404236:	00 00 
  404238:	48 89 45 f8          	mov    %rax,-0x8(%rbp)
  40423c:	31 c0                	xor    %eax,%eax
  40423e:	48 8b 45 90          	mov    -0x70(%rbp),%rax
  404242:	48 89 05 97 71 00 00 	mov    %rax,0x7197(%rip)        # 40b3e0 <argv>
  404249:	48 8b 4d 88          	mov    -0x78(%rbp),%rcx
  40424d:	48 8b 55 90          	mov    -0x70(%rbp),%rdx
  404251:	8b 75 9c             	mov    -0x64(%rbp),%esi
  404254:	48 8d 45 b0          	lea    -0x50(%rbp),%rax
  404258:	48 89 c7             	mov    %rax,%rdi
  40425b:	e8 0b f5 ff ff       	callq  40376b <argv_parser>
  404260:	83 f0 01             	xor    $0x1,%eax
  404263:	84 c0                	test   %al,%al
  404265:	74 06                	je     40426d <main+0x55>
  404267:	c6 45 af 01          	movb   $0x1,-0x51(%rbp)
  40426b:	eb 41                	jmp    4042ae <main+0x96>
  40426d:	8b 45 f0             	mov    -0x10(%rbp),%eax
  404270:	85 c0                	test   %eax,%eax
  404272:	74 07                	je     40427b <main+0x63>
  404274:	83 f8 01             	cmp    $0x1,%eax
  404277:	74 13                	je     40428c <main+0x74>
  404279:	eb 22                	jmp    40429d <main+0x85>
  40427b:	48 8d 45 b0          	lea    -0x50(%rbp),%rax
  40427f:	48 89 c7             	mov    %rax,%rdi
  404282:	e8 a8 01 00 00       	callq  40442f <teavpn_tcp_server>
  404287:	88 45 af             	mov    %al,-0x51(%rbp)
  40428a:	eb 22                	jmp    4042ae <main+0x96>
  40428c:	48 8d 45 b0          	lea    -0x50(%rbp),%rax
  404290:	48 89 c7             	mov    %rax,%rdi
  404293:	e8 5e 2d 00 00       	callq  406ff6 <teavpn_tcp_client>
  404298:	88 45 af             	mov    %al,-0x51(%rbp)
  40429b:	eb 11                	jmp    4042ae <main+0x96>
  40429d:	48 8d 3d 48 43 00 00 	lea    0x4348(%rip),%rdi        # 4085ec <_IO_stdin_used+0x5ec>
  4042a4:	e8 e7 e1 ff ff       	callq  402490 <puts@plt>
  4042a9:	c6 45 af 01          	movb   $0x1,-0x51(%rbp)
  4042ad:	90                   	nop
  4042ae:	0f b6 45 af          	movzbl -0x51(%rbp),%eax
  4042b2:	48 8b 4d f8          	mov    -0x8(%rbp),%rcx
  4042b6:	64 48 33 0c 25 28 00 	xor    %fs:0x28,%rcx
  4042bd:	00 00 
  4042bf:	74 05                	je     4042c6 <main+0xae>
  4042c1:	e8 4a e2 ff ff       	callq  402510 <__stack_chk_fail@plt>
  4042c6:	c9                   	leaveq 
  4042c7:	c3                   	retq   

00000000004042c8 <_teavpn_send_handshake>:
  4042c8:	f3 0f 1e fa          	endbr64 
  4042cc:	55                   	push   %rbp
  4042cd:	48 89 e5             	mov    %rsp,%rbp
  4042d0:	48 83 ec 10          	sub    $0x10,%rsp
  4042d4:	89 7d fc             	mov    %edi,-0x4(%rbp)
  4042d7:	89 f0                	mov    %esi,%eax
  4042d9:	48 89 55 f0          	mov    %rdx,-0x10(%rbp)
  4042dd:	66 89 45 f8          	mov    %ax,-0x8(%rbp)
  4042e1:	48 8b 55 f0          	mov    -0x10(%rbp),%rdx
  4042e5:	48 8d 75 f8          	lea    -0x8(%rbp),%rsi
  4042e9:	8b 45 fc             	mov    -0x4(%rbp),%eax
  4042ec:	41 b9 10 00 00 00    	mov    $0x10,%r9d
  4042f2:	49 89 d0             	mov    %rdx,%r8
  4042f5:	b9 00 08 00 00       	mov    $0x800,%ecx
  4042fa:	ba 02 00 00 00       	mov    $0x2,%edx
  4042ff:	89 c7                	mov    %eax,%edi
  404301:	e8 9a e2 ff ff       	callq  4025a0 <sendto@plt>
  404306:	48 83 f8 02          	cmp    $0x2,%rax
  40430a:	0f 94 c0             	sete   %al
  40430d:	c9                   	leaveq 
  40430e:	c3                   	retq   

000000000040430f <teavpn_syn>:
  40430f:	f3 0f 1e fa          	endbr64 
  404313:	55                   	push   %rbp
  404314:	48 89 e5             	mov    %rsp,%rbp
  404317:	48 83 ec 10          	sub    $0x10,%rsp
  40431b:	89 7d fc             	mov    %edi,-0x4(%rbp)
  40431e:	48 89 75 f0          	mov    %rsi,-0x10(%rbp)
  404322:	48 8b 55 f0          	mov    -0x10(%rbp),%rdx
  404326:	8b 45 fc             	mov    -0x4(%rbp),%eax
  404329:	be 22 22 00 00       	mov    $0x2222,%esi
  40432e:	89 c7                	mov    %eax,%edi
  404330:	e8 93 ff ff ff       	callq  4042c8 <_teavpn_send_handshake>
  404335:	c9                   	leaveq 
  404336:	c3                   	retq   

0000000000404337 <teavpn_ack>:
  404337:	f3 0f 1e fa          	endbr64 
  40433b:	55                   	push   %rbp
  40433c:	48 89 e5             	mov    %rsp,%rbp
  40433f:	48 83 ec 10          	sub    $0x10,%rsp
  404343:	89 7d fc             	mov    %edi,-0x4(%rbp)
  404346:	48 89 75 f0          	mov    %rsi,-0x10(%rbp)
  40434a:	48 8b 55 f0          	mov    -0x10(%rbp),%rdx
  40434e:	8b 45 fc             	mov    -0x4(%rbp),%eax
  404351:	be 11 11 00 00       	mov    $0x1111,%esi
  404356:	89 c7                	mov    %eax,%edi
  404358:	e8 6b ff ff ff       	callq  4042c8 <_teavpn_send_handshake>
  40435d:	c9                   	leaveq 
  40435e:	c3                   	retq   

000000000040435f <teavpn_nak>:
  40435f:	f3 0f 1e fa          	endbr64 
  404363:	55                   	push   %rbp
  404364:	48 89 e5             	mov    %rsp,%rbp
  404367:	48 83 ec 10          	sub    $0x10,%rsp
  40436b:	89 7d fc             	mov    %edi,-0x4(%rbp)
  40436e:	48 89 75 f0          	mov    %rsi,-0x10(%rbp)
  404372:	48 8b 55 f0          	mov    -0x10(%rbp),%rdx
  404376:	8b 45 fc             	mov    -0x4(%rbp),%eax
  404379:	be 33 33 00 00       	mov    $0x3333,%esi
  40437e:	89 c7                	mov    %eax,%edi
  404380:	e8 43 ff ff ff       	callq  4042c8 <_teavpn_send_handshake>
  404385:	c9                   	leaveq 
  404386:	c3                   	retq   

0000000000404387 <teavpn_synack>:
  404387:	f3 0f 1e fa          	endbr64 
  40438b:	55                   	push   %rbp
  40438c:	48 89 e5             	mov    %rsp,%rbp
  40438f:	48 83 ec 10          	sub    $0x10,%rsp
  404393:	89 7d fc             	mov    %edi,-0x4(%rbp)
  404396:	48 89 75 f0          	mov    %rsi,-0x10(%rbp)
  40439a:	48 8b 55 f0          	mov    -0x10(%rbp),%rdx
  40439e:	8b 45 fc             	mov    -0x4(%rbp),%eax
  4043a1:	be 44 44 00 00       	mov    $0x4444,%esi
  4043a6:	89 c7                	mov    %eax,%edi
  4043a8:	e8 1b ff ff ff       	callq  4042c8 <_teavpn_send_handshake>
  4043ad:	c9                   	leaveq 
  4043ae:	c3                   	retq   

00000000004043af <get_handshake>:
  4043af:	f3 0f 1e fa          	endbr64 
  4043b3:	55                   	push   %rbp
  4043b4:	48 89 e5             	mov    %rsp,%rbp
  4043b7:	48 83 ec 30          	sub    $0x30,%rsp
  4043bb:	89 7d dc             	mov    %edi,-0x24(%rbp)
  4043be:	48 89 75 d0          	mov    %rsi,-0x30(%rbp)
  4043c2:	64 48 8b 04 25 28 00 	mov    %fs:0x28,%rax
  4043c9:	00 00 
  4043cb:	48 89 45 f8          	mov    %rax,-0x8(%rbp)
  4043cf:	31 c0                	xor    %eax,%eax
  4043d1:	48 8b 55 d0          	mov    -0x30(%rbp),%rdx
  4043d5:	48 8d 75 ee          	lea    -0x12(%rbp),%rsi
  4043d9:	8b 45 dc             	mov    -0x24(%rbp),%eax
  4043dc:	4c 8d 0d 65 6e 00 00 	lea    0x6e65(%rip),%r9        # 40b248 <remote_len.6427>
  4043e3:	49 89 d0             	mov    %rdx,%r8
  4043e6:	b9 00 01 00 00       	mov    $0x100,%ecx
  4043eb:	ba 02 00 00 00       	mov    $0x2,%edx
  4043f0:	89 c7                	mov    %eax,%edi
  4043f2:	e8 f9 e2 ff ff       	callq  4026f0 <recvfrom@plt>
  4043f7:	48 89 45 f0          	mov    %rax,-0x10(%rbp)
  4043fb:	48 83 7d f0 02       	cmpq   $0x2,-0x10(%rbp)
  404400:	74 13                	je     404415 <get_handshake+0x66>
  404402:	48 8d 3d f7 41 00 00 	lea    0x41f7(%rip),%rdi        # 408600 <_IO_stdin_used+0x600>
  404409:	e8 32 e3 ff ff       	callq  402740 <perror@plt>
  40440e:	b8 00 00 00 00       	mov    $0x0,%eax
  404413:	eb 04                	jmp    404419 <get_handshake+0x6a>
  404415:	0f b7 45 ee          	movzwl -0x12(%rbp),%eax
  404419:	48 8b 4d f8          	mov    -0x8(%rbp),%rcx
  40441d:	64 48 33 0c 25 28 00 	xor    %fs:0x28,%rcx
  404424:	00 00 
  404426:	74 05                	je     40442d <get_handshake+0x7e>
  404428:	e8 e3 e0 ff ff       	callq  402510 <__stack_chk_fail@plt>
  40442d:	c9                   	leaveq 
  40442e:	c3                   	retq   

000000000040442f <teavpn_tcp_server>:
  40442f:	f3 0f 1e fa          	endbr64 
  404433:	55                   	push   %rbp
  404434:	48 89 e5             	mov    %rsp,%rbp
  404437:	41 57                	push   %r15
  404439:	41 56                	push   %r14
  40443b:	41 55                	push   %r13
  40443d:	41 54                	push   %r12
  40443f:	53                   	push   %rbx
  404440:	4c 8d 9c 24 00 60 fe 	lea    -0x1a000(%rsp),%r11
  404447:	ff 
  404448:	48 81 ec 00 10 00 00 	sub    $0x1000,%rsp
  40444f:	48 83 0c 24 00       	orq    $0x0,(%rsp)
  404454:	4c 39 dc             	cmp    %r11,%rsp
  404457:	75 ef                	jne    404448 <teavpn_tcp_server+0x19>
  404459:	48 81 ec 18 03 00 00 	sub    $0x318,%rsp
  404460:	48 89 bd c8 5c fe ff 	mov    %rdi,-0x1a338(%rbp)
  404467:	64 48 8b 04 25 28 00 	mov    %fs:0x28,%rax
  40446e:	00 00 
  404470:	48 89 45 c8          	mov    %rax,-0x38(%rbp)
  404474:	31 c0                	xor    %eax,%eax
  404476:	48 89 e0             	mov    %rsp,%rax
  404479:	48 89 85 c0 5c fe ff 	mov    %rax,-0x1a340(%rbp)
  404480:	48 8d 85 a0 5d fe ff 	lea    -0x1a260(%rbp),%rax
  404487:	48 89 05 2a 6f 00 00 	mov    %rax,0x6f2a(%rip)        # 40b3b8 <queues>
  40448e:	48 8d 85 20 6b fe ff 	lea    -0x194e0(%rbp),%rax
  404495:	48 89 05 24 6f 00 00 	mov    %rax,0x6f24(%rip)        # 40b3c0 <bufchan>
  40449c:	48 8d 85 a0 63 fe ff 	lea    -0x19c60(%rbp),%rax
  4044a3:	48 89 05 1e 6f 00 00 	mov    %rax,0x6f1e(%rip)        # 40b3c8 <connections>
  4044aa:	48 8b 95 c8 5c fe ff 	mov    -0x1a338(%rbp),%rdx
  4044b1:	48 8d 85 c0 ef ff ff 	lea    -0x1040(%rbp),%rax
  4044b8:	48 89 d6             	mov    %rdx,%rsi
  4044bb:	48 89 c7             	mov    %rax,%rdi
  4044be:	e8 10 0e 00 00       	callq  4052d3 <teavpn_tcp_server_init>
  4044c3:	84 c0                	test   %al,%al
  4044c5:	74 0a                	je     4044d1 <teavpn_tcp_server+0xa2>
  4044c7:	b8 01 00 00 00       	mov    $0x1,%eax
  4044cc:	e9 b2 0d 00 00       	jmpq   405283 <teavpn_tcp_server+0xe54>
  4044d1:	48 8b 85 c8 5c fe ff 	mov    -0x1a338(%rbp),%rax
  4044d8:	0f b6 40 3d          	movzbl 0x3d(%rax),%eax
  4044dc:	88 05 ce 6e 00 00    	mov    %al,0x6ece(%rip)        # 40b3b0 <thread_amount>
  4044e2:	0f b6 0d c7 6e 00 00 	movzbl 0x6ec7(%rip),%ecx        # 40b3b0 <thread_amount>
  4044e9:	0f b6 c1             	movzbl %cl,%eax
  4044ec:	48 83 e8 01          	sub    $0x1,%rax
  4044f0:	48 89 85 f0 5c fe ff 	mov    %rax,-0x1a310(%rbp)
  4044f7:	0f b6 c1             	movzbl %cl,%eax
  4044fa:	49 89 c6             	mov    %rax,%r14
  4044fd:	41 bf 00 00 00 00    	mov    $0x0,%r15d
  404503:	49 69 d7 40 03 00 00 	imul   $0x340,%r15,%rdx
  40450a:	49 6b c6 00          	imul   $0x0,%r14,%rax
  40450e:	48 8d 34 02          	lea    (%rdx,%rax,1),%rsi
  404512:	b8 40 03 00 00       	mov    $0x340,%eax
  404517:	49 f7 e6             	mul    %r14
  40451a:	48 01 d6             	add    %rdx,%rsi
  40451d:	48 89 f2             	mov    %rsi,%rdx
  404520:	0f b6 d1             	movzbl %cl,%edx
  404523:	48 89 d0             	mov    %rdx,%rax
  404526:	48 01 c0             	add    %rax,%rax
  404529:	48 01 d0             	add    %rdx,%rax
  40452c:	48 c1 e0 02          	shl    $0x2,%rax
  404530:	48 01 d0             	add    %rdx,%rax
  404533:	48 c1 e0 03          	shl    $0x3,%rax
  404537:	0f b6 c1             	movzbl %cl,%eax
  40453a:	49 89 c4             	mov    %rax,%r12
  40453d:	41 bd 00 00 00 00    	mov    $0x0,%r13d
  404543:	49 69 d5 40 03 00 00 	imul   $0x340,%r13,%rdx
  40454a:	49 6b c4 00          	imul   $0x0,%r12,%rax
  40454e:	48 8d 34 02          	lea    (%rdx,%rax,1),%rsi
  404552:	b8 40 03 00 00       	mov    $0x340,%eax
  404557:	49 f7 e4             	mul    %r12
  40455a:	48 01 d6             	add    %rdx,%rsi
  40455d:	48 89 f2             	mov    %rsi,%rdx
  404560:	0f b6 d1             	movzbl %cl,%edx
  404563:	48 89 d0             	mov    %rdx,%rax
  404566:	48 01 c0             	add    %rax,%rax
  404569:	48 01 d0             	add    %rdx,%rax
  40456c:	48 c1 e0 02          	shl    $0x2,%rax
  404570:	48 01 d0             	add    %rdx,%rax
  404573:	48 c1 e0 03          	shl    $0x3,%rax
  404577:	48 89 c2             	mov    %rax,%rdx
  40457a:	b8 10 00 00 00       	mov    $0x10,%eax
  40457f:	48 83 e8 01          	sub    $0x1,%rax
  404583:	48 01 d0             	add    %rdx,%rax
  404586:	bb 10 00 00 00       	mov    $0x10,%ebx
  40458b:	ba 00 00 00 00       	mov    $0x0,%edx
  404590:	48 f7 f3             	div    %rbx
  404593:	48 6b c0 10          	imul   $0x10,%rax,%rax
  404597:	48 89 c2             	mov    %rax,%rdx
  40459a:	48 81 e2 00 f0 ff ff 	and    $0xfffffffffffff000,%rdx
  4045a1:	48 89 e3             	mov    %rsp,%rbx
  4045a4:	48 29 d3             	sub    %rdx,%rbx
  4045a7:	48 89 da             	mov    %rbx,%rdx
  4045aa:	48 39 d4             	cmp    %rdx,%rsp
  4045ad:	74 12                	je     4045c1 <teavpn_tcp_server+0x192>
  4045af:	48 81 ec 00 10 00 00 	sub    $0x1000,%rsp
  4045b6:	48 83 8c 24 f8 0f 00 	orq    $0x0,0xff8(%rsp)
  4045bd:	00 00 
  4045bf:	eb e9                	jmp    4045aa <teavpn_tcp_server+0x17b>
  4045c1:	48 89 c2             	mov    %rax,%rdx
  4045c4:	81 e2 ff 0f 00 00    	and    $0xfff,%edx
  4045ca:	48 29 d4             	sub    %rdx,%rsp
  4045cd:	48 89 c2             	mov    %rax,%rdx
  4045d0:	81 e2 ff 0f 00 00    	and    $0xfff,%edx
  4045d6:	48 85 d2             	test   %rdx,%rdx
  4045d9:	74 10                	je     4045eb <teavpn_tcp_server+0x1bc>
  4045db:	25 ff 0f 00 00       	and    $0xfff,%eax
  4045e0:	48 83 e8 08          	sub    $0x8,%rax
  4045e4:	48 01 e0             	add    %rsp,%rax
  4045e7:	48 83 08 00          	orq    $0x0,(%rax)
  4045eb:	48 89 e0             	mov    %rsp,%rax
  4045ee:	48 83 c0 07          	add    $0x7,%rax
  4045f2:	48 c1 e8 03          	shr    $0x3,%rax
  4045f6:	48 c1 e0 03          	shl    $0x3,%rax
  4045fa:	48 89 85 f8 5c fe ff 	mov    %rax,-0x1a308(%rbp)
  404601:	48 8b 85 f8 5c fe ff 	mov    -0x1a308(%rbp),%rax
  404608:	48 89 05 c1 6d 00 00 	mov    %rax,0x6dc1(%rip)        # 40b3d0 <workers>
  40460f:	0f b6 05 9a 6d 00 00 	movzbl 0x6d9a(%rip),%eax        # 40b3b0 <thread_amount>
  404616:	3c 02                	cmp    $0x2,%al
  404618:	77 60                	ja     40467a <teavpn_tcp_server+0x24b>
  40461a:	0f b6 05 8f 6d 00 00 	movzbl 0x6d8f(%rip),%eax        # 40b3b0 <thread_amount>
  404621:	0f b6 c0             	movzbl %al,%eax
  404624:	89 c6                	mov    %eax,%esi
  404626:	48 8d 3d f3 3f 00 00 	lea    0x3ff3(%rip),%rdi        # 408620 <_IO_stdin_used+0x620>
  40462d:	b8 00 00 00 00       	mov    $0x0,%eax
  404632:	e8 d2 29 00 00       	callq  407009 <internal_debug_log>
  404637:	90                   	nop
  404638:	f3 0f 1e fa          	endbr64 
  40463c:	8b 05 66 6d 00 00    	mov    0x6d66(%rip),%eax        # 40b3a8 <m_pipe_fd>
  404642:	89 c7                	mov    %eax,%edi
  404644:	e8 67 df ff ff       	callq  4025b0 <close@plt>
  404649:	8b 05 5d 6d 00 00    	mov    0x6d5d(%rip),%eax        # 40b3ac <m_pipe_fd+0x4>
  40464f:	89 c7                	mov    %eax,%edi
  404651:	e8 5a df ff ff       	callq  4025b0 <close@plt>
  404656:	8b 05 48 6d 00 00    	mov    0x6d48(%rip),%eax        # 40b3a4 <net_fd>
  40465c:	89 c7                	mov    %eax,%edi
  40465e:	e8 4d df ff ff       	callq  4025b0 <close@plt>
  404663:	8b 05 37 6d 00 00    	mov    0x6d37(%rip),%eax        # 40b3a0 <tap_fd>
  404669:	89 c7                	mov    %eax,%edi
  40466b:	e8 40 df ff ff       	callq  4025b0 <close@plt>
  404670:	b8 01 00 00 00       	mov    $0x1,%eax
  404675:	e9 09 0c 00 00       	jmpq   405283 <teavpn_tcp_server+0xe54>
  40467a:	bb 00 00 00 00       	mov    $0x0,%ebx
  40467f:	e9 9c 01 00 00       	jmpq   404820 <teavpn_tcp_server+0x3f1>
  404684:	48 b8 74 65 61 76 70 	movabs $0x745f6e7076616574,%rax
  40468b:	6e 5f 74 
  40468e:	48 ba 63 70 5f 77 6f 	movabs $0x656b726f775f7063,%rdx
  404695:	72 6b 65 
  404698:	48 89 85 a0 ef ff ff 	mov    %rax,-0x1060(%rbp)
  40469f:	48 89 95 a8 ef ff ff 	mov    %rdx,-0x1058(%rbp)
  4046a6:	c7 85 b0 ef ff ff 72 	movl   $0x78785f72,-0x1050(%rbp)
  4046ad:	5f 78 78 
  4046b0:	66 c7 85 b4 ef ff ff 	movw   $0x78,-0x104c(%rbp)
  4046b7:	78 00 
  4046b9:	48 8b 0d 10 6d 00 00 	mov    0x6d10(%rip),%rcx        # 40b3d0 <workers>
  4046c0:	0f b6 d3             	movzbl %bl,%edx
  4046c3:	48 89 d0             	mov    %rdx,%rax
  4046c6:	48 01 c0             	add    %rax,%rax
  4046c9:	48 01 d0             	add    %rdx,%rax
  4046cc:	48 c1 e0 02          	shl    $0x2,%rax
  4046d0:	48 01 d0             	add    %rdx,%rax
  4046d3:	48 c1 e0 03          	shl    $0x3,%rax
  4046d7:	48 01 c8             	add    %rcx,%rax
  4046da:	c6 00 00             	movb   $0x0,(%rax)
  4046dd:	48 8b 0d ec 6c 00 00 	mov    0x6cec(%rip),%rcx        # 40b3d0 <workers>
  4046e4:	0f b6 d3             	movzbl %bl,%edx
  4046e7:	48 89 d0             	mov    %rdx,%rax
  4046ea:	48 01 c0             	add    %rax,%rax
  4046ed:	48 01 d0             	add    %rdx,%rax
  4046f0:	48 c1 e0 02          	shl    $0x2,%rax
  4046f4:	48 01 d0             	add    %rdx,%rax
  4046f7:	48 c1 e0 03          	shl    $0x3,%rax
  4046fb:	48 01 c8             	add    %rcx,%rax
  4046fe:	48 83 c0 38          	add    $0x38,%rax
  404702:	be 00 00 00 00       	mov    $0x0,%esi
  404707:	48 89 c7             	mov    %rax,%rdi
  40470a:	e8 91 df ff ff       	callq  4026a0 <pthread_cond_init@plt>
  40470f:	48 8b 0d ba 6c 00 00 	mov    0x6cba(%rip),%rcx        # 40b3d0 <workers>
  404716:	0f b6 d3             	movzbl %bl,%edx
  404719:	48 89 d0             	mov    %rdx,%rax
  40471c:	48 01 c0             	add    %rax,%rax
  40471f:	48 01 d0             	add    %rdx,%rax
  404722:	48 c1 e0 02          	shl    $0x2,%rax
  404726:	48 01 d0             	add    %rdx,%rax
  404729:	48 c1 e0 03          	shl    $0x3,%rax
  40472d:	48 01 c8             	add    %rcx,%rax
  404730:	48 83 c0 10          	add    $0x10,%rax
  404734:	be 00 00 00 00       	mov    $0x0,%esi
  404739:	48 89 c7             	mov    %rax,%rdi
  40473c:	e8 6f e0 ff ff       	callq  4027b0 <pthread_mutex_init@plt>
  404741:	48 8b 0d 88 6c 00 00 	mov    0x6c88(%rip),%rcx        # 40b3d0 <workers>
  404748:	0f b6 d3             	movzbl %bl,%edx
  40474b:	48 89 d0             	mov    %rdx,%rax
  40474e:	48 01 c0             	add    %rax,%rax
  404751:	48 01 d0             	add    %rdx,%rax
  404754:	48 c1 e0 02          	shl    $0x2,%rax
  404758:	48 01 d0             	add    %rdx,%rax
  40475b:	48 c1 e0 03          	shl    $0x3,%rax
  40475f:	48 01 c1             	add    %rax,%rcx
  404762:	48 8b 35 67 6c 00 00 	mov    0x6c67(%rip),%rsi        # 40b3d0 <workers>
  404769:	0f b6 d3             	movzbl %bl,%edx
  40476c:	48 89 d0             	mov    %rdx,%rax
  40476f:	48 01 c0             	add    %rax,%rax
  404772:	48 01 d0             	add    %rdx,%rax
  404775:	48 c1 e0 02          	shl    $0x2,%rax
  404779:	48 01 d0             	add    %rdx,%rax
  40477c:	48 c1 e0 03          	shl    $0x3,%rax
  404780:	48 01 f0             	add    %rsi,%rax
  404783:	48 83 c0 08          	add    $0x8,%rax
  404787:	48 8d 15 1f 0b 00 00 	lea    0xb1f(%rip),%rdx        # 4052ad <teavpn_tcp_worker_thread>
  40478e:	be 00 00 00 00       	mov    $0x0,%esi
  404793:	48 89 c7             	mov    %rax,%rdi
  404796:	e8 85 dc ff ff       	callq  402420 <pthread_create@plt>
  40479b:	0f b6 d3             	movzbl %bl,%edx
  40479e:	48 8d 85 a0 ef ff ff 	lea    -0x1060(%rbp),%rax
  4047a5:	48 8d 35 9e 3e 00 00 	lea    0x3e9e(%rip),%rsi        # 40864a <_IO_stdin_used+0x64a>
  4047ac:	48 89 c7             	mov    %rax,%rdi
  4047af:	b8 00 00 00 00       	mov    $0x0,%eax
  4047b4:	e8 b7 df ff ff       	callq  402770 <sprintf@plt>
  4047b9:	48 8b 0d 10 6c 00 00 	mov    0x6c10(%rip),%rcx        # 40b3d0 <workers>
  4047c0:	0f b6 d3             	movzbl %bl,%edx
  4047c3:	48 89 d0             	mov    %rdx,%rax
  4047c6:	48 01 c0             	add    %rax,%rax
  4047c9:	48 01 d0             	add    %rdx,%rax
  4047cc:	48 c1 e0 02          	shl    $0x2,%rax
  4047d0:	48 01 d0             	add    %rdx,%rax
  4047d3:	48 c1 e0 03          	shl    $0x3,%rax
  4047d7:	48 01 c8             	add    %rcx,%rax
  4047da:	48 8b 40 08          	mov    0x8(%rax),%rax
  4047de:	48 8d 95 a0 ef ff ff 	lea    -0x1060(%rbp),%rdx
  4047e5:	48 89 d6             	mov    %rdx,%rsi
  4047e8:	48 89 c7             	mov    %rax,%rdi
  4047eb:	e8 80 de ff ff       	callq  402670 <pthread_setname_np@plt>
  4047f0:	48 8b 0d d9 6b 00 00 	mov    0x6bd9(%rip),%rcx        # 40b3d0 <workers>
  4047f7:	0f b6 d3             	movzbl %bl,%edx
  4047fa:	48 89 d0             	mov    %rdx,%rax
  4047fd:	48 01 c0             	add    %rax,%rax
  404800:	48 01 d0             	add    %rdx,%rax
  404803:	48 c1 e0 02          	shl    $0x2,%rax
  404807:	48 01 d0             	add    %rdx,%rax
  40480a:	48 c1 e0 03          	shl    $0x3,%rax
  40480e:	48 01 c8             	add    %rcx,%rax
  404811:	48 8b 40 08          	mov    0x8(%rax),%rax
  404815:	48 89 c7             	mov    %rax,%rdi
  404818:	e8 13 dc ff ff       	callq  402430 <pthread_detach@plt>
  40481d:	83 c3 01             	add    $0x1,%ebx
  404820:	48 8b 85 c8 5c fe ff 	mov    -0x1a338(%rbp),%rax
  404827:	0f b6 40 3d          	movzbl 0x3d(%rax),%eax
  40482b:	38 c3                	cmp    %al,%bl
  40482d:	0f 82 51 fe ff ff    	jb     404684 <teavpn_tcp_server+0x255>
  404833:	48 8d 85 10 5d fe ff 	lea    -0x1a2f0(%rbp),%rax
  40483a:	ba 10 00 00 00       	mov    $0x10,%edx
  40483f:	be 00 00 00 00       	mov    $0x0,%esi
  404844:	48 89 c7             	mov    %rax,%rdi
  404847:	e8 34 dd ff ff       	callq  402580 <memset@plt>
  40484c:	66 c7 85 10 5d fe ff 	movw   $0x2,-0x1a2f0(%rbp)
  404853:	02 00 
  404855:	48 8b 85 c8 5c fe ff 	mov    -0x1a338(%rbp),%rax
  40485c:	0f b7 40 3a          	movzwl 0x3a(%rax),%eax
  404860:	0f b7 c0             	movzwl %ax,%eax
  404863:	89 c7                	mov    %eax,%edi
  404865:	e8 e6 dc ff ff       	callq  402550 <htons@plt>
  40486a:	66 89 85 12 5d fe ff 	mov    %ax,-0x1a2ee(%rbp)
  404871:	48 8b 85 c8 5c fe ff 	mov    -0x1a338(%rbp),%rax
  404878:	48 8b 00             	mov    (%rax),%rax
  40487b:	48 89 c7             	mov    %rax,%rdi
  40487e:	e8 8d dd ff ff       	callq  402610 <inet_addr@plt>
  404883:	89 85 14 5d fe ff    	mov    %eax,-0x1a2ec(%rbp)
  404889:	48 8d 85 10 5d fe ff 	lea    -0x1a2f0(%rbp),%rax
  404890:	48 89 c1             	mov    %rax,%rcx
  404893:	8b 05 0b 6b 00 00    	mov    0x6b0b(%rip),%eax        # 40b3a4 <net_fd>
  404899:	ba 10 00 00 00       	mov    $0x10,%edx
  40489e:	48 89 ce             	mov    %rcx,%rsi
  4048a1:	89 c7                	mov    %eax,%edi
  4048a3:	e8 68 de ff ff       	callq  402710 <bind@plt>
  4048a8:	85 c0                	test   %eax,%eax
  4048aa:	79 41                	jns    4048ed <teavpn_tcp_server+0x4be>
  4048ac:	48 8d 3d ac 3d 00 00 	lea    0x3dac(%rip),%rdi        # 40865f <_IO_stdin_used+0x65f>
  4048b3:	b8 00 00 00 00       	mov    $0x0,%eax
  4048b8:	e8 4c 27 00 00       	callq  407009 <internal_debug_log>
  4048bd:	48 8d 3d ae 3d 00 00 	lea    0x3dae(%rip),%rdi        # 408672 <_IO_stdin_used+0x672>
  4048c4:	e8 77 de ff ff       	callq  402740 <perror@plt>
  4048c9:	8b 05 d5 6a 00 00    	mov    0x6ad5(%rip),%eax        # 40b3a4 <net_fd>
  4048cf:	89 c7                	mov    %eax,%edi
  4048d1:	e8 da dc ff ff       	callq  4025b0 <close@plt>
  4048d6:	8b 05 c4 6a 00 00    	mov    0x6ac4(%rip),%eax        # 40b3a0 <tap_fd>
  4048dc:	89 c7                	mov    %eax,%edi
  4048de:	e8 cd dc ff ff       	callq  4025b0 <close@plt>
  4048e3:	b8 01 00 00 00       	mov    $0x1,%eax
  4048e8:	e9 96 09 00 00       	jmpq   405283 <teavpn_tcp_server+0xe54>
  4048ed:	8b 05 b1 6a 00 00    	mov    0x6ab1(%rip),%eax        # 40b3a4 <net_fd>
  4048f3:	be 03 00 00 00       	mov    $0x3,%esi
  4048f8:	89 c7                	mov    %eax,%edi
  4048fa:	e8 e1 dd ff ff       	callq  4026e0 <listen@plt>
  4048ff:	85 c0                	test   %eax,%eax
  404901:	79 41                	jns    404944 <teavpn_tcp_server+0x515>
  404903:	48 8d 3d 74 3d 00 00 	lea    0x3d74(%rip),%rdi        # 40867e <_IO_stdin_used+0x67e>
  40490a:	b8 00 00 00 00       	mov    $0x0,%eax
  40490f:	e8 f5 26 00 00       	callq  407009 <internal_debug_log>
  404914:	48 8d 3d 78 3d 00 00 	lea    0x3d78(%rip),%rdi        # 408693 <_IO_stdin_used+0x693>
  40491b:	e8 20 de ff ff       	callq  402740 <perror@plt>
  404920:	8b 05 7e 6a 00 00    	mov    0x6a7e(%rip),%eax        # 40b3a4 <net_fd>
  404926:	89 c7                	mov    %eax,%edi
  404928:	e8 83 dc ff ff       	callq  4025b0 <close@plt>
  40492d:	8b 05 6d 6a 00 00    	mov    0x6a6d(%rip),%eax        # 40b3a0 <tap_fd>
  404933:	89 c7                	mov    %eax,%edi
  404935:	e8 76 dc ff ff       	callq  4025b0 <close@plt>
  40493a:	b8 01 00 00 00       	mov    $0x1,%eax
  40493f:	e9 3f 09 00 00       	jmpq   405283 <teavpn_tcp_server+0xe54>
  404944:	be 01 00 00 00       	mov    $0x1,%esi
  404949:	bf 0d 00 00 00       	mov    $0xd,%edi
  40494e:	e8 dd dc ff ff       	callq  402630 <signal@plt>
  404953:	48 8b 95 c8 5c fe ff 	mov    -0x1a338(%rbp),%rdx
  40495a:	48 8d 85 e8 5c fe ff 	lea    -0x1a318(%rbp),%rax
  404961:	48 89 d1             	mov    %rdx,%rcx
  404964:	48 8d 15 55 09 00 00 	lea    0x955(%rip),%rdx        # 4052c0 <teavpn_tcp_accept_worker_thread>
  40496b:	be 00 00 00 00       	mov    $0x0,%esi
  404970:	48 89 c7             	mov    %rax,%rdi
  404973:	e8 a8 da ff ff       	callq  402420 <pthread_create@plt>
  404978:	48 8b 85 e8 5c fe ff 	mov    -0x1a318(%rbp),%rax
  40497f:	48 8d 35 1b 3d 00 00 	lea    0x3d1b(%rip),%rsi        # 4086a1 <_IO_stdin_used+0x6a1>
  404986:	48 89 c7             	mov    %rax,%rdi
  404989:	e8 e2 dc ff ff       	callq  402670 <pthread_setname_np@plt>
  40498e:	48 8b 85 e8 5c fe ff 	mov    -0x1a318(%rbp),%rax
  404995:	48 89 c7             	mov    %rax,%rdi
  404998:	e8 93 da ff ff       	callq  402430 <pthread_detach@plt>
  40499d:	48 8b 85 c8 5c fe ff 	mov    -0x1a338(%rbp),%rax
  4049a4:	0f b7 40 3a          	movzwl 0x3a(%rax),%eax
  4049a8:	0f b7 d0             	movzwl %ax,%edx
  4049ab:	48 8b 85 c8 5c fe ff 	mov    -0x1a338(%rbp),%rax
  4049b2:	48 8b 00             	mov    (%rax),%rax
  4049b5:	48 89 c6             	mov    %rax,%rsi
  4049b8:	48 8d 3d f0 3c 00 00 	lea    0x3cf0(%rip),%rdi        # 4086af <_IO_stdin_used+0x6af>
  4049bf:	b8 00 00 00 00       	mov    $0x0,%eax
  4049c4:	e8 40 26 00 00       	callq  407009 <internal_debug_log>
  4049c9:	8b 15 d1 69 00 00    	mov    0x69d1(%rip),%edx        # 40b3a0 <tap_fd>
  4049cf:	8b 05 cf 69 00 00    	mov    0x69cf(%rip),%eax        # 40b3a4 <net_fd>
  4049d5:	39 c2                	cmp    %eax,%edx
  4049d7:	7e 10                	jle    4049e9 <teavpn_tcp_server+0x5ba>
  4049d9:	8b 15 c9 69 00 00    	mov    0x69c9(%rip),%edx        # 40b3a8 <m_pipe_fd>
  4049df:	8b 05 bb 69 00 00    	mov    0x69bb(%rip),%eax        # 40b3a0 <tap_fd>
  4049e5:	39 c2                	cmp    %eax,%edx
  4049e7:	7c 13                	jl     4049fc <teavpn_tcp_server+0x5cd>
  4049e9:	8b 15 b9 69 00 00    	mov    0x69b9(%rip),%edx        # 40b3a8 <m_pipe_fd>
  4049ef:	8b 05 af 69 00 00    	mov    0x69af(%rip),%eax        # 40b3a4 <net_fd>
  4049f5:	39 c2                	cmp    %eax,%edx
  4049f7:	0f 4d c2             	cmovge %edx,%eax
  4049fa:	eb 06                	jmp    404a02 <teavpn_tcp_server+0x5d3>
  4049fc:	8b 05 9e 69 00 00    	mov    0x699e(%rip),%eax        # 40b3a0 <tap_fd>
  404a02:	89 85 d8 5c fe ff    	mov    %eax,-0x1a328(%rbp)
  404a08:	b8 00 00 00 00       	mov    $0x0,%eax
  404a0d:	b9 10 00 00 00       	mov    $0x10,%ecx
  404a12:	48 8d 95 20 5d fe ff 	lea    -0x1a2e0(%rbp),%rdx
  404a19:	48 89 d7             	mov    %rdx,%rdi
  404a1c:	fc                   	cld    
  404a1d:	f3 48 ab             	rep stos %rax,%es:(%rdi)
  404a20:	89 f8                	mov    %edi,%eax
  404a22:	89 ca                	mov    %ecx,%edx
  404a24:	89 95 dc 5c fe ff    	mov    %edx,-0x1a324(%rbp)
  404a2a:	89 85 e0 5c fe ff    	mov    %eax,-0x1a320(%rbp)
  404a30:	8b 05 6e 69 00 00    	mov    0x696e(%rip),%eax        # 40b3a4 <net_fd>
  404a36:	8d 50 3f             	lea    0x3f(%rax),%edx
  404a39:	85 c0                	test   %eax,%eax
  404a3b:	0f 48 c2             	cmovs  %edx,%eax
  404a3e:	c1 f8 06             	sar    $0x6,%eax
  404a41:	89 c6                	mov    %eax,%esi
  404a43:	48 63 c6             	movslq %esi,%rax
  404a46:	48 8b bc c5 20 5d fe 	mov    -0x1a2e0(%rbp,%rax,8),%rdi
  404a4d:	ff 
  404a4e:	8b 05 50 69 00 00    	mov    0x6950(%rip),%eax        # 40b3a4 <net_fd>
  404a54:	99                   	cltd   
  404a55:	c1 ea 1a             	shr    $0x1a,%edx
  404a58:	01 d0                	add    %edx,%eax
  404a5a:	83 e0 3f             	and    $0x3f,%eax
  404a5d:	29 d0                	sub    %edx,%eax
  404a5f:	ba 01 00 00 00       	mov    $0x1,%edx
  404a64:	89 c1                	mov    %eax,%ecx
  404a66:	48 d3 e2             	shl    %cl,%rdx
  404a69:	48 89 d0             	mov    %rdx,%rax
  404a6c:	48 09 c7             	or     %rax,%rdi
  404a6f:	48 89 fa             	mov    %rdi,%rdx
  404a72:	48 63 c6             	movslq %esi,%rax
  404a75:	48 89 94 c5 20 5d fe 	mov    %rdx,-0x1a2e0(%rbp,%rax,8)
  404a7c:	ff 
  404a7d:	8b 05 1d 69 00 00    	mov    0x691d(%rip),%eax        # 40b3a0 <tap_fd>
  404a83:	8d 50 3f             	lea    0x3f(%rax),%edx
  404a86:	85 c0                	test   %eax,%eax
  404a88:	0f 48 c2             	cmovs  %edx,%eax
  404a8b:	c1 f8 06             	sar    $0x6,%eax
  404a8e:	89 c6                	mov    %eax,%esi
  404a90:	48 63 c6             	movslq %esi,%rax
  404a93:	48 8b bc c5 20 5d fe 	mov    -0x1a2e0(%rbp,%rax,8),%rdi
  404a9a:	ff 
  404a9b:	8b 05 ff 68 00 00    	mov    0x68ff(%rip),%eax        # 40b3a0 <tap_fd>
  404aa1:	99                   	cltd   
  404aa2:	c1 ea 1a             	shr    $0x1a,%edx
  404aa5:	01 d0                	add    %edx,%eax
  404aa7:	83 e0 3f             	and    $0x3f,%eax
  404aaa:	29 d0                	sub    %edx,%eax
  404aac:	ba 01 00 00 00       	mov    $0x1,%edx
  404ab1:	89 c1                	mov    %eax,%ecx
  404ab3:	48 d3 e2             	shl    %cl,%rdx
  404ab6:	48 89 d0             	mov    %rdx,%rax
  404ab9:	48 09 c7             	or     %rax,%rdi
  404abc:	48 89 fa             	mov    %rdi,%rdx
  404abf:	48 63 c6             	movslq %esi,%rax
  404ac2:	48 89 94 c5 20 5d fe 	mov    %rdx,-0x1a2e0(%rbp,%rax,8)
  404ac9:	ff 
  404aca:	8b 05 d8 68 00 00    	mov    0x68d8(%rip),%eax        # 40b3a8 <m_pipe_fd>
  404ad0:	8d 50 3f             	lea    0x3f(%rax),%edx
  404ad3:	85 c0                	test   %eax,%eax
  404ad5:	0f 48 c2             	cmovs  %edx,%eax
  404ad8:	c1 f8 06             	sar    $0x6,%eax
  404adb:	89 c6                	mov    %eax,%esi
  404add:	48 63 c6             	movslq %esi,%rax
  404ae0:	48 8b bc c5 20 5d fe 	mov    -0x1a2e0(%rbp,%rax,8),%rdi
  404ae7:	ff 
  404ae8:	8b 05 ba 68 00 00    	mov    0x68ba(%rip),%eax        # 40b3a8 <m_pipe_fd>
  404aee:	99                   	cltd   
  404aef:	c1 ea 1a             	shr    $0x1a,%edx
  404af2:	01 d0                	add    %edx,%eax
  404af4:	83 e0 3f             	and    $0x3f,%eax
  404af7:	29 d0                	sub    %edx,%eax
  404af9:	ba 01 00 00 00       	mov    $0x1,%edx
  404afe:	89 c1                	mov    %eax,%ecx
  404b00:	48 d3 e2             	shl    %cl,%rdx
  404b03:	48 89 d0             	mov    %rdx,%rax
  404b06:	48 09 c7             	or     %rax,%rdi
  404b09:	48 89 fa             	mov    %rdi,%rdx
  404b0c:	48 63 c6             	movslq %esi,%rax
  404b0f:	48 89 94 c5 20 5d fe 	mov    %rdx,-0x1a2e0(%rbp,%rax,8)
  404b16:	ff 
  404b17:	bb 00 00 00 00       	mov    $0x0,%ebx
  404b1c:	e9 ef 00 00 00       	jmpq   404c10 <teavpn_tcp_server+0x7e1>
  404b21:	48 8b 0d a0 68 00 00 	mov    0x68a0(%rip),%rcx        # 40b3c8 <connections>
  404b28:	0f b7 d3             	movzwl %bx,%edx
  404b2b:	48 89 d0             	mov    %rdx,%rax
  404b2e:	48 c1 e0 02          	shl    $0x2,%rax
  404b32:	48 01 d0             	add    %rdx,%rax
  404b35:	48 c1 e0 04          	shl    $0x4,%rax
  404b39:	48 01 c8             	add    %rcx,%rax
  404b3c:	0f b6 40 04          	movzbl 0x4(%rax),%eax
  404b40:	84 c0                	test   %al,%al
  404b42:	0f 84 c3 00 00 00    	je     404c0b <teavpn_tcp_server+0x7dc>
  404b48:	48 8b 0d 79 68 00 00 	mov    0x6879(%rip),%rcx        # 40b3c8 <connections>
  404b4f:	0f b7 d3             	movzwl %bx,%edx
  404b52:	48 89 d0             	mov    %rdx,%rax
  404b55:	48 c1 e0 02          	shl    $0x2,%rax
  404b59:	48 01 d0             	add    %rdx,%rax
  404b5c:	48 c1 e0 04          	shl    $0x4,%rax
  404b60:	48 01 c8             	add    %rcx,%rax
  404b63:	8b 00                	mov    (%rax),%eax
  404b65:	39 85 d8 5c fe ff    	cmp    %eax,-0x1a328(%rbp)
  404b6b:	7d 23                	jge    404b90 <teavpn_tcp_server+0x761>
  404b6d:	48 8b 0d 54 68 00 00 	mov    0x6854(%rip),%rcx        # 40b3c8 <connections>
  404b74:	0f b7 d3             	movzwl %bx,%edx
  404b77:	48 89 d0             	mov    %rdx,%rax
  404b7a:	48 c1 e0 02          	shl    $0x2,%rax
  404b7e:	48 01 d0             	add    %rdx,%rax
  404b81:	48 c1 e0 04          	shl    $0x4,%rax
  404b85:	48 01 c8             	add    %rcx,%rax
  404b88:	8b 00                	mov    (%rax),%eax
  404b8a:	89 85 d8 5c fe ff    	mov    %eax,-0x1a328(%rbp)
  404b90:	48 8b 0d 31 68 00 00 	mov    0x6831(%rip),%rcx        # 40b3c8 <connections>
  404b97:	0f b7 d3             	movzwl %bx,%edx
  404b9a:	48 89 d0             	mov    %rdx,%rax
  404b9d:	48 c1 e0 02          	shl    $0x2,%rax
  404ba1:	48 01 d0             	add    %rdx,%rax
  404ba4:	48 c1 e0 04          	shl    $0x4,%rax
  404ba8:	48 01 c8             	add    %rcx,%rax
  404bab:	8b 00                	mov    (%rax),%eax
  404bad:	8d 50 3f             	lea    0x3f(%rax),%edx
  404bb0:	85 c0                	test   %eax,%eax
  404bb2:	0f 48 c2             	cmovs  %edx,%eax
  404bb5:	c1 f8 06             	sar    $0x6,%eax
  404bb8:	89 c6                	mov    %eax,%esi
  404bba:	48 63 c6             	movslq %esi,%rax
  404bbd:	48 8b bc c5 20 5d fe 	mov    -0x1a2e0(%rbp,%rax,8),%rdi
  404bc4:	ff 
  404bc5:	48 8b 0d fc 67 00 00 	mov    0x67fc(%rip),%rcx        # 40b3c8 <connections>
  404bcc:	0f b7 d3             	movzwl %bx,%edx
  404bcf:	48 89 d0             	mov    %rdx,%rax
  404bd2:	48 c1 e0 02          	shl    $0x2,%rax
  404bd6:	48 01 d0             	add    %rdx,%rax
  404bd9:	48 c1 e0 04          	shl    $0x4,%rax
  404bdd:	48 01 c8             	add    %rcx,%rax
  404be0:	8b 00                	mov    (%rax),%eax
  404be2:	99                   	cltd   
  404be3:	c1 ea 1a             	shr    $0x1a,%edx
  404be6:	01 d0                	add    %edx,%eax
  404be8:	83 e0 3f             	and    $0x3f,%eax
  404beb:	29 d0                	sub    %edx,%eax
  404bed:	ba 01 00 00 00       	mov    $0x1,%edx
  404bf2:	89 c1                	mov    %eax,%ecx
  404bf4:	48 d3 e2             	shl    %cl,%rdx
  404bf7:	48 89 d0             	mov    %rdx,%rax
  404bfa:	48 09 c7             	or     %rax,%rdi
  404bfd:	48 89 fa             	mov    %rdi,%rdx
  404c00:	48 63 c6             	movslq %esi,%rax
  404c03:	48 89 94 c5 20 5d fe 	mov    %rdx,-0x1a2e0(%rbp,%rax,8)
  404c0a:	ff 
  404c0b:	89 d8                	mov    %ebx,%eax
  404c0d:	8d 58 01             	lea    0x1(%rax),%ebx
  404c10:	66 83 fb 17          	cmp    $0x17,%bx
  404c14:	0f 86 07 ff ff ff    	jbe    404b21 <teavpn_tcp_server+0x6f2>
  404c1a:	8b 85 d8 5c fe ff    	mov    -0x1a328(%rbp),%eax
  404c20:	8d 78 01             	lea    0x1(%rax),%edi
  404c23:	48 8d 85 20 5d fe ff 	lea    -0x1a2e0(%rbp),%rax
  404c2a:	41 b8 00 00 00 00    	mov    $0x0,%r8d
  404c30:	b9 00 00 00 00       	mov    $0x0,%ecx
  404c35:	ba 00 00 00 00       	mov    $0x0,%edx
  404c3a:	48 89 c6             	mov    %rax,%rsi
  404c3d:	e8 4e da ff ff       	callq  402690 <select@plt>
  404c42:	89 85 e4 5c fe ff    	mov    %eax,-0x1a31c(%rbp)
  404c48:	83 bd e4 5c fe ff 00 	cmpl   $0x0,-0x1a31c(%rbp)
  404c4f:	79 33                	jns    404c84 <teavpn_tcp_server+0x855>
  404c51:	e8 fa d7 ff ff       	callq  402450 <__errno_location@plt>
  404c56:	8b 00                	mov    (%rax),%eax
  404c58:	83 f8 04             	cmp    $0x4,%eax
  404c5b:	75 27                	jne    404c84 <teavpn_tcp_server+0x855>
  404c5d:	0f b6 05 76 67 00 00 	movzbl 0x6776(%rip),%eax        # 40b3da <verbose_level>
  404c64:	3c 01                	cmp    $0x1,%al
  404c66:	0f 86 11 06 00 00    	jbe    40527d <teavpn_tcp_server+0xe4e>
  404c6c:	48 8d 3d 55 3a 00 00 	lea    0x3a55(%rip),%rdi        # 4086c8 <_IO_stdin_used+0x6c8>
  404c73:	b8 00 00 00 00       	mov    $0x0,%eax
  404c78:	e8 8c 23 00 00       	callq  407009 <internal_debug_log>
  404c7d:	84 c0                	test   %al,%al
  404c7f:	e9 f9 05 00 00       	jmpq   40527d <teavpn_tcp_server+0xe4e>
  404c84:	83 bd e4 5c fe ff 00 	cmpl   $0x0,-0x1a31c(%rbp)
  404c8b:	79 2f                	jns    404cbc <teavpn_tcp_server+0x88d>
  404c8d:	0f b6 05 46 67 00 00 	movzbl 0x6746(%rip),%eax        # 40b3da <verbose_level>
  404c94:	84 c0                	test   %al,%al
  404c96:	74 13                	je     404cab <teavpn_tcp_server+0x87c>
  404c98:	48 8d 3d 48 3a 00 00 	lea    0x3a48(%rip),%rdi        # 4086e7 <_IO_stdin_used+0x6e7>
  404c9f:	b8 00 00 00 00       	mov    $0x0,%eax
  404ca4:	e8 60 23 00 00       	callq  407009 <internal_debug_log>
  404ca9:	84 c0                	test   %al,%al
  404cab:	48 8d 3d 4c 3a 00 00 	lea    0x3a4c(%rip),%rdi        # 4086fe <_IO_stdin_used+0x6fe>
  404cb2:	e8 89 da ff ff       	callq  402740 <perror@plt>
  404cb7:	e9 c2 05 00 00       	jmpq   40527e <teavpn_tcp_server+0xe4f>
  404cbc:	8b 05 de 66 00 00    	mov    0x66de(%rip),%eax        # 40b3a0 <tap_fd>
  404cc2:	8d 50 3f             	lea    0x3f(%rax),%edx
  404cc5:	85 c0                	test   %eax,%eax
  404cc7:	0f 48 c2             	cmovs  %edx,%eax
  404cca:	c1 f8 06             	sar    $0x6,%eax
  404ccd:	48 98                	cltq   
  404ccf:	48 8b b4 c5 20 5d fe 	mov    -0x1a2e0(%rbp,%rax,8),%rsi
  404cd6:	ff 
  404cd7:	8b 05 c3 66 00 00    	mov    0x66c3(%rip),%eax        # 40b3a0 <tap_fd>
  404cdd:	99                   	cltd   
  404cde:	c1 ea 1a             	shr    $0x1a,%edx
  404ce1:	01 d0                	add    %edx,%eax
  404ce3:	83 e0 3f             	and    $0x3f,%eax
  404ce6:	29 d0                	sub    %edx,%eax
  404ce8:	ba 01 00 00 00       	mov    $0x1,%edx
  404ced:	89 c1                	mov    %eax,%ecx
  404cef:	48 d3 e2             	shl    %cl,%rdx
  404cf2:	48 89 d0             	mov    %rdx,%rax
  404cf5:	48 21 f0             	and    %rsi,%rax
  404cf8:	48 85 c0             	test   %rax,%rax
  404cfb:	0f 84 d3 00 00 00    	je     404dd4 <teavpn_tcp_server+0x9a5>
  404d01:	b8 00 00 00 00       	mov    $0x0,%eax
  404d06:	e8 51 09 00 00       	callq  40565c <get_bufchan_index>
  404d0b:	66 89 85 d4 5c fe ff 	mov    %ax,-0x1a32c(%rbp)
  404d12:	66 83 bd d4 5c fe ff 	cmpw   $0xffff,-0x1a32c(%rbp)
  404d19:	ff 
  404d1a:	74 e5                	je     404d01 <teavpn_tcp_server+0x8d2>
  404d1c:	48 8b 15 9d 66 00 00 	mov    0x669d(%rip),%rdx        # 40b3c0 <bufchan>
  404d23:	48 0f bf 85 d4 5c fe 	movswq -0x1a32c(%rbp),%rax
  404d2a:	ff 
  404d2b:	48 69 c0 30 10 00 00 	imul   $0x1030,%rax,%rax
  404d32:	48 01 d0             	add    %rdx,%rax
  404d35:	48 83 c0 10          	add    $0x10,%rax
  404d39:	48 8d 48 10          	lea    0x10(%rax),%rcx
  404d3d:	8b 05 5d 66 00 00    	mov    0x665d(%rip),%eax        # 40b3a0 <tap_fd>
  404d43:	ba b8 0b 00 00       	mov    $0xbb8,%edx
  404d48:	48 89 ce             	mov    %rcx,%rsi
  404d4b:	89 c7                	mov    %eax,%edi
  404d4d:	e8 8e d8 ff ff       	callq  4025e0 <read@plt>
  404d52:	48 89 85 00 5d fe ff 	mov    %rax,-0x1a300(%rbp)
  404d59:	48 83 bd 00 5d fe ff 	cmpq   $0x0,-0x1a300(%rbp)
  404d60:	00 
  404d61:	79 1f                	jns    404d82 <teavpn_tcp_server+0x953>
  404d63:	48 8d 3d 9d 39 00 00 	lea    0x399d(%rip),%rdi        # 408707 <_IO_stdin_used+0x707>
  404d6a:	b8 00 00 00 00       	mov    $0x0,%eax
  404d6f:	e8 95 22 00 00       	callq  407009 <internal_debug_log>
  404d74:	48 8d 3d 8c 39 00 00 	lea    0x398c(%rip),%rdi        # 408707 <_IO_stdin_used+0x707>
  404d7b:	e8 c0 d9 ff ff       	callq  402740 <perror@plt>
  404d80:	eb 53                	jmp    404dd5 <teavpn_tcp_server+0x9a6>
  404d82:	48 8b 15 37 66 00 00 	mov    0x6637(%rip),%rdx        # 40b3c0 <bufchan>
  404d89:	48 0f bf 85 d4 5c fe 	movswq -0x1a32c(%rbp),%rax
  404d90:	ff 
  404d91:	48 69 c0 30 10 00 00 	imul   $0x1030,%rax,%rax
  404d98:	48 01 d0             	add    %rdx,%rax
  404d9b:	48 83 c0 10          	add    $0x10,%rax
  404d9f:	c7 00 02 00 00 00    	movl   $0x2,(%rax)
  404da5:	48 8b 85 00 5d fe ff 	mov    -0x1a300(%rbp),%rax
  404dac:	89 c1                	mov    %eax,%ecx
  404dae:	48 8b 15 0b 66 00 00 	mov    0x660b(%rip),%rdx        # 40b3c0 <bufchan>
  404db5:	48 0f bf 85 d4 5c fe 	movswq -0x1a32c(%rbp),%rax
  404dbc:	ff 
  404dbd:	48 69 c0 30 10 00 00 	imul   $0x1030,%rax,%rax
  404dc4:	48 01 d0             	add    %rdx,%rax
  404dc7:	48 83 c0 10          	add    $0x10,%rax
  404dcb:	8d 51 10             	lea    0x10(%rcx),%edx
  404dce:	66 89 50 04          	mov    %dx,0x4(%rax)
  404dd2:	eb 01                	jmp    404dd5 <teavpn_tcp_server+0x9a6>
  404dd4:	90                   	nop
  404dd5:	bb 00 00 00 00       	mov    $0x0,%ebx
  404dda:	e9 f6 03 00 00       	jmpq   4051d5 <teavpn_tcp_server+0xda6>
  404ddf:	48 8b 0d e2 65 00 00 	mov    0x65e2(%rip),%rcx        # 40b3c8 <connections>
  404de6:	0f b7 d3             	movzwl %bx,%edx
  404de9:	48 89 d0             	mov    %rdx,%rax
  404dec:	48 c1 e0 02          	shl    $0x2,%rax
  404df0:	48 01 d0             	add    %rdx,%rax
  404df3:	48 c1 e0 04          	shl    $0x4,%rax
  404df7:	48 01 c8             	add    %rcx,%rax
  404dfa:	0f b6 40 04          	movzbl 0x4(%rax),%eax
  404dfe:	84 c0                	test   %al,%al
  404e00:	0f 84 ca 03 00 00    	je     4051d0 <teavpn_tcp_server+0xda1>
  404e06:	48 8b 0d bb 65 00 00 	mov    0x65bb(%rip),%rcx        # 40b3c8 <connections>
  404e0d:	0f b7 d3             	movzwl %bx,%edx
  404e10:	48 89 d0             	mov    %rdx,%rax
  404e13:	48 c1 e0 02          	shl    $0x2,%rax
  404e17:	48 01 d0             	add    %rdx,%rax
  404e1a:	48 c1 e0 04          	shl    $0x4,%rax
  404e1e:	48 01 c8             	add    %rcx,%rax
  404e21:	8b 00                	mov    (%rax),%eax
  404e23:	8d 50 3f             	lea    0x3f(%rax),%edx
  404e26:	85 c0                	test   %eax,%eax
  404e28:	0f 48 c2             	cmovs  %edx,%eax
  404e2b:	c1 f8 06             	sar    $0x6,%eax
  404e2e:	48 98                	cltq   
  404e30:	48 8b b4 c5 20 5d fe 	mov    -0x1a2e0(%rbp,%rax,8),%rsi
  404e37:	ff 
  404e38:	48 8b 0d 89 65 00 00 	mov    0x6589(%rip),%rcx        # 40b3c8 <connections>
  404e3f:	0f b7 d3             	movzwl %bx,%edx
  404e42:	48 89 d0             	mov    %rdx,%rax
  404e45:	48 c1 e0 02          	shl    $0x2,%rax
  404e49:	48 01 d0             	add    %rdx,%rax
  404e4c:	48 c1 e0 04          	shl    $0x4,%rax
  404e50:	48 01 c8             	add    %rcx,%rax
  404e53:	8b 00                	mov    (%rax),%eax
  404e55:	99                   	cltd   
  404e56:	c1 ea 1a             	shr    $0x1a,%edx
  404e59:	01 d0                	add    %edx,%eax
  404e5b:	83 e0 3f             	and    $0x3f,%eax
  404e5e:	29 d0                	sub    %edx,%eax
  404e60:	ba 01 00 00 00       	mov    $0x1,%edx
  404e65:	89 c1                	mov    %eax,%ecx
  404e67:	48 d3 e2             	shl    %cl,%rdx
  404e6a:	48 89 d0             	mov    %rdx,%rax
  404e6d:	48 21 f0             	and    %rsi,%rax
  404e70:	48 85 c0             	test   %rax,%rax
  404e73:	0f 84 57 03 00 00    	je     4051d0 <teavpn_tcp_server+0xda1>
  404e79:	b8 00 00 00 00       	mov    $0x0,%eax
  404e7e:	e8 d9 07 00 00       	callq  40565c <get_bufchan_index>
  404e83:	66 89 85 d4 5c fe ff 	mov    %ax,-0x1a32c(%rbp)
  404e8a:	66 83 bd d4 5c fe ff 	cmpw   $0xffff,-0x1a32c(%rbp)
  404e91:	ff 
  404e92:	74 e5                	je     404e79 <teavpn_tcp_server+0xa4a>
  404e94:	48 8b 15 25 65 00 00 	mov    0x6525(%rip),%rdx        # 40b3c0 <bufchan>
  404e9b:	48 0f bf 85 d4 5c fe 	movswq -0x1a32c(%rbp),%rax
  404ea2:	ff 
  404ea3:	48 69 c0 30 10 00 00 	imul   $0x1030,%rax,%rax
  404eaa:	48 01 d0             	add    %rdx,%rax
  404ead:	48 8d 48 10          	lea    0x10(%rax),%rcx
  404eb1:	48 8b 35 10 65 00 00 	mov    0x6510(%rip),%rsi        # 40b3c8 <connections>
  404eb8:	0f b7 d3             	movzwl %bx,%edx
  404ebb:	48 89 d0             	mov    %rdx,%rax
  404ebe:	48 c1 e0 02          	shl    $0x2,%rax
  404ec2:	48 01 d0             	add    %rdx,%rax
  404ec5:	48 c1 e0 04          	shl    $0x4,%rax
  404ec9:	48 01 f0             	add    %rsi,%rax
  404ecc:	8b 00                	mov    (%rax),%eax
  404ece:	ba a0 0f 00 00       	mov    $0xfa0,%edx
  404ed3:	48 89 ce             	mov    %rcx,%rsi
  404ed6:	89 c7                	mov    %eax,%edi
  404ed8:	e8 03 d7 ff ff       	callq  4025e0 <read@plt>
  404edd:	48 89 85 00 5d fe ff 	mov    %rax,-0x1a300(%rbp)
  404ee4:	48 83 bd 00 5d fe ff 	cmpq   $0x0,-0x1a300(%rbp)
  404eeb:	00 
  404eec:	0f 85 2b 01 00 00    	jne    40501d <teavpn_tcp_server+0xbee>
  404ef2:	48 8b 0d cf 64 00 00 	mov    0x64cf(%rip),%rcx        # 40b3c8 <connections>
  404ef9:	0f b7 d3             	movzwl %bx,%edx
  404efc:	48 89 d0             	mov    %rdx,%rax
  404eff:	48 c1 e0 02          	shl    $0x2,%rax
  404f03:	48 01 d0             	add    %rdx,%rax
  404f06:	48 c1 e0 04          	shl    $0x4,%rax
  404f0a:	48 01 c8             	add    %rcx,%rax
  404f0d:	8b 00                	mov    (%rax),%eax
  404f0f:	8d 50 3f             	lea    0x3f(%rax),%edx
  404f12:	85 c0                	test   %eax,%eax
  404f14:	0f 48 c2             	cmovs  %edx,%eax
  404f17:	c1 f8 06             	sar    $0x6,%eax
  404f1a:	89 c6                	mov    %eax,%esi
  404f1c:	48 63 c6             	movslq %esi,%rax
  404f1f:	48 8b bc c5 20 5d fe 	mov    -0x1a2e0(%rbp,%rax,8),%rdi
  404f26:	ff 
  404f27:	48 8b 0d 9a 64 00 00 	mov    0x649a(%rip),%rcx        # 40b3c8 <connections>
  404f2e:	0f b7 d3             	movzwl %bx,%edx
  404f31:	48 89 d0             	mov    %rdx,%rax
  404f34:	48 c1 e0 02          	shl    $0x2,%rax
  404f38:	48 01 d0             	add    %rdx,%rax
  404f3b:	48 c1 e0 04          	shl    $0x4,%rax
  404f3f:	48 01 c8             	add    %rcx,%rax
  404f42:	8b 00                	mov    (%rax),%eax
  404f44:	99                   	cltd   
  404f45:	c1 ea 1a             	shr    $0x1a,%edx
  404f48:	01 d0                	add    %edx,%eax
  404f4a:	83 e0 3f             	and    $0x3f,%eax
  404f4d:	29 d0                	sub    %edx,%eax
  404f4f:	ba 01 00 00 00       	mov    $0x1,%edx
  404f54:	89 c1                	mov    %eax,%ecx
  404f56:	48 d3 e2             	shl    %cl,%rdx
  404f59:	48 89 d0             	mov    %rdx,%rax
  404f5c:	48 f7 d0             	not    %rax
  404f5f:	48 21 c7             	and    %rax,%rdi
  404f62:	48 89 fa             	mov    %rdi,%rdx
  404f65:	48 63 c6             	movslq %esi,%rax
  404f68:	48 89 94 c5 20 5d fe 	mov    %rdx,-0x1a2e0(%rbp,%rax,8)
  404f6f:	ff 
  404f70:	48 8b 0d 51 64 00 00 	mov    0x6451(%rip),%rcx        # 40b3c8 <connections>
  404f77:	0f b7 d3             	movzwl %bx,%edx
  404f7a:	48 89 d0             	mov    %rdx,%rax
  404f7d:	48 c1 e0 02          	shl    $0x2,%rax
  404f81:	48 01 d0             	add    %rdx,%rax
  404f84:	48 c1 e0 04          	shl    $0x4,%rax
  404f88:	48 01 c8             	add    %rcx,%rax
  404f8b:	8b 00                	mov    (%rax),%eax
  404f8d:	89 c7                	mov    %eax,%edi
  404f8f:	e8 1c d6 ff ff       	callq  4025b0 <close@plt>
  404f94:	0f b7 c3             	movzwl %bx,%eax
  404f97:	89 c7                	mov    %eax,%edi
  404f99:	e8 39 08 00 00       	callq  4057d7 <connection_zero>
  404f9e:	0f b6 05 35 64 00 00 	movzbl 0x6435(%rip),%eax        # 40b3da <verbose_level>
  404fa5:	84 c0                	test   %al,%al
  404fa7:	0f 84 34 02 00 00    	je     4051e1 <teavpn_tcp_server+0xdb2>
  404fad:	48 8b 0d 14 64 00 00 	mov    0x6414(%rip),%rcx        # 40b3c8 <connections>
  404fb4:	0f b7 d3             	movzwl %bx,%edx
  404fb7:	48 89 d0             	mov    %rdx,%rax
  404fba:	48 c1 e0 02          	shl    $0x2,%rax
  404fbe:	48 01 d0             	add    %rdx,%rax
  404fc1:	48 c1 e0 04          	shl    $0x4,%rax
  404fc5:	48 01 c8             	add    %rcx,%rax
  404fc8:	0f b7 40 42          	movzwl 0x42(%rax),%eax
  404fcc:	0f b7 c0             	movzwl %ax,%eax
  404fcf:	89 c7                	mov    %eax,%edi
  404fd1:	e8 2a d7 ff ff       	callq  402700 <ntohs@plt>
  404fd6:	44 0f b7 e0          	movzwl %ax,%r12d
  404fda:	48 8b 0d e7 63 00 00 	mov    0x63e7(%rip),%rcx        # 40b3c8 <connections>
  404fe1:	0f b7 d3             	movzwl %bx,%edx
  404fe4:	48 89 d0             	mov    %rdx,%rax
  404fe7:	48 c1 e0 02          	shl    $0x2,%rax
  404feb:	48 01 d0             	add    %rdx,%rax
  404fee:	48 c1 e0 04          	shl    $0x4,%rax
  404ff2:	48 01 c8             	add    %rcx,%rax
  404ff5:	8b 40 44             	mov    0x44(%rax),%eax
  404ff8:	89 c7                	mov    %eax,%edi
  404ffa:	e8 d1 d4 ff ff       	callq  4024d0 <inet_ntoa@plt>
  404fff:	44 89 e2             	mov    %r12d,%edx
  405002:	48 89 c6             	mov    %rax,%rsi
  405005:	48 8d 3d 12 37 00 00 	lea    0x3712(%rip),%rdi        # 40871e <_IO_stdin_used+0x71e>
  40500c:	b8 00 00 00 00       	mov    $0x0,%eax
  405011:	e8 f3 1f 00 00       	callq  407009 <internal_debug_log>
  405016:	84 c0                	test   %al,%al
  405018:	e9 c4 01 00 00       	jmpq   4051e1 <teavpn_tcp_server+0xdb2>
  40501d:	48 83 bd 00 5d fe ff 	cmpq   $0x0,-0x1a300(%rbp)
  405024:	00 
  405025:	0f 89 a5 01 00 00    	jns    4051d0 <teavpn_tcp_server+0xda1>
  40502b:	48 8b 0d 96 63 00 00 	mov    0x6396(%rip),%rcx        # 40b3c8 <connections>
  405032:	0f b7 d3             	movzwl %bx,%edx
  405035:	48 89 d0             	mov    %rdx,%rax
  405038:	48 c1 e0 02          	shl    $0x2,%rax
  40503c:	48 01 d0             	add    %rdx,%rax
  40503f:	48 c1 e0 04          	shl    $0x4,%rax
  405043:	48 01 c8             	add    %rcx,%rax
  405046:	8b 40 44             	mov    0x44(%rax),%eax
  405049:	89 c7                	mov    %eax,%edi
  40504b:	e8 80 d4 ff ff       	callq  4024d0 <inet_ntoa@plt>
  405050:	48 89 85 08 5d fe ff 	mov    %rax,-0x1a2f8(%rbp)
  405057:	48 8b 0d 6a 63 00 00 	mov    0x636a(%rip),%rcx        # 40b3c8 <connections>
  40505e:	0f b7 d3             	movzwl %bx,%edx
  405061:	48 89 d0             	mov    %rdx,%rax
  405064:	48 c1 e0 02          	shl    $0x2,%rax
  405068:	48 01 d0             	add    %rdx,%rax
  40506b:	48 c1 e0 04          	shl    $0x4,%rax
  40506f:	48 01 c8             	add    %rcx,%rax
  405072:	0f b7 40 42          	movzwl 0x42(%rax),%eax
  405076:	0f b7 c0             	movzwl %ax,%eax
  405079:	89 c7                	mov    %eax,%edi
  40507b:	e8 80 d6 ff ff       	callq  402700 <ntohs@plt>
  405080:	66 89 85 d6 5c fe ff 	mov    %ax,-0x1a32a(%rbp)
  405087:	0f b7 95 d6 5c fe ff 	movzwl -0x1a32a(%rbp),%edx
  40508e:	48 8b 85 08 5d fe ff 	mov    -0x1a2f8(%rbp),%rax
  405095:	48 89 c6             	mov    %rax,%rsi
  405098:	48 8d 3d 99 36 00 00 	lea    0x3699(%rip),%rdi        # 408738 <_IO_stdin_used+0x738>
  40509f:	b8 00 00 00 00       	mov    $0x0,%eax
  4050a4:	e8 60 1f 00 00       	callq  407009 <internal_debug_log>
  4050a9:	48 8d 3d a0 36 00 00 	lea    0x36a0(%rip),%rdi        # 408750 <_IO_stdin_used+0x750>
  4050b0:	e8 8b d6 ff ff       	callq  402740 <perror@plt>
  4050b5:	48 8b 0d 0c 63 00 00 	mov    0x630c(%rip),%rcx        # 40b3c8 <connections>
  4050bc:	0f b7 d3             	movzwl %bx,%edx
  4050bf:	48 89 d0             	mov    %rdx,%rax
  4050c2:	48 c1 e0 02          	shl    $0x2,%rax
  4050c6:	48 01 d0             	add    %rdx,%rax
  4050c9:	48 c1 e0 04          	shl    $0x4,%rax
  4050cd:	48 01 c8             	add    %rcx,%rax
  4050d0:	0f b6 50 05          	movzbl 0x5(%rax),%edx
  4050d4:	83 c2 01             	add    $0x1,%edx
  4050d7:	88 50 05             	mov    %dl,0x5(%rax)
  4050da:	48 8b 0d e7 62 00 00 	mov    0x62e7(%rip),%rcx        # 40b3c8 <connections>
  4050e1:	0f b7 d3             	movzwl %bx,%edx
  4050e4:	48 89 d0             	mov    %rdx,%rax
  4050e7:	48 c1 e0 02          	shl    $0x2,%rax
  4050eb:	48 01 d0             	add    %rdx,%rax
  4050ee:	48 c1 e0 04          	shl    $0x4,%rax
  4050f2:	48 01 c8             	add    %rcx,%rax
  4050f5:	0f b6 40 05          	movzbl 0x5(%rax),%eax
  4050f9:	3c 0f                	cmp    $0xf,%al
  4050fb:	0f 86 e3 00 00 00    	jbe    4051e4 <teavpn_tcp_server+0xdb5>
  405101:	0f b7 95 d6 5c fe ff 	movzwl -0x1a32a(%rbp),%edx
  405108:	0f b7 85 d6 5c fe ff 	movzwl -0x1a32a(%rbp),%eax
  40510f:	89 c6                	mov    %eax,%esi
  405111:	48 8d 3d 58 36 00 00 	lea    0x3658(%rip),%rdi        # 408770 <_IO_stdin_used+0x770>
  405118:	b8 00 00 00 00       	mov    $0x0,%eax
  40511d:	e8 e7 1e 00 00       	callq  407009 <internal_debug_log>
  405122:	48 8b 0d 9f 62 00 00 	mov    0x629f(%rip),%rcx        # 40b3c8 <connections>
  405129:	0f b7 d3             	movzwl %bx,%edx
  40512c:	48 89 d0             	mov    %rdx,%rax
  40512f:	48 c1 e0 02          	shl    $0x2,%rax
  405133:	48 01 d0             	add    %rdx,%rax
  405136:	48 c1 e0 04          	shl    $0x4,%rax
  40513a:	48 01 c8             	add    %rcx,%rax
  40513d:	8b 00                	mov    (%rax),%eax
  40513f:	8d 50 3f             	lea    0x3f(%rax),%edx
  405142:	85 c0                	test   %eax,%eax
  405144:	0f 48 c2             	cmovs  %edx,%eax
  405147:	c1 f8 06             	sar    $0x6,%eax
  40514a:	89 c6                	mov    %eax,%esi
  40514c:	48 63 c6             	movslq %esi,%rax
  40514f:	48 8b bc c5 20 5d fe 	mov    -0x1a2e0(%rbp,%rax,8),%rdi
  405156:	ff 
  405157:	48 8b 0d 6a 62 00 00 	mov    0x626a(%rip),%rcx        # 40b3c8 <connections>
  40515e:	0f b7 d3             	movzwl %bx,%edx
  405161:	48 89 d0             	mov    %rdx,%rax
  405164:	48 c1 e0 02          	shl    $0x2,%rax
  405168:	48 01 d0             	add    %rdx,%rax
  40516b:	48 c1 e0 04          	shl    $0x4,%rax
  40516f:	48 01 c8             	add    %rcx,%rax
  405172:	8b 00                	mov    (%rax),%eax
  405174:	99                   	cltd   
  405175:	c1 ea 1a             	shr    $0x1a,%edx
  405178:	01 d0                	add    %edx,%eax
  40517a:	83 e0 3f             	and    $0x3f,%eax
  40517d:	29 d0                	sub    %edx,%eax
  40517f:	ba 01 00 00 00       	mov    $0x1,%edx
  405184:	89 c1                	mov    %eax,%ecx
  405186:	48 d3 e2             	shl    %cl,%rdx
  405189:	48 89 d0             	mov    %rdx,%rax
  40518c:	48 f7 d0             	not    %rax
  40518f:	48 21 c7             	and    %rax,%rdi
  405192:	48 89 fa             	mov    %rdi,%rdx
  405195:	48 63 c6             	movslq %esi,%rax
  405198:	48 89 94 c5 20 5d fe 	mov    %rdx,-0x1a2e0(%rbp,%rax,8)
  40519f:	ff 
  4051a0:	48 8b 0d 21 62 00 00 	mov    0x6221(%rip),%rcx        # 40b3c8 <connections>
  4051a7:	0f b7 d3             	movzwl %bx,%edx
  4051aa:	48 89 d0             	mov    %rdx,%rax
  4051ad:	48 c1 e0 02          	shl    $0x2,%rax
  4051b1:	48 01 d0             	add    %rdx,%rax
  4051b4:	48 c1 e0 04          	shl    $0x4,%rax
  4051b8:	48 01 c8             	add    %rcx,%rax
  4051bb:	8b 00                	mov    (%rax),%eax
  4051bd:	89 c7                	mov    %eax,%edi
  4051bf:	e8 ec d3 ff ff       	callq  4025b0 <close@plt>
  4051c4:	0f b7 c3             	movzwl %bx,%eax
  4051c7:	89 c7                	mov    %eax,%edi
  4051c9:	e8 09 06 00 00       	callq  4057d7 <connection_zero>
  4051ce:	eb 14                	jmp    4051e4 <teavpn_tcp_server+0xdb5>
  4051d0:	89 d8                	mov    %ebx,%eax
  4051d2:	8d 58 01             	lea    0x1(%rax),%ebx
  4051d5:	66 83 fb 17          	cmp    $0x17,%bx
  4051d9:	0f 86 00 fc ff ff    	jbe    404ddf <teavpn_tcp_server+0x9b0>
  4051df:	eb 04                	jmp    4051e5 <teavpn_tcp_server+0xdb6>
  4051e1:	90                   	nop
  4051e2:	eb 01                	jmp    4051e5 <teavpn_tcp_server+0xdb6>
  4051e4:	90                   	nop
  4051e5:	8b 05 bd 61 00 00    	mov    0x61bd(%rip),%eax        # 40b3a8 <m_pipe_fd>
  4051eb:	8d 50 3f             	lea    0x3f(%rax),%edx
  4051ee:	85 c0                	test   %eax,%eax
  4051f0:	0f 48 c2             	cmovs  %edx,%eax
  4051f3:	c1 f8 06             	sar    $0x6,%eax
  4051f6:	48 98                	cltq   
  4051f8:	48 8b b4 c5 20 5d fe 	mov    -0x1a2e0(%rbp,%rax,8),%rsi
  4051ff:	ff 
  405200:	8b 05 a2 61 00 00    	mov    0x61a2(%rip),%eax        # 40b3a8 <m_pipe_fd>
  405206:	99                   	cltd   
  405207:	c1 ea 1a             	shr    $0x1a,%edx
  40520a:	01 d0                	add    %edx,%eax
  40520c:	83 e0 3f             	and    $0x3f,%eax
  40520f:	29 d0                	sub    %edx,%eax
  405211:	ba 01 00 00 00       	mov    $0x1,%edx
  405216:	89 c1                	mov    %eax,%ecx
  405218:	48 d3 e2             	shl    %cl,%rdx
  40521b:	48 89 d0             	mov    %rdx,%rax
  40521e:	48 21 f0             	and    %rsi,%rax
  405221:	48 85 c0             	test   %rax,%rax
  405224:	0f 84 9f f7 ff ff    	je     4049c9 <teavpn_tcp_server+0x59a>
  40522a:	8b 05 78 61 00 00    	mov    0x6178(%rip),%eax        # 40b3a8 <m_pipe_fd>
  405230:	48 8d 8d d3 5c fe ff 	lea    -0x1a32d(%rbp),%rcx
  405237:	ba 01 00 00 00       	mov    $0x1,%edx
  40523c:	48 89 ce             	mov    %rcx,%rsi
  40523f:	89 c7                	mov    %eax,%edi
  405241:	e8 9a d3 ff ff       	callq  4025e0 <read@plt>
  405246:	48 89 85 00 5d fe ff 	mov    %rax,-0x1a300(%rbp)
  40524d:	48 83 bd 00 5d fe ff 	cmpq   $0x0,-0x1a300(%rbp)
  405254:	00 
  405255:	0f 89 6e f7 ff ff    	jns    4049c9 <teavpn_tcp_server+0x59a>
  40525b:	48 8d 3d 61 35 00 00 	lea    0x3561(%rip),%rdi        # 4087c3 <_IO_stdin_used+0x7c3>
  405262:	b8 00 00 00 00       	mov    $0x0,%eax
  405267:	e8 9d 1d 00 00       	callq  407009 <internal_debug_log>
  40526c:	48 8d 3d 50 35 00 00 	lea    0x3550(%rip),%rdi        # 4087c3 <_IO_stdin_used+0x7c3>
  405273:	e8 c8 d4 ff ff       	callq  402740 <perror@plt>
  405278:	e9 4c f7 ff ff       	jmpq   4049c9 <teavpn_tcp_server+0x59a>
  40527d:	90                   	nop
  40527e:	e9 46 f7 ff ff       	jmpq   4049c9 <teavpn_tcp_server+0x59a>
  405283:	48 8b a5 c0 5c fe ff 	mov    -0x1a340(%rbp),%rsp
  40528a:	48 8b 5d c8          	mov    -0x38(%rbp),%rbx
  40528e:	64 48 33 1c 25 28 00 	xor    %fs:0x28,%rbx
  405295:	00 00 
  405297:	74 05                	je     40529e <teavpn_tcp_server+0xe6f>
  405299:	e8 72 d2 ff ff       	callq  402510 <__stack_chk_fail@plt>
  40529e:	48 8d 65 d8          	lea    -0x28(%rbp),%rsp
  4052a2:	5b                   	pop    %rbx
  4052a3:	41 5c                	pop    %r12
  4052a5:	41 5d                	pop    %r13
  4052a7:	41 5e                	pop    %r14
  4052a9:	41 5f                	pop    %r15
  4052ab:	5d                   	pop    %rbp
  4052ac:	c3                   	retq   

00000000004052ad <teavpn_tcp_worker_thread>:
  4052ad:	f3 0f 1e fa          	endbr64 
  4052b1:	55                   	push   %rbp
  4052b2:	48 89 e5             	mov    %rsp,%rbp
  4052b5:	48 89 7d f8          	mov    %rdi,-0x8(%rbp)
  4052b9:	b8 00 00 00 00       	mov    $0x0,%eax
  4052be:	5d                   	pop    %rbp
  4052bf:	c3                   	retq   

00000000004052c0 <teavpn_tcp_accept_worker_thread>:
  4052c0:	f3 0f 1e fa          	endbr64 
  4052c4:	55                   	push   %rbp
  4052c5:	48 89 e5             	mov    %rsp,%rbp
  4052c8:	48 89 7d f8          	mov    %rdi,-0x8(%rbp)
  4052cc:	b8 00 00 00 00       	mov    $0x0,%eax
  4052d1:	5d                   	pop    %rbp
  4052d2:	c3                   	retq   

00000000004052d3 <teavpn_tcp_server_init>:
  4052d3:	f3 0f 1e fa          	endbr64 
  4052d7:	55                   	push   %rbp
  4052d8:	48 89 e5             	mov    %rsp,%rbp
  4052db:	53                   	push   %rbx
  4052dc:	48 83 ec 18          	sub    $0x18,%rsp
  4052e0:	48 89 7d e8          	mov    %rdi,-0x18(%rbp)
  4052e4:	48 89 75 e0          	mov    %rsi,-0x20(%rbp)
  4052e8:	bb 00 00 00 00       	mov    $0x0,%ebx
  4052ed:	eb 1c                	jmp    40530b <teavpn_tcp_server_init+0x38>
  4052ef:	48 8b 15 ca 60 00 00 	mov    0x60ca(%rip),%rdx        # 40b3c0 <bufchan>
  4052f6:	0f b7 c3             	movzwl %bx,%eax
  4052f9:	48 69 c0 30 10 00 00 	imul   $0x1030,%rax,%rax
  405300:	48 01 d0             	add    %rdx,%rax
  405303:	66 c7 00 00 00       	movw   $0x0,(%rax)
  405308:	83 c3 01             	add    $0x1,%ebx
  40530b:	66 83 fb 17          	cmp    $0x17,%bx
  40530f:	76 de                	jbe    4052ef <teavpn_tcp_server_init+0x1c>
  405311:	bb 00 00 00 00       	mov    $0x0,%ebx
  405316:	eb 0d                	jmp    405325 <teavpn_tcp_server_init+0x52>
  405318:	0f b7 c3             	movzwl %bx,%eax
  40531b:	89 c7                	mov    %eax,%edi
  40531d:	e8 4b 04 00 00       	callq  40576d <queue_zero>
  405322:	83 c3 01             	add    $0x1,%ebx
  405325:	66 83 fb 2f          	cmp    $0x2f,%bx
  405329:	76 ed                	jbe    405318 <teavpn_tcp_server_init+0x45>
  40532b:	bb 00 00 00 00       	mov    $0x0,%ebx
  405330:	eb 0d                	jmp    40533f <teavpn_tcp_server_init+0x6c>
  405332:	0f b7 c3             	movzwl %bx,%eax
  405335:	89 c7                	mov    %eax,%edi
  405337:	e8 9b 04 00 00       	callq  4057d7 <connection_zero>
  40533c:	83 c3 01             	add    $0x1,%ebx
  40533f:	66 83 fb 17          	cmp    $0x17,%bx
  405343:	76 ed                	jbe    405332 <teavpn_tcp_server_init+0x5f>
  405345:	48 8b 45 e0          	mov    -0x20(%rbp),%rax
  405349:	48 8b 40 08          	mov    0x8(%rax),%rax
  40534d:	48 85 c0             	test   %rax,%rax
  405350:	74 35                	je     405387 <teavpn_tcp_server_init+0xb4>
  405352:	48 8b 55 e0          	mov    -0x20(%rbp),%rdx
  405356:	48 8b 45 e8          	mov    -0x18(%rbp),%rax
  40535a:	48 89 d6             	mov    %rdx,%rsi
  40535d:	48 89 c7             	mov    %rax,%rdi
  405360:	e8 28 0c 00 00       	callq  405f8d <teavpn_server_config_parser>
  405365:	83 f0 01             	xor    $0x1,%eax
  405368:	84 c0                	test   %al,%al
  40536a:	74 1b                	je     405387 <teavpn_tcp_server_init+0xb4>
  40536c:	48 8d 3d 6d 34 00 00 	lea    0x346d(%rip),%rdi        # 4087e0 <_IO_stdin_used+0x7e0>
  405373:	b8 00 00 00 00       	mov    $0x0,%eax
  405378:	e8 8c 1c 00 00       	callq  407009 <internal_debug_log>
  40537d:	b8 01 00 00 00       	mov    $0x1,%eax
  405382:	e9 ce 02 00 00       	jmpq   405655 <teavpn_tcp_server_init+0x382>
  405387:	48 8b 45 e0          	mov    -0x20(%rbp),%rax
  40538b:	0f b6 40 3c          	movzbl 0x3c(%rax),%eax
  40538f:	88 05 45 60 00 00    	mov    %al,0x6045(%rip)        # 40b3da <verbose_level>
  405395:	48 8b 45 e0          	mov    -0x20(%rbp),%rax
  405399:	48 8b 40 18          	mov    0x18(%rax),%rax
  40539d:	48 85 c0             	test   %rax,%rax
  4053a0:	75 1b                	jne    4053bd <teavpn_tcp_server_init+0xea>
  4053a2:	48 8d 3d 45 34 00 00 	lea    0x3445(%rip),%rdi        # 4087ee <_IO_stdin_used+0x7ee>
  4053a9:	b8 00 00 00 00       	mov    $0x0,%eax
  4053ae:	e8 56 1c 00 00       	callq  407009 <internal_debug_log>
  4053b3:	b8 01 00 00 00       	mov    $0x1,%eax
  4053b8:	e9 98 02 00 00       	jmpq   405655 <teavpn_tcp_server_init+0x382>
  4053bd:	48 8d 3d e4 5f 00 00 	lea    0x5fe4(%rip),%rdi        # 40b3a8 <m_pipe_fd>
  4053c4:	e8 f7 d1 ff ff       	callq  4025c0 <pipe@plt>
  4053c9:	85 c0                	test   %eax,%eax
  4053cb:	79 27                	jns    4053f4 <teavpn_tcp_server_init+0x121>
  4053cd:	48 8d 3d 34 34 00 00 	lea    0x3434(%rip),%rdi        # 408808 <_IO_stdin_used+0x808>
  4053d4:	b8 00 00 00 00       	mov    $0x0,%eax
  4053d9:	e8 2b 1c 00 00       	callq  407009 <internal_debug_log>
  4053de:	48 8d 3d 23 34 00 00 	lea    0x3423(%rip),%rdi        # 408808 <_IO_stdin_used+0x808>
  4053e5:	e8 56 d3 ff ff       	callq  402740 <perror@plt>
  4053ea:	b8 01 00 00 00       	mov    $0x1,%eax
  4053ef:	e9 61 02 00 00       	jmpq   405655 <teavpn_tcp_server_init+0x382>
  4053f4:	0f b6 05 df 5f 00 00 	movzbl 0x5fdf(%rip),%eax        # 40b3da <verbose_level>
  4053fb:	3c 01                	cmp    $0x1,%al
  4053fd:	76 13                	jbe    405412 <teavpn_tcp_server_init+0x13f>
  4053ff:	48 8d 3d 22 34 00 00 	lea    0x3422(%rip),%rdi        # 408828 <_IO_stdin_used+0x828>
  405406:	b8 00 00 00 00       	mov    $0x0,%eax
  40540b:	e8 f9 1b 00 00       	callq  407009 <internal_debug_log>
  405410:	84 c0                	test   %al,%al
  405412:	48 8b 45 e0          	mov    -0x20(%rbp),%rax
  405416:	48 8b 40 20          	mov    0x20(%rax),%rax
  40541a:	be 01 00 00 00       	mov    $0x1,%esi
  40541f:	48 89 c7             	mov    %rax,%rdi
  405422:	e8 46 1d 00 00       	callq  40716d <tun_alloc>
  405427:	89 05 73 5f 00 00    	mov    %eax,0x5f73(%rip)        # 40b3a0 <tap_fd>
  40542d:	8b 05 6d 5f 00 00    	mov    0x5f6d(%rip),%eax        # 40b3a0 <tap_fd>
  405433:	85 c0                	test   %eax,%eax
  405435:	79 40                	jns    405477 <teavpn_tcp_server_init+0x1a4>
  405437:	48 8b 45 e0          	mov    -0x20(%rbp),%rax
  40543b:	48 8b 40 20          	mov    0x20(%rax),%rax
  40543f:	48 89 c6             	mov    %rax,%rsi
  405442:	48 8d 3d ff 33 00 00 	lea    0x33ff(%rip),%rdi        # 408848 <_IO_stdin_used+0x848>
  405449:	b8 00 00 00 00       	mov    $0x0,%eax
  40544e:	e8 b6 1b 00 00       	callq  407009 <internal_debug_log>
  405453:	8b 05 4f 5f 00 00    	mov    0x5f4f(%rip),%eax        # 40b3a8 <m_pipe_fd>
  405459:	89 c7                	mov    %eax,%edi
  40545b:	e8 50 d1 ff ff       	callq  4025b0 <close@plt>
  405460:	8b 05 46 5f 00 00    	mov    0x5f46(%rip),%eax        # 40b3ac <m_pipe_fd+0x4>
  405466:	89 c7                	mov    %eax,%edi
  405468:	e8 43 d1 ff ff       	callq  4025b0 <close@plt>
  40546d:	b8 01 00 00 00       	mov    $0x1,%eax
  405472:	e9 de 01 00 00       	jmpq   405655 <teavpn_tcp_server_init+0x382>
  405477:	0f b6 05 5c 5f 00 00 	movzbl 0x5f5c(%rip),%eax        # 40b3da <verbose_level>
  40547e:	3c 01                	cmp    $0x1,%al
  405480:	76 13                	jbe    405495 <teavpn_tcp_server_init+0x1c2>
  405482:	48 8d 3d eb 33 00 00 	lea    0x33eb(%rip),%rdi        # 408874 <_IO_stdin_used+0x874>
  405489:	b8 00 00 00 00       	mov    $0x0,%eax
  40548e:	e8 76 1b 00 00       	callq  407009 <internal_debug_log>
  405493:	84 c0                	test   %al,%al
  405495:	48 8b 45 e0          	mov    -0x20(%rbp),%rax
  405499:	48 8b 40 20          	mov    0x20(%rax),%rax
  40549d:	48 89 c6             	mov    %rax,%rsi
  4054a0:	48 8d 3d d1 33 00 00 	lea    0x33d1(%rip),%rdi        # 408878 <_IO_stdin_used+0x878>
  4054a7:	b8 00 00 00 00       	mov    $0x0,%eax
  4054ac:	e8 58 1b 00 00       	callq  407009 <internal_debug_log>
  4054b1:	48 8b 45 e0          	mov    -0x20(%rbp),%rax
  4054b5:	48 89 c7             	mov    %rax,%rdi
  4054b8:	e8 65 04 00 00       	callq  405922 <teavpn_tcp_server_init_iface>
  4054bd:	83 f0 01             	xor    $0x1,%eax
  4054c0:	84 c0                	test   %al,%al
  4054c2:	74 42                	je     405506 <teavpn_tcp_server_init+0x233>
  4054c4:	48 8d 3d d8 33 00 00 	lea    0x33d8(%rip),%rdi        # 4088a3 <_IO_stdin_used+0x8a3>
  4054cb:	b8 00 00 00 00       	mov    $0x0,%eax
  4054d0:	e8 34 1b 00 00       	callq  407009 <internal_debug_log>
  4054d5:	8b 05 cd 5e 00 00    	mov    0x5ecd(%rip),%eax        # 40b3a8 <m_pipe_fd>
  4054db:	89 c7                	mov    %eax,%edi
  4054dd:	e8 ce d0 ff ff       	callq  4025b0 <close@plt>
  4054e2:	8b 05 c4 5e 00 00    	mov    0x5ec4(%rip),%eax        # 40b3ac <m_pipe_fd+0x4>
  4054e8:	89 c7                	mov    %eax,%edi
  4054ea:	e8 c1 d0 ff ff       	callq  4025b0 <close@plt>
  4054ef:	8b 05 ab 5e 00 00    	mov    0x5eab(%rip),%eax        # 40b3a0 <tap_fd>
  4054f5:	89 c7                	mov    %eax,%edi
  4054f7:	e8 b4 d0 ff ff       	callq  4025b0 <close@plt>
  4054fc:	b8 01 00 00 00       	mov    $0x1,%eax
  405501:	e9 4f 01 00 00       	jmpq   405655 <teavpn_tcp_server_init+0x382>
  405506:	0f b6 05 cd 5e 00 00 	movzbl 0x5ecd(%rip),%eax        # 40b3da <verbose_level>
  40550d:	84 c0                	test   %al,%al
  40550f:	74 13                	je     405524 <teavpn_tcp_server_init+0x251>
  405511:	48 8d 3d a1 33 00 00 	lea    0x33a1(%rip),%rdi        # 4088b9 <_IO_stdin_used+0x8b9>
  405518:	b8 00 00 00 00       	mov    $0x0,%eax
  40551d:	e8 e7 1a 00 00       	callq  407009 <internal_debug_log>
  405522:	84 c0                	test   %al,%al
  405524:	ba 00 00 00 00       	mov    $0x0,%edx
  405529:	be 01 00 00 00       	mov    $0x1,%esi
  40552e:	bf 02 00 00 00       	mov    $0x2,%edi
  405533:	e8 a8 d2 ff ff       	callq  4027e0 <socket@plt>
  405538:	89 05 66 5e 00 00    	mov    %eax,0x5e66(%rip)        # 40b3a4 <net_fd>
  40553e:	8b 05 60 5e 00 00    	mov    0x5e60(%rip),%eax        # 40b3a4 <net_fd>
  405544:	85 c0                	test   %eax,%eax
  405546:	79 4e                	jns    405596 <teavpn_tcp_server_init+0x2c3>
  405548:	48 8d 3d 81 33 00 00 	lea    0x3381(%rip),%rdi        # 4088d0 <_IO_stdin_used+0x8d0>
  40554f:	b8 00 00 00 00       	mov    $0x0,%eax
  405554:	e8 b0 1a 00 00       	callq  407009 <internal_debug_log>
  405559:	48 8d 3d 89 33 00 00 	lea    0x3389(%rip),%rdi        # 4088e9 <_IO_stdin_used+0x8e9>
  405560:	e8 db d1 ff ff       	callq  402740 <perror@plt>
  405565:	8b 05 3d 5e 00 00    	mov    0x5e3d(%rip),%eax        # 40b3a8 <m_pipe_fd>
  40556b:	89 c7                	mov    %eax,%edi
  40556d:	e8 3e d0 ff ff       	callq  4025b0 <close@plt>
  405572:	8b 05 34 5e 00 00    	mov    0x5e34(%rip),%eax        # 40b3ac <m_pipe_fd+0x4>
  405578:	89 c7                	mov    %eax,%edi
  40557a:	e8 31 d0 ff ff       	callq  4025b0 <close@plt>
  40557f:	8b 05 1b 5e 00 00    	mov    0x5e1b(%rip),%eax        # 40b3a0 <tap_fd>
  405585:	89 c7                	mov    %eax,%edi
  405587:	e8 24 d0 ff ff       	callq  4025b0 <close@plt>
  40558c:	b8 01 00 00 00       	mov    $0x1,%eax
  405591:	e9 bf 00 00 00       	jmpq   405655 <teavpn_tcp_server_init+0x382>
  405596:	0f b6 05 3d 5e 00 00 	movzbl 0x5e3d(%rip),%eax        # 40b3da <verbose_level>
  40559d:	84 c0                	test   %al,%al
  40559f:	74 13                	je     4055b4 <teavpn_tcp_server_init+0x2e1>
  4055a1:	48 8d 3d 58 33 00 00 	lea    0x3358(%rip),%rdi        # 408900 <_IO_stdin_used+0x900>
  4055a8:	b8 00 00 00 00       	mov    $0x0,%eax
  4055ad:	e8 57 1a 00 00       	callq  407009 <internal_debug_log>
  4055b2:	84 c0                	test   %al,%al
  4055b4:	0f b6 05 1f 5e 00 00 	movzbl 0x5e1f(%rip),%eax        # 40b3da <verbose_level>
  4055bb:	84 c0                	test   %al,%al
  4055bd:	74 13                	je     4055d2 <teavpn_tcp_server_init+0x2ff>
  4055bf:	48 8d 3d 5a 33 00 00 	lea    0x335a(%rip),%rdi        # 408920 <_IO_stdin_used+0x920>
  4055c6:	b8 00 00 00 00       	mov    $0x0,%eax
  4055cb:	e8 39 1a 00 00       	callq  407009 <internal_debug_log>
  4055d0:	84 c0                	test   %al,%al
  4055d2:	8b 05 cc 5d 00 00    	mov    0x5dcc(%rip),%eax        # 40b3a4 <net_fd>
  4055d8:	89 c7                	mov    %eax,%edi
  4055da:	e8 c2 04 00 00       	callq  405aa1 <teavpn_tcp_server_socket_setup>
  4055df:	83 f0 01             	xor    $0x1,%eax
  4055e2:	84 c0                	test   %al,%al
  4055e4:	74 4c                	je     405632 <teavpn_tcp_server_init+0x35f>
  4055e6:	48 8d 3d 58 33 00 00 	lea    0x3358(%rip),%rdi        # 408945 <_IO_stdin_used+0x945>
  4055ed:	b8 00 00 00 00       	mov    $0x0,%eax
  4055f2:	e8 12 1a 00 00       	callq  407009 <internal_debug_log>
  4055f7:	8b 05 ab 5d 00 00    	mov    0x5dab(%rip),%eax        # 40b3a8 <m_pipe_fd>
  4055fd:	89 c7                	mov    %eax,%edi
  4055ff:	e8 ac cf ff ff       	callq  4025b0 <close@plt>
  405604:	8b 05 a2 5d 00 00    	mov    0x5da2(%rip),%eax        # 40b3ac <m_pipe_fd+0x4>
  40560a:	89 c7                	mov    %eax,%edi
  40560c:	e8 9f cf ff ff       	callq  4025b0 <close@plt>
  405611:	8b 05 8d 5d 00 00    	mov    0x5d8d(%rip),%eax        # 40b3a4 <net_fd>
  405617:	89 c7                	mov    %eax,%edi
  405619:	e8 92 cf ff ff       	callq  4025b0 <close@plt>
  40561e:	8b 05 7c 5d 00 00    	mov    0x5d7c(%rip),%eax        # 40b3a0 <tap_fd>
  405624:	89 c7                	mov    %eax,%edi
  405626:	e8 85 cf ff ff       	callq  4025b0 <close@plt>
  40562b:	b8 01 00 00 00       	mov    $0x1,%eax
  405630:	eb 23                	jmp    405655 <teavpn_tcp_server_init+0x382>
  405632:	0f b6 05 a1 5d 00 00 	movzbl 0x5da1(%rip),%eax        # 40b3da <verbose_level>
  405639:	84 c0                	test   %al,%al
  40563b:	74 13                	je     405650 <teavpn_tcp_server_init+0x37d>
  40563d:	48 8d 3d 1c 33 00 00 	lea    0x331c(%rip),%rdi        # 408960 <_IO_stdin_used+0x960>
  405644:	b8 00 00 00 00       	mov    $0x0,%eax
  405649:	e8 bb 19 00 00       	callq  407009 <internal_debug_log>
  40564e:	84 c0                	test   %al,%al
  405650:	b8 00 00 00 00       	mov    $0x0,%eax
  405655:	48 83 c4 18          	add    $0x18,%rsp
  405659:	5b                   	pop    %rbx
  40565a:	5d                   	pop    %rbp
  40565b:	c3                   	retq   

000000000040565c <get_bufchan_index>:
  40565c:	f3 0f 1e fa          	endbr64 
  405660:	55                   	push   %rbp
  405661:	48 89 e5             	mov    %rsp,%rbp
  405664:	48 83 ec 10          	sub    $0x10,%rsp
  405668:	66 c7 45 fe 00 00    	movw   $0x0,-0x2(%rbp)
  40566e:	eb 4d                	jmp    4056bd <get_bufchan_index+0x61>
  405670:	48 8b 15 49 5d 00 00 	mov    0x5d49(%rip),%rdx        # 40b3c0 <bufchan>
  405677:	48 0f bf 45 fe       	movswq -0x2(%rbp),%rax
  40567c:	48 69 c0 30 10 00 00 	imul   $0x1030,%rax,%rax
  405683:	48 01 d0             	add    %rdx,%rax
  405686:	0f b7 00             	movzwl (%rax),%eax
  405689:	66 85 c0             	test   %ax,%ax
  40568c:	75 24                	jne    4056b2 <get_bufchan_index+0x56>
  40568e:	0f b6 05 43 5d 00 00 	movzbl 0x5d43(%rip),%eax        # 40b3d8 <buf_chan_wait.6560>
  405695:	84 c0                	test   %al,%al
  405697:	74 10                	je     4056a9 <get_bufchan_index+0x4d>
  405699:	0f b6 05 38 5d 00 00 	movzbl 0x5d38(%rip),%eax        # 40b3d8 <buf_chan_wait.6560>
  4056a0:	83 e8 01             	sub    $0x1,%eax
  4056a3:	88 05 2f 5d 00 00    	mov    %al,0x5d2f(%rip)        # 40b3d8 <buf_chan_wait.6560>
  4056a9:	0f b7 45 fe          	movzwl -0x2(%rbp),%eax
  4056ad:	e9 b9 00 00 00       	jmpq   40576b <get_bufchan_index+0x10f>
  4056b2:	0f b7 45 fe          	movzwl -0x2(%rbp),%eax
  4056b6:	83 c0 01             	add    $0x1,%eax
  4056b9:	66 89 45 fe          	mov    %ax,-0x2(%rbp)
  4056bd:	66 83 7d fe 17       	cmpw   $0x17,-0x2(%rbp)
  4056c2:	7e ac                	jle    405670 <get_bufchan_index+0x14>
  4056c4:	0f b6 05 0d 5d 00 00 	movzbl 0x5d0d(%rip),%eax        # 40b3d8 <buf_chan_wait.6560>
  4056cb:	3c 1e                	cmp    $0x1e,%al
  4056cd:	76 09                	jbe    4056d8 <get_bufchan_index+0x7c>
  4056cf:	c6 05 03 5d 00 00 01 	movb   $0x1,0x5d03(%rip)        # 40b3d9 <sleep_state.6559>
  4056d6:	eb 1b                	jmp    4056f3 <get_bufchan_index+0x97>
  4056d8:	0f b6 05 f9 5c 00 00 	movzbl 0x5cf9(%rip),%eax        # 40b3d8 <buf_chan_wait.6560>
  4056df:	3c 64                	cmp    $0x64,%al
  4056e1:	77 10                	ja     4056f3 <get_bufchan_index+0x97>
  4056e3:	0f b6 05 ee 5c 00 00 	movzbl 0x5cee(%rip),%eax        # 40b3d8 <buf_chan_wait.6560>
  4056ea:	83 c0 01             	add    $0x1,%eax
  4056ed:	88 05 e5 5c 00 00    	mov    %al,0x5ce5(%rip)        # 40b3d8 <buf_chan_wait.6560>
  4056f3:	0f b6 05 df 5c 00 00 	movzbl 0x5cdf(%rip),%eax        # 40b3d9 <sleep_state.6559>
  4056fa:	84 c0                	test   %al,%al
  4056fc:	74 68                	je     405766 <get_bufchan_index+0x10a>
  4056fe:	0f b6 05 d5 5c 00 00 	movzbl 0x5cd5(%rip),%eax        # 40b3da <verbose_level>
  405705:	84 c0                	test   %al,%al
  405707:	74 13                	je     40571c <get_bufchan_index+0xc0>
  405709:	48 8d 3d 80 32 00 00 	lea    0x3280(%rip),%rdi        # 408990 <_IO_stdin_used+0x990>
  405710:	b8 00 00 00 00       	mov    $0x0,%eax
  405715:	e8 ef 18 00 00       	callq  407009 <internal_debug_log>
  40571a:	84 c0                	test   %al,%al
  40571c:	bf 10 27 00 00       	mov    $0x2710,%edi
  405721:	e8 aa d0 ff ff       	callq  4027d0 <usleep@plt>
  405726:	0f b6 05 ab 5c 00 00 	movzbl 0x5cab(%rip),%eax        # 40b3d8 <buf_chan_wait.6560>
  40572d:	83 e8 01             	sub    $0x1,%eax
  405730:	88 05 a2 5c 00 00    	mov    %al,0x5ca2(%rip)        # 40b3d8 <buf_chan_wait.6560>
  405736:	0f b6 05 9b 5c 00 00 	movzbl 0x5c9b(%rip),%eax        # 40b3d8 <buf_chan_wait.6560>
  40573d:	3c 14                	cmp    $0x14,%al
  40573f:	77 25                	ja     405766 <get_bufchan_index+0x10a>
  405741:	0f b6 05 92 5c 00 00 	movzbl 0x5c92(%rip),%eax        # 40b3da <verbose_level>
  405748:	84 c0                	test   %al,%al
  40574a:	74 13                	je     40575f <get_bufchan_index+0x103>
  40574c:	48 8d 3d 65 32 00 00 	lea    0x3265(%rip),%rdi        # 4089b8 <_IO_stdin_used+0x9b8>
  405753:	b8 00 00 00 00       	mov    $0x0,%eax
  405758:	e8 ac 18 00 00       	callq  407009 <internal_debug_log>
  40575d:	84 c0                	test   %al,%al
  40575f:	c6 05 73 5c 00 00 00 	movb   $0x0,0x5c73(%rip)        # 40b3d9 <sleep_state.6559>
  405766:	b8 ff ff ff ff       	mov    $0xffffffff,%eax
  40576b:	c9                   	leaveq 
  40576c:	c3                   	retq   

000000000040576d <queue_zero>:
  40576d:	f3 0f 1e fa          	endbr64 
  405771:	55                   	push   %rbp
  405772:	48 89 e5             	mov    %rsp,%rbp
  405775:	89 f8                	mov    %edi,%eax
  405777:	48 8b 15 3a 5c 00 00 	mov    0x5c3a(%rip),%rdx        # 40b3b8 <queues>
  40577e:	0f b7 c8             	movzwl %ax,%ecx
  405781:	48 c1 e1 05          	shl    $0x5,%rcx
  405785:	48 01 ca             	add    %rcx,%rdx
  405788:	c6 02 00             	movb   $0x0,(%rdx)
  40578b:	48 8b 15 26 5c 00 00 	mov    0x5c26(%rip),%rdx        # 40b3b8 <queues>
  405792:	0f b7 c8             	movzwl %ax,%ecx
  405795:	48 c1 e1 05          	shl    $0x5,%rcx
  405799:	48 01 ca             	add    %rcx,%rdx
  40579c:	48 c7 42 08 ff ff ff 	movq   $0xffffffffffffffff,0x8(%rdx)
  4057a3:	ff 
  4057a4:	48 8b 15 0d 5c 00 00 	mov    0x5c0d(%rip),%rdx        # 40b3b8 <queues>
  4057ab:	0f b7 c8             	movzwl %ax,%ecx
  4057ae:	48 c1 e1 05          	shl    $0x5,%rcx
  4057b2:	48 01 ca             	add    %rcx,%rdx
  4057b5:	66 c7 42 10 ff ff    	movw   $0xffff,0x10(%rdx)
  4057bb:	48 8b 15 f6 5b 00 00 	mov    0x5bf6(%rip),%rdx        # 40b3b8 <queues>
  4057c2:	0f b7 c0             	movzwl %ax,%eax
  4057c5:	48 c1 e0 05          	shl    $0x5,%rax
  4057c9:	48 01 d0             	add    %rdx,%rax
  4057cc:	48 c7 40 18 00 00 00 	movq   $0x0,0x18(%rax)
  4057d3:	00 
  4057d4:	90                   	nop
  4057d5:	5d                   	pop    %rbp
  4057d6:	c3                   	retq   

00000000004057d7 <connection_zero>:
  4057d7:	f3 0f 1e fa          	endbr64 
  4057db:	55                   	push   %rbp
  4057dc:	48 89 e5             	mov    %rsp,%rbp
  4057df:	53                   	push   %rbx
  4057e0:	48 83 ec 08          	sub    $0x8,%rsp
  4057e4:	89 f8                	mov    %edi,%eax
  4057e6:	89 c3                	mov    %eax,%ebx
  4057e8:	48 8b 0d d9 5b 00 00 	mov    0x5bd9(%rip),%rcx        # 40b3c8 <connections>
  4057ef:	0f b7 d3             	movzwl %bx,%edx
  4057f2:	48 89 d0             	mov    %rdx,%rax
  4057f5:	48 c1 e0 02          	shl    $0x2,%rax
  4057f9:	48 01 d0             	add    %rdx,%rax
  4057fc:	48 c1 e0 04          	shl    $0x4,%rax
  405800:	48 01 c8             	add    %rcx,%rax
  405803:	c7 00 ff ff ff ff    	movl   $0xffffffff,(%rax)
  405809:	48 8b 0d b8 5b 00 00 	mov    0x5bb8(%rip),%rcx        # 40b3c8 <connections>
  405810:	0f b7 d3             	movzwl %bx,%edx
  405813:	48 89 d0             	mov    %rdx,%rax
  405816:	48 c1 e0 02          	shl    $0x2,%rax
  40581a:	48 01 d0             	add    %rdx,%rax
  40581d:	48 c1 e0 04          	shl    $0x4,%rax
  405821:	48 01 c8             	add    %rcx,%rax
  405824:	c6 40 04 00          	movb   $0x0,0x4(%rax)
  405828:	48 8b 0d 99 5b 00 00 	mov    0x5b99(%rip),%rcx        # 40b3c8 <connections>
  40582f:	0f b7 d3             	movzwl %bx,%edx
  405832:	48 89 d0             	mov    %rdx,%rax
  405835:	48 c1 e0 02          	shl    $0x2,%rax
  405839:	48 01 d0             	add    %rdx,%rax
  40583c:	48 c1 e0 04          	shl    $0x4,%rax
  405840:	48 01 c8             	add    %rcx,%rax
  405843:	c6 40 05 00          	movb   $0x0,0x5(%rax)
  405847:	48 8b 0d 7a 5b 00 00 	mov    0x5b7a(%rip),%rcx        # 40b3c8 <connections>
  40584e:	0f b7 d3             	movzwl %bx,%edx
  405851:	48 89 d0             	mov    %rdx,%rax
  405854:	48 c1 e0 02          	shl    $0x2,%rax
  405858:	48 01 d0             	add    %rdx,%rax
  40585b:	48 c1 e0 04          	shl    $0x4,%rax
  40585f:	48 01 c8             	add    %rcx,%rax
  405862:	48 c7 40 08 00 00 00 	movq   $0x0,0x8(%rax)
  405869:	00 
  40586a:	48 8b 0d 57 5b 00 00 	mov    0x5b57(%rip),%rcx        # 40b3c8 <connections>
  405871:	0f b7 d3             	movzwl %bx,%edx
  405874:	48 89 d0             	mov    %rdx,%rax
  405877:	48 c1 e0 02          	shl    $0x2,%rax
  40587b:	48 01 d0             	add    %rdx,%rax
  40587e:	48 c1 e0 04          	shl    $0x4,%rax
  405882:	48 01 c8             	add    %rcx,%rax
  405885:	c7 40 10 00 00 00 00 	movl   $0x0,0x10(%rax)
  40588c:	48 8b 0d 35 5b 00 00 	mov    0x5b35(%rip),%rcx        # 40b3c8 <connections>
  405893:	0f b7 d3             	movzwl %bx,%edx
  405896:	48 89 d0             	mov    %rdx,%rax
  405899:	48 c1 e0 02          	shl    $0x2,%rax
  40589d:	48 01 d0             	add    %rdx,%rax
  4058a0:	48 c1 e0 04          	shl    $0x4,%rax
  4058a4:	48 01 c8             	add    %rcx,%rax
  4058a7:	48 83 c0 40          	add    $0x40,%rax
  4058ab:	ba 10 00 00 00       	mov    $0x10,%edx
  4058b0:	be 00 00 00 00       	mov    $0x0,%esi
  4058b5:	48 89 c7             	mov    %rax,%rdi
  4058b8:	e8 c3 cc ff ff       	callq  402580 <memset@plt>
  4058bd:	48 8b 0d 04 5b 00 00 	mov    0x5b04(%rip),%rcx        # 40b3c8 <connections>
  4058c4:	0f b7 d3             	movzwl %bx,%edx
  4058c7:	48 89 d0             	mov    %rdx,%rax
  4058ca:	48 c1 e0 02          	shl    $0x2,%rax
  4058ce:	48 01 d0             	add    %rdx,%rax
  4058d1:	48 c1 e0 04          	shl    $0x4,%rax
  4058d5:	48 01 c8             	add    %rcx,%rax
  4058d8:	48 83 c0 18          	add    $0x18,%rax
  4058dc:	ba 28 00 00 00       	mov    $0x28,%edx
  4058e1:	be 00 00 00 00       	mov    $0x0,%esi
  4058e6:	48 89 c7             	mov    %rax,%rdi
  4058e9:	e8 92 cc ff ff       	callq  402580 <memset@plt>
  4058ee:	48 8b 0d d3 5a 00 00 	mov    0x5ad3(%rip),%rcx        # 40b3c8 <connections>
  4058f5:	0f b7 d3             	movzwl %bx,%edx
  4058f8:	48 89 d0             	mov    %rdx,%rax
  4058fb:	48 c1 e0 02          	shl    $0x2,%rax
  4058ff:	48 01 d0             	add    %rdx,%rax
  405902:	48 c1 e0 04          	shl    $0x4,%rax
  405906:	48 01 c8             	add    %rcx,%rax
  405909:	48 83 c0 18          	add    $0x18,%rax
  40590d:	be 00 00 00 00       	mov    $0x0,%esi
  405912:	48 89 c7             	mov    %rax,%rdi
  405915:	e8 96 ce ff ff       	callq  4027b0 <pthread_mutex_init@plt>
  40591a:	90                   	nop
  40591b:	48 83 c4 08          	add    $0x8,%rsp
  40591f:	5b                   	pop    %rbx
  405920:	5d                   	pop    %rbp
  405921:	c3                   	retq   

0000000000405922 <teavpn_tcp_server_init_iface>:
  405922:	f3 0f 1e fa          	endbr64 
  405926:	55                   	push   %rbp
  405927:	48 89 e5             	mov    %rsp,%rbp
  40592a:	48 81 ec 10 01 00 00 	sub    $0x110,%rsp
  405931:	48 89 bd f8 fe ff ff 	mov    %rdi,-0x108(%rbp)
  405938:	64 48 8b 04 25 28 00 	mov    %fs:0x28,%rax
  40593f:	00 00 
  405941:	48 89 45 f8          	mov    %rax,-0x8(%rbp)
  405945:	31 c0                	xor    %eax,%eax
  405947:	48 8b 85 f8 fe ff ff 	mov    -0x108(%rbp),%rax
  40594e:	48 8b 40 20          	mov    0x20(%rax),%rax
  405952:	48 89 c7             	mov    %rax,%rdi
  405955:	e8 18 dc ff ff       	callq  403572 <escapeshellarg>
  40595a:	48 89 85 08 ff ff ff 	mov    %rax,-0xf8(%rbp)
  405961:	48 8b 85 f8 fe ff ff 	mov    -0x108(%rbp),%rax
  405968:	48 8b 40 28          	mov    0x28(%rax),%rax
  40596c:	48 89 c7             	mov    %rax,%rdi
  40596f:	e8 fe db ff ff       	callq  403572 <escapeshellarg>
  405974:	48 89 85 10 ff ff ff 	mov    %rax,-0xf0(%rbp)
  40597b:	48 8b 85 f8 fe ff ff 	mov    -0x108(%rbp),%rax
  405982:	48 8b 40 30          	mov    0x30(%rax),%rax
  405986:	48 89 c7             	mov    %rax,%rdi
  405989:	e8 e4 db ff ff       	callq  403572 <escapeshellarg>
  40598e:	48 89 85 18 ff ff ff 	mov    %rax,-0xe8(%rbp)
  405995:	48 8b 85 f8 fe ff ff 	mov    -0x108(%rbp),%rax
  40599c:	0f b7 40 38          	movzwl 0x38(%rax),%eax
  4059a0:	0f b7 c8             	movzwl %ax,%ecx
  4059a3:	48 8b 95 08 ff ff ff 	mov    -0xf8(%rbp),%rdx
  4059aa:	48 8d 85 20 ff ff ff 	lea    -0xe0(%rbp),%rax
  4059b1:	48 8d 35 20 30 00 00 	lea    0x3020(%rip),%rsi        # 4089d8 <_IO_stdin_used+0x9d8>
  4059b8:	48 89 c7             	mov    %rax,%rdi
  4059bb:	b8 00 00 00 00       	mov    $0x0,%eax
  4059c0:	e8 ab cd ff ff       	callq  402770 <sprintf@plt>
  4059c5:	48 8b b5 18 ff ff ff 	mov    -0xe8(%rbp),%rsi
  4059cc:	48 8b 8d 10 ff ff ff 	mov    -0xf0(%rbp),%rcx
  4059d3:	48 8b 95 08 ff ff ff 	mov    -0xf8(%rbp),%rdx
  4059da:	48 8d 45 90          	lea    -0x70(%rbp),%rax
  4059de:	49 89 f0             	mov    %rsi,%r8
  4059e1:	48 8d 35 18 30 00 00 	lea    0x3018(%rip),%rsi        # 408a00 <_IO_stdin_used+0xa00>
  4059e8:	48 89 c7             	mov    %rax,%rdi
  4059eb:	b8 00 00 00 00       	mov    $0x0,%eax
  4059f0:	e8 7b cd ff ff       	callq  402770 <sprintf@plt>
  4059f5:	48 8b 85 08 ff ff ff 	mov    -0xf8(%rbp),%rax
  4059fc:	48 89 c7             	mov    %rax,%rdi
  4059ff:	e8 0c ca ff ff       	callq  402410 <free@plt>
  405a04:	48 8b 85 10 ff ff ff 	mov    -0xf0(%rbp),%rax
  405a0b:	48 89 c7             	mov    %rax,%rdi
  405a0e:	e8 fd c9 ff ff       	callq  402410 <free@plt>
  405a13:	48 8b 85 18 ff ff ff 	mov    -0xe8(%rbp),%rax
  405a1a:	48 89 c7             	mov    %rax,%rdi
  405a1d:	e8 ee c9 ff ff       	callq  402410 <free@plt>
  405a22:	48 8d 85 20 ff ff ff 	lea    -0xe0(%rbp),%rax
  405a29:	48 89 c6             	mov    %rax,%rsi
  405a2c:	48 8d 3d f6 2f 00 00 	lea    0x2ff6(%rip),%rdi        # 408a29 <_IO_stdin_used+0xa29>
  405a33:	b8 00 00 00 00       	mov    $0x0,%eax
  405a38:	e8 cc 15 00 00       	callq  407009 <internal_debug_log>
  405a3d:	48 8d 85 20 ff ff ff 	lea    -0xe0(%rbp),%rax
  405a44:	48 89 c7             	mov    %rax,%rdi
  405a47:	e8 f4 ca ff ff       	callq  402540 <system@plt>
  405a4c:	85 c0                	test   %eax,%eax
  405a4e:	74 07                	je     405a57 <teavpn_tcp_server_init_iface+0x135>
  405a50:	b8 00 00 00 00       	mov    $0x0,%eax
  405a55:	eb 34                	jmp    405a8b <teavpn_tcp_server_init_iface+0x169>
  405a57:	48 8d 45 90          	lea    -0x70(%rbp),%rax
  405a5b:	48 89 c6             	mov    %rax,%rsi
  405a5e:	48 8d 3d c4 2f 00 00 	lea    0x2fc4(%rip),%rdi        # 408a29 <_IO_stdin_used+0xa29>
  405a65:	b8 00 00 00 00       	mov    $0x0,%eax
  405a6a:	e8 9a 15 00 00       	callq  407009 <internal_debug_log>
  405a6f:	48 8d 45 90          	lea    -0x70(%rbp),%rax
  405a73:	48 89 c7             	mov    %rax,%rdi
  405a76:	e8 c5 ca ff ff       	callq  402540 <system@plt>
  405a7b:	85 c0                	test   %eax,%eax
  405a7d:	74 07                	je     405a86 <teavpn_tcp_server_init_iface+0x164>
  405a7f:	b8 00 00 00 00       	mov    $0x0,%eax
  405a84:	eb 05                	jmp    405a8b <teavpn_tcp_server_init_iface+0x169>
  405a86:	b8 01 00 00 00       	mov    $0x1,%eax
  405a8b:	48 8b 55 f8          	mov    -0x8(%rbp),%rdx
  405a8f:	64 48 33 14 25 28 00 	xor    %fs:0x28,%rdx
  405a96:	00 00 
  405a98:	74 05                	je     405a9f <teavpn_tcp_server_init_iface+0x17d>
  405a9a:	e8 71 ca ff ff       	callq  402510 <__stack_chk_fail@plt>
  405a9f:	c9                   	leaveq 
  405aa0:	c3                   	retq   

0000000000405aa1 <teavpn_tcp_server_socket_setup>:
  405aa1:	f3 0f 1e fa          	endbr64 
  405aa5:	55                   	push   %rbp
  405aa6:	48 89 e5             	mov    %rsp,%rbp
  405aa9:	48 83 ec 20          	sub    $0x20,%rsp
  405aad:	89 7d ec             	mov    %edi,-0x14(%rbp)
  405ab0:	64 48 8b 04 25 28 00 	mov    %fs:0x28,%rax
  405ab7:	00 00 
  405ab9:	48 89 45 f8          	mov    %rax,-0x8(%rbp)
  405abd:	31 c0                	xor    %eax,%eax
  405abf:	c7 45 f4 01 00 00 00 	movl   $0x1,-0xc(%rbp)
  405ac6:	48 8d 55 f4          	lea    -0xc(%rbp),%rdx
  405aca:	8b 45 ec             	mov    -0x14(%rbp),%eax
  405acd:	41 b8 04 00 00 00    	mov    $0x4,%r8d
  405ad3:	48 89 d1             	mov    %rdx,%rcx
  405ad6:	ba 02 00 00 00       	mov    $0x2,%edx
  405adb:	be 01 00 00 00       	mov    $0x1,%esi
  405ae0:	89 c7                	mov    %eax,%edi
  405ae2:	e8 c9 c9 ff ff       	callq  4024b0 <setsockopt@plt>
  405ae7:	85 c0                	test   %eax,%eax
  405ae9:	79 13                	jns    405afe <teavpn_tcp_server_socket_setup+0x5d>
  405aeb:	48 8d 3d 46 2f 00 00 	lea    0x2f46(%rip),%rdi        # 408a38 <_IO_stdin_used+0xa38>
  405af2:	e8 49 cc ff ff       	callq  402740 <perror@plt>
  405af7:	b8 00 00 00 00       	mov    $0x0,%eax
  405afc:	eb 05                	jmp    405b03 <teavpn_tcp_server_socket_setup+0x62>
  405afe:	b8 01 00 00 00       	mov    $0x1,%eax
  405b03:	48 8b 4d f8          	mov    -0x8(%rbp),%rcx
  405b07:	64 48 33 0c 25 28 00 	xor    %fs:0x28,%rcx
  405b0e:	00 00 
  405b10:	74 05                	je     405b17 <teavpn_tcp_server_socket_setup+0x76>
  405b12:	e8 f9 c9 ff ff       	callq  402510 <__stack_chk_fail@plt>
  405b17:	c9                   	leaveq 
  405b18:	c3                   	retq   

0000000000405b19 <_teavpn_send_handshake>:
  405b19:	f3 0f 1e fa          	endbr64 
  405b1d:	55                   	push   %rbp
  405b1e:	48 89 e5             	mov    %rsp,%rbp
  405b21:	48 83 ec 10          	sub    $0x10,%rsp
  405b25:	89 7d fc             	mov    %edi,-0x4(%rbp)
  405b28:	89 f0                	mov    %esi,%eax
  405b2a:	48 89 55 f0          	mov    %rdx,-0x10(%rbp)
  405b2e:	66 89 45 f8          	mov    %ax,-0x8(%rbp)
  405b32:	48 8b 55 f0          	mov    -0x10(%rbp),%rdx
  405b36:	48 8d 75 f8          	lea    -0x8(%rbp),%rsi
  405b3a:	8b 45 fc             	mov    -0x4(%rbp),%eax
  405b3d:	41 b9 10 00 00 00    	mov    $0x10,%r9d
  405b43:	49 89 d0             	mov    %rdx,%r8
  405b46:	b9 00 08 00 00       	mov    $0x800,%ecx
  405b4b:	ba 02 00 00 00       	mov    $0x2,%edx
  405b50:	89 c7                	mov    %eax,%edi
  405b52:	e8 49 ca ff ff       	callq  4025a0 <sendto@plt>
  405b57:	48 83 f8 02          	cmp    $0x2,%rax
  405b5b:	0f 94 c0             	sete   %al
  405b5e:	c9                   	leaveq 
  405b5f:	c3                   	retq   

0000000000405b60 <teavpn_syn>:
  405b60:	f3 0f 1e fa          	endbr64 
  405b64:	55                   	push   %rbp
  405b65:	48 89 e5             	mov    %rsp,%rbp
  405b68:	48 83 ec 10          	sub    $0x10,%rsp
  405b6c:	89 7d fc             	mov    %edi,-0x4(%rbp)
  405b6f:	48 89 75 f0          	mov    %rsi,-0x10(%rbp)
  405b73:	48 8b 55 f0          	mov    -0x10(%rbp),%rdx
  405b77:	8b 45 fc             	mov    -0x4(%rbp),%eax
  405b7a:	be 22 22 00 00       	mov    $0x2222,%esi
  405b7f:	89 c7                	mov    %eax,%edi
  405b81:	e8 93 ff ff ff       	callq  405b19 <_teavpn_send_handshake>
  405b86:	c9                   	leaveq 
  405b87:	c3                   	retq   

0000000000405b88 <teavpn_ack>:
  405b88:	f3 0f 1e fa          	endbr64 
  405b8c:	55                   	push   %rbp
  405b8d:	48 89 e5             	mov    %rsp,%rbp
  405b90:	48 83 ec 10          	sub    $0x10,%rsp
  405b94:	89 7d fc             	mov    %edi,-0x4(%rbp)
  405b97:	48 89 75 f0          	mov    %rsi,-0x10(%rbp)
  405b9b:	48 8b 55 f0          	mov    -0x10(%rbp),%rdx
  405b9f:	8b 45 fc             	mov    -0x4(%rbp),%eax
  405ba2:	be 11 11 00 00       	mov    $0x1111,%esi
  405ba7:	89 c7                	mov    %eax,%edi
  405ba9:	e8 6b ff ff ff       	callq  405b19 <_teavpn_send_handshake>
  405bae:	c9                   	leaveq 
  405baf:	c3                   	retq   

0000000000405bb0 <teavpn_nak>:
  405bb0:	f3 0f 1e fa          	endbr64 
  405bb4:	55                   	push   %rbp
  405bb5:	48 89 e5             	mov    %rsp,%rbp
  405bb8:	48 83 ec 10          	sub    $0x10,%rsp
  405bbc:	89 7d fc             	mov    %edi,-0x4(%rbp)
  405bbf:	48 89 75 f0          	mov    %rsi,-0x10(%rbp)
  405bc3:	48 8b 55 f0          	mov    -0x10(%rbp),%rdx
  405bc7:	8b 45 fc             	mov    -0x4(%rbp),%eax
  405bca:	be 33 33 00 00       	mov    $0x3333,%esi
  405bcf:	89 c7                	mov    %eax,%edi
  405bd1:	e8 43 ff ff ff       	callq  405b19 <_teavpn_send_handshake>
  405bd6:	c9                   	leaveq 
  405bd7:	c3                   	retq   

0000000000405bd8 <teavpn_synack>:
  405bd8:	f3 0f 1e fa          	endbr64 
  405bdc:	55                   	push   %rbp
  405bdd:	48 89 e5             	mov    %rsp,%rbp
  405be0:	48 83 ec 10          	sub    $0x10,%rsp
  405be4:	89 7d fc             	mov    %edi,-0x4(%rbp)
  405be7:	48 89 75 f0          	mov    %rsi,-0x10(%rbp)
  405beb:	48 8b 55 f0          	mov    -0x10(%rbp),%rdx
  405bef:	8b 45 fc             	mov    -0x4(%rbp),%eax
  405bf2:	be 44 44 00 00       	mov    $0x4444,%esi
  405bf7:	89 c7                	mov    %eax,%edi
  405bf9:	e8 1b ff ff ff       	callq  405b19 <_teavpn_send_handshake>
  405bfe:	c9                   	leaveq 
  405bff:	c3                   	retq   

0000000000405c00 <get_handshake>:
  405c00:	f3 0f 1e fa          	endbr64 
  405c04:	55                   	push   %rbp
  405c05:	48 89 e5             	mov    %rsp,%rbp
  405c08:	48 83 ec 30          	sub    $0x30,%rsp
  405c0c:	89 7d dc             	mov    %edi,-0x24(%rbp)
  405c0f:	48 89 75 d0          	mov    %rsi,-0x30(%rbp)
  405c13:	64 48 8b 04 25 28 00 	mov    %fs:0x28,%rax
  405c1a:	00 00 
  405c1c:	48 89 45 f8          	mov    %rax,-0x8(%rbp)
  405c20:	31 c0                	xor    %eax,%eax
  405c22:	48 8b 55 d0          	mov    -0x30(%rbp),%rdx
  405c26:	48 8d 75 ee          	lea    -0x12(%rbp),%rsi
  405c2a:	8b 45 dc             	mov    -0x24(%rbp),%eax
  405c2d:	4c 8d 0d 18 56 00 00 	lea    0x5618(%rip),%r9        # 40b24c <remote_len.4016>
  405c34:	49 89 d0             	mov    %rdx,%r8
  405c37:	b9 00 01 00 00       	mov    $0x100,%ecx
  405c3c:	ba 02 00 00 00       	mov    $0x2,%edx
  405c41:	89 c7                	mov    %eax,%edi
  405c43:	e8 a8 ca ff ff       	callq  4026f0 <recvfrom@plt>
  405c48:	48 89 45 f0          	mov    %rax,-0x10(%rbp)
  405c4c:	48 83 7d f0 02       	cmpq   $0x2,-0x10(%rbp)
  405c51:	74 13                	je     405c66 <get_handshake+0x66>
  405c53:	48 8d 3d eb 2d 00 00 	lea    0x2deb(%rip),%rdi        # 408a45 <_IO_stdin_used+0xa45>
  405c5a:	e8 e1 ca ff ff       	callq  402740 <perror@plt>
  405c5f:	b8 00 00 00 00       	mov    $0x0,%eax
  405c64:	eb 04                	jmp    405c6a <get_handshake+0x6a>
  405c66:	0f b7 45 ee          	movzwl -0x12(%rbp),%eax
  405c6a:	48 8b 4d f8          	mov    -0x8(%rbp),%rcx
  405c6e:	64 48 33 0c 25 28 00 	xor    %fs:0x28,%rcx
  405c75:	00 00 
  405c77:	74 05                	je     405c7e <get_handshake+0x7e>
  405c79:	e8 92 c8 ff ff       	callq  402510 <__stack_chk_fail@plt>
  405c7e:	c9                   	leaveq 
  405c7f:	c3                   	retq   

0000000000405c80 <teavpn_auth_check>:
  405c80:	f3 0f 1e fa          	endbr64 
  405c84:	55                   	push   %rbp
  405c85:	48 89 e5             	mov    %rsp,%rbp
  405c88:	48 81 ec 40 03 00 00 	sub    $0x340,%rsp
  405c8f:	48 89 bd c8 fc ff ff 	mov    %rdi,-0x338(%rbp)
  405c96:	48 89 b5 c0 fc ff ff 	mov    %rsi,-0x340(%rbp)
  405c9d:	64 48 8b 04 25 28 00 	mov    %fs:0x28,%rax
  405ca4:	00 00 
  405ca6:	48 89 45 f8          	mov    %rax,-0x8(%rbp)
  405caa:	31 c0                	xor    %eax,%eax
  405cac:	48 c7 85 e0 fc ff ff 	movq   $0x0,-0x320(%rbp)
  405cb3:	00 00 00 00 
  405cb7:	48 c7 85 d8 fc ff ff 	movq   $0x0,-0x328(%rbp)
  405cbe:	00 00 00 00 
  405cc2:	48 8b 85 c0 fc ff ff 	mov    -0x340(%rbp),%rax
  405cc9:	48 8d 48 02          	lea    0x2(%rax),%rcx
  405ccd:	48 8b 85 c8 fc ff ff 	mov    -0x338(%rbp),%rax
  405cd4:	48 8b 50 18          	mov    0x18(%rax),%rdx
  405cd8:	48 8d 85 f0 fd ff ff 	lea    -0x210(%rbp),%rax
  405cdf:	48 8d 35 79 2d 00 00 	lea    0x2d79(%rip),%rsi        # 408a5f <_IO_stdin_used+0xa5f>
  405ce6:	48 89 c7             	mov    %rax,%rdi
  405ce9:	b8 00 00 00 00       	mov    $0x0,%eax
  405cee:	e8 7d ca ff ff       	callq  402770 <sprintf@plt>
  405cf3:	48 8d 85 f0 fd ff ff 	lea    -0x210(%rbp),%rax
  405cfa:	48 8d 35 73 2d 00 00 	lea    0x2d73(%rip),%rsi        # 408a74 <_IO_stdin_used+0xa74>
  405d01:	48 89 c7             	mov    %rax,%rdi
  405d04:	e8 27 ca ff ff       	callq  402730 <fopen@plt>
  405d09:	48 89 85 e0 fc ff ff 	mov    %rax,-0x320(%rbp)
  405d10:	48 83 bd e0 fc ff ff 	cmpq   $0x0,-0x320(%rbp)
  405d17:	00 
  405d18:	75 0a                	jne    405d24 <teavpn_auth_check+0xa4>
  405d1a:	b8 00 00 00 00       	mov    $0x0,%eax
  405d1f:	e9 ec 00 00 00       	jmpq   405e10 <teavpn_auth_check+0x190>
  405d24:	48 8b 95 e0 fc ff ff 	mov    -0x320(%rbp),%rdx
  405d2b:	48 8d 85 f0 fc ff ff 	lea    -0x310(%rbp),%rax
  405d32:	be fe 00 00 00       	mov    $0xfe,%esi
  405d37:	48 89 c7             	mov    %rax,%rdi
  405d3a:	e8 b1 c8 ff ff       	callq  4025f0 <fgets@plt>
  405d3f:	48 85 c0             	test   %rax,%rax
  405d42:	0f 84 b2 00 00 00    	je     405dfa <teavpn_auth_check+0x17a>
  405d48:	48 8d 85 f0 fc ff ff 	lea    -0x310(%rbp),%rax
  405d4f:	48 89 c7             	mov    %rax,%rdi
  405d52:	e8 a9 c7 ff ff       	callq  402500 <strlen@plt>
  405d57:	48 89 85 e8 fc ff ff 	mov    %rax,-0x318(%rbp)
  405d5e:	48 8b 85 e8 fc ff ff 	mov    -0x318(%rbp),%rax
  405d65:	48 83 e8 01          	sub    $0x1,%rax
  405d69:	0f b6 84 05 f0 fc ff 	movzbl -0x310(%rbp,%rax,1),%eax
  405d70:	ff 
  405d71:	3c 0a                	cmp    $0xa,%al
  405d73:	75 13                	jne    405d88 <teavpn_auth_check+0x108>
  405d75:	48 8b 85 e8 fc ff ff 	mov    -0x318(%rbp),%rax
  405d7c:	48 83 e8 01          	sub    $0x1,%rax
  405d80:	c6 84 05 f0 fc ff ff 	movb   $0x0,-0x310(%rbp,%rax,1)
  405d87:	00 
  405d88:	48 8b 85 c0 fc ff ff 	mov    -0x340(%rbp),%rax
  405d8f:	48 8d 90 02 01 00 00 	lea    0x102(%rax),%rdx
  405d96:	48 8d 85 f0 fc ff ff 	lea    -0x310(%rbp),%rax
  405d9d:	48 89 c6             	mov    %rax,%rsi
  405da0:	48 89 d7             	mov    %rdx,%rdi
  405da3:	e8 78 c8 ff ff       	callq  402620 <strcmp@plt>
  405da8:	85 c0                	test   %eax,%eax
  405daa:	75 4e                	jne    405dfa <teavpn_auth_check+0x17a>
  405dac:	48 8b 85 c0 fc ff ff 	mov    -0x340(%rbp),%rax
  405db3:	48 8d 48 02          	lea    0x2(%rax),%rcx
  405db7:	48 8b 85 c8 fc ff ff 	mov    -0x338(%rbp),%rax
  405dbe:	48 8b 50 18          	mov    0x18(%rax),%rdx
  405dc2:	48 8d 85 f0 fd ff ff 	lea    -0x210(%rbp),%rax
  405dc9:	48 8d 35 a6 2c 00 00 	lea    0x2ca6(%rip),%rsi        # 408a76 <_IO_stdin_used+0xa76>
  405dd0:	48 89 c7             	mov    %rax,%rdi
  405dd3:	b8 00 00 00 00       	mov    $0x0,%eax
  405dd8:	e8 93 c9 ff ff       	callq  402770 <sprintf@plt>
  405ddd:	48 8d 85 f0 fd ff ff 	lea    -0x210(%rbp),%rax
  405de4:	48 8d 35 89 2c 00 00 	lea    0x2c89(%rip),%rsi        # 408a74 <_IO_stdin_used+0xa74>
  405deb:	48 89 c7             	mov    %rax,%rdi
  405dee:	e8 3d c9 ff ff       	callq  402730 <fopen@plt>
  405df3:	48 89 85 d8 fc ff ff 	mov    %rax,-0x328(%rbp)
  405dfa:	48 8b 85 e0 fc ff ff 	mov    -0x320(%rbp),%rax
  405e01:	48 89 c7             	mov    %rax,%rdi
  405e04:	e8 e7 c6 ff ff       	callq  4024f0 <fclose@plt>
  405e09:	48 8b 85 d8 fc ff ff 	mov    -0x328(%rbp),%rax
  405e10:	48 8b 4d f8          	mov    -0x8(%rbp),%rcx
  405e14:	64 48 33 0c 25 28 00 	xor    %fs:0x28,%rcx
  405e1b:	00 00 
  405e1d:	74 05                	je     405e24 <teavpn_auth_check+0x1a4>
  405e1f:	e8 ec c6 ff ff       	callq  402510 <__stack_chk_fail@plt>
  405e24:	c9                   	leaveq 
  405e25:	c3                   	retq   

0000000000405e26 <_teavpn_send_handshake>:
  405e26:	f3 0f 1e fa          	endbr64 
  405e2a:	55                   	push   %rbp
  405e2b:	48 89 e5             	mov    %rsp,%rbp
  405e2e:	48 83 ec 10          	sub    $0x10,%rsp
  405e32:	89 7d fc             	mov    %edi,-0x4(%rbp)
  405e35:	89 f0                	mov    %esi,%eax
  405e37:	48 89 55 f0          	mov    %rdx,-0x10(%rbp)
  405e3b:	66 89 45 f8          	mov    %ax,-0x8(%rbp)
  405e3f:	48 8b 55 f0          	mov    -0x10(%rbp),%rdx
  405e43:	48 8d 75 f8          	lea    -0x8(%rbp),%rsi
  405e47:	8b 45 fc             	mov    -0x4(%rbp),%eax
  405e4a:	41 b9 10 00 00 00    	mov    $0x10,%r9d
  405e50:	49 89 d0             	mov    %rdx,%r8
  405e53:	b9 00 08 00 00       	mov    $0x800,%ecx
  405e58:	ba 02 00 00 00       	mov    $0x2,%edx
  405e5d:	89 c7                	mov    %eax,%edi
  405e5f:	e8 3c c7 ff ff       	callq  4025a0 <sendto@plt>
  405e64:	48 83 f8 02          	cmp    $0x2,%rax
  405e68:	0f 94 c0             	sete   %al
  405e6b:	c9                   	leaveq 
  405e6c:	c3                   	retq   

0000000000405e6d <teavpn_syn>:
  405e6d:	f3 0f 1e fa          	endbr64 
  405e71:	55                   	push   %rbp
  405e72:	48 89 e5             	mov    %rsp,%rbp
  405e75:	48 83 ec 10          	sub    $0x10,%rsp
  405e79:	89 7d fc             	mov    %edi,-0x4(%rbp)
  405e7c:	48 89 75 f0          	mov    %rsi,-0x10(%rbp)
  405e80:	48 8b 55 f0          	mov    -0x10(%rbp),%rdx
  405e84:	8b 45 fc             	mov    -0x4(%rbp),%eax
  405e87:	be 22 22 00 00       	mov    $0x2222,%esi
  405e8c:	89 c7                	mov    %eax,%edi
  405e8e:	e8 93 ff ff ff       	callq  405e26 <_teavpn_send_handshake>
  405e93:	c9                   	leaveq 
  405e94:	c3                   	retq   

0000000000405e95 <teavpn_ack>:
  405e95:	f3 0f 1e fa          	endbr64 
  405e99:	55                   	push   %rbp
  405e9a:	48 89 e5             	mov    %rsp,%rbp
  405e9d:	48 83 ec 10          	sub    $0x10,%rsp
  405ea1:	89 7d fc             	mov    %edi,-0x4(%rbp)
  405ea4:	48 89 75 f0          	mov    %rsi,-0x10(%rbp)
  405ea8:	48 8b 55 f0          	mov    -0x10(%rbp),%rdx
  405eac:	8b 45 fc             	mov    -0x4(%rbp),%eax
  405eaf:	be 11 11 00 00       	mov    $0x1111,%esi
  405eb4:	89 c7                	mov    %eax,%edi
  405eb6:	e8 6b ff ff ff       	callq  405e26 <_teavpn_send_handshake>
  405ebb:	c9                   	leaveq 
  405ebc:	c3                   	retq   

0000000000405ebd <teavpn_nak>:
  405ebd:	f3 0f 1e fa          	endbr64 
  405ec1:	55                   	push   %rbp
  405ec2:	48 89 e5             	mov    %rsp,%rbp
  405ec5:	48 83 ec 10          	sub    $0x10,%rsp
  405ec9:	89 7d fc             	mov    %edi,-0x4(%rbp)
  405ecc:	48 89 75 f0          	mov    %rsi,-0x10(%rbp)
  405ed0:	48 8b 55 f0          	mov    -0x10(%rbp),%rdx
  405ed4:	8b 45 fc             	mov    -0x4(%rbp),%eax
  405ed7:	be 33 33 00 00       	mov    $0x3333,%esi
  405edc:	89 c7                	mov    %eax,%edi
  405ede:	e8 43 ff ff ff       	callq  405e26 <_teavpn_send_handshake>
  405ee3:	c9                   	leaveq 
  405ee4:	c3                   	retq   

0000000000405ee5 <teavpn_synack>:
  405ee5:	f3 0f 1e fa          	endbr64 
  405ee9:	55                   	push   %rbp
  405eea:	48 89 e5             	mov    %rsp,%rbp
  405eed:	48 83 ec 10          	sub    $0x10,%rsp
  405ef1:	89 7d fc             	mov    %edi,-0x4(%rbp)
  405ef4:	48 89 75 f0          	mov    %rsi,-0x10(%rbp)
  405ef8:	48 8b 55 f0          	mov    -0x10(%rbp),%rdx
  405efc:	8b 45 fc             	mov    -0x4(%rbp),%eax
  405eff:	be 44 44 00 00       	mov    $0x4444,%esi
  405f04:	89 c7                	mov    %eax,%edi
  405f06:	e8 1b ff ff ff       	callq  405e26 <_teavpn_send_handshake>
  405f0b:	c9                   	leaveq 
  405f0c:	c3                   	retq   

0000000000405f0d <get_handshake>:
  405f0d:	f3 0f 1e fa          	endbr64 
  405f11:	55                   	push   %rbp
  405f12:	48 89 e5             	mov    %rsp,%rbp
  405f15:	48 83 ec 30          	sub    $0x30,%rsp
  405f19:	89 7d dc             	mov    %edi,-0x24(%rbp)
  405f1c:	48 89 75 d0          	mov    %rsi,-0x30(%rbp)
  405f20:	64 48 8b 04 25 28 00 	mov    %fs:0x28,%rax
  405f27:	00 00 
  405f29:	48 89 45 f8          	mov    %rax,-0x8(%rbp)
  405f2d:	31 c0                	xor    %eax,%eax
  405f2f:	48 8b 55 d0          	mov    -0x30(%rbp),%rdx
  405f33:	48 8d 75 ee          	lea    -0x12(%rbp),%rsi
  405f37:	8b 45 dc             	mov    -0x24(%rbp),%eax
  405f3a:	4c 8d 0d 0f 53 00 00 	lea    0x530f(%rip),%r9        # 40b250 <remote_len.4012>
  405f41:	49 89 d0             	mov    %rdx,%r8
  405f44:	b9 00 01 00 00       	mov    $0x100,%ecx
  405f49:	ba 02 00 00 00       	mov    $0x2,%edx
  405f4e:	89 c7                	mov    %eax,%edi
  405f50:	e8 9b c7 ff ff       	callq  4026f0 <recvfrom@plt>
  405f55:	48 89 45 f0          	mov    %rax,-0x10(%rbp)
  405f59:	48 83 7d f0 02       	cmpq   $0x2,-0x10(%rbp)
  405f5e:	74 13                	je     405f73 <get_handshake+0x66>
  405f60:	48 8d 3d 21 2b 00 00 	lea    0x2b21(%rip),%rdi        # 408a88 <_IO_stdin_used+0xa88>
  405f67:	e8 d4 c7 ff ff       	callq  402740 <perror@plt>
  405f6c:	b8 00 00 00 00       	mov    $0x0,%eax
  405f71:	eb 04                	jmp    405f77 <get_handshake+0x6a>
  405f73:	0f b7 45 ee          	movzwl -0x12(%rbp),%eax
  405f77:	48 8b 4d f8          	mov    -0x8(%rbp),%rcx
  405f7b:	64 48 33 0c 25 28 00 	xor    %fs:0x28,%rcx
  405f82:	00 00 
  405f84:	74 05                	je     405f8b <get_handshake+0x7e>
  405f86:	e8 85 c5 ff ff       	callq  402510 <__stack_chk_fail@plt>
  405f8b:	c9                   	leaveq 
  405f8c:	c3                   	retq   

0000000000405f8d <teavpn_server_config_parser>:
  405f8d:	f3 0f 1e fa          	endbr64 
  405f91:	55                   	push   %rbp
  405f92:	48 89 e5             	mov    %rsp,%rbp
  405f95:	48 81 ec 00 10 00 00 	sub    $0x1000,%rsp
  405f9c:	48 83 0c 24 00       	orq    $0x0,(%rsp)
  405fa1:	48 83 ec 60          	sub    $0x60,%rsp
  405fa5:	48 89 bd a8 ef ff ff 	mov    %rdi,-0x1058(%rbp)
  405fac:	48 89 b5 a0 ef ff ff 	mov    %rsi,-0x1060(%rbp)
  405fb3:	64 48 8b 04 25 28 00 	mov    %fs:0x28,%rax
  405fba:	00 00 
  405fbc:	48 89 45 f8          	mov    %rax,-0x8(%rbp)
  405fc0:	31 c0                	xor    %eax,%eax
  405fc2:	66 c7 85 be ef ff ff 	movw   $0x1,-0x1042(%rbp)
  405fc9:	01 00 
  405fcb:	c6 85 bc ef ff ff 01 	movb   $0x1,-0x1044(%rbp)
  405fd2:	48 8b 85 a0 ef ff ff 	mov    -0x1060(%rbp),%rax
  405fd9:	48 8b 40 08          	mov    0x8(%rax),%rax
  405fdd:	48 8d 35 be 2a 00 00 	lea    0x2abe(%rip),%rsi        # 408aa2 <_IO_stdin_used+0xaa2>
  405fe4:	48 89 c7             	mov    %rax,%rdi
  405fe7:	e8 44 c7 ff ff       	callq  402730 <fopen@plt>
  405fec:	48 89 85 d8 ef ff ff 	mov    %rax,-0x1028(%rbp)
  405ff3:	48 83 bd d8 ef ff ff 	cmpq   $0x0,-0x1028(%rbp)
  405ffa:	00 
  405ffb:	0f 85 e3 06 00 00    	jne    4066e4 <teavpn_server_config_parser+0x757>
  406001:	48 8b 85 a0 ef ff ff 	mov    -0x1060(%rbp),%rax
  406008:	48 8b 40 08          	mov    0x8(%rax),%rax
  40600c:	48 89 c6             	mov    %rax,%rsi
  40600f:	48 8d 3d 8e 2a 00 00 	lea    0x2a8e(%rip),%rdi        # 408aa4 <_IO_stdin_used+0xaa4>
  406016:	b8 00 00 00 00       	mov    $0x0,%eax
  40601b:	e8 40 c5 ff ff       	callq  402560 <printf@plt>
  406020:	b8 00 00 00 00       	mov    $0x0,%eax
  406025:	e9 f5 06 00 00       	jmpq   40671f <teavpn_server_config_parser+0x792>
  40602a:	48 8d 85 f0 ef ff ff 	lea    -0x1010(%rbp),%rax
  406031:	48 89 c7             	mov    %rax,%rdi
  406034:	e8 c7 c4 ff ff       	callq  402500 <strlen@plt>
  406039:	48 89 85 e0 ef ff ff 	mov    %rax,-0x1020(%rbp)
  406040:	48 8b 85 e0 ef ff ff 	mov    -0x1020(%rbp),%rax
  406047:	48 83 e8 01          	sub    $0x1,%rax
  40604b:	0f b6 84 05 f0 ef ff 	movzbl -0x1010(%rbp,%rax,1),%eax
  406052:	ff 
  406053:	3c 0a                	cmp    $0xa,%al
  406055:	74 27                	je     40607e <teavpn_server_config_parser+0xf1>
  406057:	48 8d 95 f0 ef ff ff 	lea    -0x1010(%rbp),%rdx
  40605e:	48 8b 85 e0 ef ff ff 	mov    -0x1020(%rbp),%rax
  406065:	48 01 d0             	add    %rdx,%rax
  406068:	c6 00 0a             	movb   $0xa,(%rax)
  40606b:	48 8b 85 e0 ef ff ff 	mov    -0x1020(%rbp),%rax
  406072:	48 83 c0 01          	add    $0x1,%rax
  406076:	c6 84 05 f0 ef ff ff 	movb   $0x0,-0x1010(%rbp,%rax,1)
  40607d:	00 
  40607e:	48 c7 85 d0 ef ff ff 	movq   $0x0,-0x1030(%rbp)
  406085:	00 00 00 00 
  406089:	48 8b 85 d0 ef ff ff 	mov    -0x1030(%rbp),%rax
  406090:	48 89 85 c8 ef ff ff 	mov    %rax,-0x1038(%rbp)
  406097:	48 8b 85 c8 ef ff ff 	mov    -0x1038(%rbp),%rax
  40609e:	48 89 85 e8 ef ff ff 	mov    %rax,-0x1018(%rbp)
  4060a5:	48 8b 85 e8 ef ff ff 	mov    -0x1018(%rbp),%rax
  4060ac:	48 89 85 c0 ef ff ff 	mov    %rax,-0x1040(%rbp)
  4060b3:	eb 08                	jmp    4060bd <teavpn_server_config_parser+0x130>
  4060b5:	48 83 85 c0 ef ff ff 	addq   $0x1,-0x1040(%rbp)
  4060bc:	01 
  4060bd:	48 8d 95 f0 ef ff ff 	lea    -0x1010(%rbp),%rdx
  4060c4:	48 8b 85 c0 ef ff ff 	mov    -0x1040(%rbp),%rax
  4060cb:	48 01 d0             	add    %rdx,%rax
  4060ce:	0f b6 00             	movzbl (%rax),%eax
  4060d1:	3c 20                	cmp    $0x20,%al
  4060d3:	74 e0                	je     4060b5 <teavpn_server_config_parser+0x128>
  4060d5:	48 8d 95 f0 ef ff ff 	lea    -0x1010(%rbp),%rdx
  4060dc:	48 8b 85 c0 ef ff ff 	mov    -0x1040(%rbp),%rax
  4060e3:	48 01 d0             	add    %rdx,%rax
  4060e6:	0f b6 00             	movzbl (%rax),%eax
  4060e9:	3c 09                	cmp    $0x9,%al
  4060eb:	74 c8                	je     4060b5 <teavpn_server_config_parser+0x128>
  4060ed:	48 8d 95 f0 ef ff ff 	lea    -0x1010(%rbp),%rdx
  4060f4:	48 8b 85 c0 ef ff ff 	mov    -0x1040(%rbp),%rax
  4060fb:	48 01 d0             	add    %rdx,%rax
  4060fe:	0f b6 00             	movzbl (%rax),%eax
  406101:	3c 0d                	cmp    $0xd,%al
  406103:	74 b0                	je     4060b5 <teavpn_server_config_parser+0x128>
  406105:	48 8b 85 c0 ef ff ff 	mov    -0x1040(%rbp),%rax
  40610c:	48 89 85 e8 ef ff ff 	mov    %rax,-0x1018(%rbp)
  406113:	48 8d 95 f0 ef ff ff 	lea    -0x1010(%rbp),%rdx
  40611a:	48 8b 85 c0 ef ff ff 	mov    -0x1040(%rbp),%rax
  406121:	48 01 d0             	add    %rdx,%rax
  406124:	0f b6 00             	movzbl (%rax),%eax
  406127:	3c 23                	cmp    $0x23,%al
  406129:	0f 84 b5 05 00 00    	je     4066e4 <teavpn_server_config_parser+0x757>
  40612f:	48 8d 95 f0 ef ff ff 	lea    -0x1010(%rbp),%rdx
  406136:	48 8b 85 c0 ef ff ff 	mov    -0x1040(%rbp),%rax
  40613d:	48 01 d0             	add    %rdx,%rax
  406140:	0f b6 00             	movzbl (%rax),%eax
  406143:	3c 0a                	cmp    $0xa,%al
  406145:	75 4b                	jne    406192 <teavpn_server_config_parser+0x205>
  406147:	e9 98 05 00 00       	jmpq   4066e4 <teavpn_server_config_parser+0x757>
  40614c:	48 8d 95 f0 ef ff ff 	lea    -0x1010(%rbp),%rdx
  406153:	48 8b 85 c0 ef ff ff 	mov    -0x1040(%rbp),%rax
  40615a:	48 01 d0             	add    %rdx,%rax
  40615d:	0f b6 00             	movzbl (%rax),%eax
  406160:	3c 0a                	cmp    $0xa,%al
  406162:	75 26                	jne    40618a <teavpn_server_config_parser+0x1fd>
  406164:	0f b7 85 be ef ff ff 	movzwl -0x1042(%rbp),%eax
  40616b:	89 c6                	mov    %eax,%esi
  40616d:	48 8d 3d 54 29 00 00 	lea    0x2954(%rip),%rdi        # 408ac8 <_IO_stdin_used+0xac8>
  406174:	b8 00 00 00 00       	mov    $0x0,%eax
  406179:	e8 e2 c3 ff ff       	callq  402560 <printf@plt>
  40617e:	c6 85 bc ef ff ff 00 	movb   $0x0,-0x1044(%rbp)
  406185:	e9 7f 05 00 00       	jmpq   406709 <teavpn_server_config_parser+0x77c>
  40618a:	48 83 85 c0 ef ff ff 	addq   $0x1,-0x1040(%rbp)
  406191:	01 
  406192:	48 8d 95 f0 ef ff ff 	lea    -0x1010(%rbp),%rdx
  406199:	48 8b 85 c0 ef ff ff 	mov    -0x1040(%rbp),%rax
  4061a0:	48 01 d0             	add    %rdx,%rax
  4061a3:	0f b6 00             	movzbl (%rax),%eax
  4061a6:	3c 3d                	cmp    $0x3d,%al
  4061a8:	75 a2                	jne    40614c <teavpn_server_config_parser+0x1bf>
  4061aa:	48 8d 95 f0 ef ff ff 	lea    -0x1010(%rbp),%rdx
  4061b1:	48 8b 85 c0 ef ff ff 	mov    -0x1040(%rbp),%rax
  4061b8:	48 01 d0             	add    %rdx,%rax
  4061bb:	c6 00 00             	movb   $0x0,(%rax)
  4061be:	48 8b 85 c0 ef ff ff 	mov    -0x1040(%rbp),%rax
  4061c5:	48 83 c0 01          	add    $0x1,%rax
  4061c9:	48 89 85 c8 ef ff ff 	mov    %rax,-0x1038(%rbp)
  4061d0:	48 83 ad c0 ef ff ff 	subq   $0x1,-0x1040(%rbp)
  4061d7:	01 
  4061d8:	c6 85 bd ef ff ff 00 	movb   $0x0,-0x1043(%rbp)
  4061df:	eb 0f                	jmp    4061f0 <teavpn_server_config_parser+0x263>
  4061e1:	48 83 ad c0 ef ff ff 	subq   $0x1,-0x1040(%rbp)
  4061e8:	01 
  4061e9:	c6 85 bd ef ff ff 01 	movb   $0x1,-0x1043(%rbp)
  4061f0:	48 8d 95 f0 ef ff ff 	lea    -0x1010(%rbp),%rdx
  4061f7:	48 8b 85 c0 ef ff ff 	mov    -0x1040(%rbp),%rax
  4061fe:	48 01 d0             	add    %rdx,%rax
  406201:	0f b6 00             	movzbl (%rax),%eax
  406204:	3c 20                	cmp    $0x20,%al
  406206:	74 d9                	je     4061e1 <teavpn_server_config_parser+0x254>
  406208:	48 8d 95 f0 ef ff ff 	lea    -0x1010(%rbp),%rdx
  40620f:	48 8b 85 c0 ef ff ff 	mov    -0x1040(%rbp),%rax
  406216:	48 01 d0             	add    %rdx,%rax
  406219:	0f b6 00             	movzbl (%rax),%eax
  40621c:	3c 09                	cmp    $0x9,%al
  40621e:	74 c1                	je     4061e1 <teavpn_server_config_parser+0x254>
  406220:	48 8d 95 f0 ef ff ff 	lea    -0x1010(%rbp),%rdx
  406227:	48 8b 85 c0 ef ff ff 	mov    -0x1040(%rbp),%rax
  40622e:	48 01 d0             	add    %rdx,%rax
  406231:	0f b6 00             	movzbl (%rax),%eax
  406234:	3c 0d                	cmp    $0xd,%al
  406236:	74 a9                	je     4061e1 <teavpn_server_config_parser+0x254>
  406238:	80 bd bd ef ff ff 00 	cmpb   $0x0,-0x1043(%rbp)
  40623f:	74 1d                	je     40625e <teavpn_server_config_parser+0x2d1>
  406241:	48 8b 85 c0 ef ff ff 	mov    -0x1040(%rbp),%rax
  406248:	48 83 c0 01          	add    $0x1,%rax
  40624c:	c6 84 05 f0 ef ff ff 	movb   $0x0,-0x1010(%rbp,%rax,1)
  406253:	00 
  406254:	eb 08                	jmp    40625e <teavpn_server_config_parser+0x2d1>
  406256:	48 83 85 c8 ef ff ff 	addq   $0x1,-0x1038(%rbp)
  40625d:	01 
  40625e:	48 8d 95 f0 ef ff ff 	lea    -0x1010(%rbp),%rdx
  406265:	48 8b 85 c8 ef ff ff 	mov    -0x1038(%rbp),%rax
  40626c:	48 01 d0             	add    %rdx,%rax
  40626f:	0f b6 00             	movzbl (%rax),%eax
  406272:	3c 20                	cmp    $0x20,%al
  406274:	74 e0                	je     406256 <teavpn_server_config_parser+0x2c9>
  406276:	48 8d 95 f0 ef ff ff 	lea    -0x1010(%rbp),%rdx
  40627d:	48 8b 85 c8 ef ff ff 	mov    -0x1038(%rbp),%rax
  406284:	48 01 d0             	add    %rdx,%rax
  406287:	0f b6 00             	movzbl (%rax),%eax
  40628a:	3c 09                	cmp    $0x9,%al
  40628c:	74 c8                	je     406256 <teavpn_server_config_parser+0x2c9>
  40628e:	48 8d 95 f0 ef ff ff 	lea    -0x1010(%rbp),%rdx
  406295:	48 8b 85 c8 ef ff ff 	mov    -0x1038(%rbp),%rax
  40629c:	48 01 d0             	add    %rdx,%rax
  40629f:	0f b6 00             	movzbl (%rax),%eax
  4062a2:	3c 0d                	cmp    $0xd,%al
  4062a4:	74 b0                	je     406256 <teavpn_server_config_parser+0x2c9>
  4062a6:	48 8b 85 c8 ef ff ff 	mov    -0x1038(%rbp),%rax
  4062ad:	48 89 85 d0 ef ff ff 	mov    %rax,-0x1030(%rbp)
  4062b4:	48 8d 95 f0 ef ff ff 	lea    -0x1010(%rbp),%rdx
  4062bb:	48 8b 85 c8 ef ff ff 	mov    -0x1038(%rbp),%rax
  4062c2:	48 01 d0             	add    %rdx,%rax
  4062c5:	0f b6 00             	movzbl (%rax),%eax
  4062c8:	3c 0a                	cmp    $0xa,%al
  4062ca:	75 61                	jne    40632d <teavpn_server_config_parser+0x3a0>
  4062cc:	48 8d 95 f0 ef ff ff 	lea    -0x1010(%rbp),%rdx
  4062d3:	48 8b 85 c8 ef ff ff 	mov    -0x1038(%rbp),%rax
  4062da:	48 01 d0             	add    %rdx,%rax
  4062dd:	c6 00 00             	movb   $0x0,(%rax)
  4062e0:	e9 f8 00 00 00       	jmpq   4063dd <teavpn_server_config_parser+0x450>
  4062e5:	48 8d 95 f0 ef ff ff 	lea    -0x1010(%rbp),%rdx
  4062ec:	48 8b 85 d0 ef ff ff 	mov    -0x1030(%rbp),%rax
  4062f3:	48 01 d0             	add    %rdx,%rax
  4062f6:	0f b6 00             	movzbl (%rax),%eax
  4062f9:	3c 23                	cmp    $0x23,%al
  4062fb:	75 28                	jne    406325 <teavpn_server_config_parser+0x398>
  4062fd:	48 8b 85 d0 ef ff ff 	mov    -0x1030(%rbp),%rax
  406304:	48 83 c0 01          	add    $0x1,%rax
  406308:	48 89 85 e0 ef ff ff 	mov    %rax,-0x1020(%rbp)
  40630f:	48 8d 95 f0 ef ff ff 	lea    -0x1010(%rbp),%rdx
  406316:	48 8b 85 d0 ef ff ff 	mov    -0x1030(%rbp),%rax
  40631d:	48 01 d0             	add    %rdx,%rax
  406320:	c6 00 0a             	movb   $0xa,(%rax)
  406323:	eb 20                	jmp    406345 <teavpn_server_config_parser+0x3b8>
  406325:	48 83 85 d0 ef ff ff 	addq   $0x1,-0x1030(%rbp)
  40632c:	01 
  40632d:	48 8d 95 f0 ef ff ff 	lea    -0x1010(%rbp),%rdx
  406334:	48 8b 85 d0 ef ff ff 	mov    -0x1030(%rbp),%rax
  40633b:	48 01 d0             	add    %rdx,%rax
  40633e:	0f b6 00             	movzbl (%rax),%eax
  406341:	3c 0a                	cmp    $0xa,%al
  406343:	75 a0                	jne    4062e5 <teavpn_server_config_parser+0x358>
  406345:	48 8d 95 f0 ef ff ff 	lea    -0x1010(%rbp),%rdx
  40634c:	48 8b 85 d0 ef ff ff 	mov    -0x1030(%rbp),%rax
  406353:	48 01 d0             	add    %rdx,%rax
  406356:	c6 00 00             	movb   $0x0,(%rax)
  406359:	48 83 ad d0 ef ff ff 	subq   $0x1,-0x1030(%rbp)
  406360:	01 
  406361:	c6 85 bd ef ff ff 00 	movb   $0x0,-0x1043(%rbp)
  406368:	eb 0f                	jmp    406379 <teavpn_server_config_parser+0x3ec>
  40636a:	48 83 ad d0 ef ff ff 	subq   $0x1,-0x1030(%rbp)
  406371:	01 
  406372:	c6 85 bd ef ff ff 01 	movb   $0x1,-0x1043(%rbp)
  406379:	48 8d 95 f0 ef ff ff 	lea    -0x1010(%rbp),%rdx
  406380:	48 8b 85 d0 ef ff ff 	mov    -0x1030(%rbp),%rax
  406387:	48 01 d0             	add    %rdx,%rax
  40638a:	0f b6 00             	movzbl (%rax),%eax
  40638d:	3c 20                	cmp    $0x20,%al
  40638f:	74 d9                	je     40636a <teavpn_server_config_parser+0x3dd>
  406391:	48 8d 95 f0 ef ff ff 	lea    -0x1010(%rbp),%rdx
  406398:	48 8b 85 d0 ef ff ff 	mov    -0x1030(%rbp),%rax
  40639f:	48 01 d0             	add    %rdx,%rax
  4063a2:	0f b6 00             	movzbl (%rax),%eax
  4063a5:	3c 09                	cmp    $0x9,%al
  4063a7:	74 c1                	je     40636a <teavpn_server_config_parser+0x3dd>
  4063a9:	48 8d 95 f0 ef ff ff 	lea    -0x1010(%rbp),%rdx
  4063b0:	48 8b 85 d0 ef ff ff 	mov    -0x1030(%rbp),%rax
  4063b7:	48 01 d0             	add    %rdx,%rax
  4063ba:	0f b6 00             	movzbl (%rax),%eax
  4063bd:	3c 0d                	cmp    $0xd,%al
  4063bf:	74 a9                	je     40636a <teavpn_server_config_parser+0x3dd>
  4063c1:	80 bd bd ef ff ff 00 	cmpb   $0x0,-0x1043(%rbp)
  4063c8:	74 13                	je     4063dd <teavpn_server_config_parser+0x450>
  4063ca:	48 8b 85 d0 ef ff ff 	mov    -0x1030(%rbp),%rax
  4063d1:	48 83 c0 01          	add    $0x1,%rax
  4063d5:	c6 84 05 f0 ef ff ff 	movb   $0x0,-0x1010(%rbp,%rax,1)
  4063dc:	00 
  4063dd:	48 8d 95 f0 ef ff ff 	lea    -0x1010(%rbp),%rdx
  4063e4:	48 8b 85 e8 ef ff ff 	mov    -0x1018(%rbp),%rax
  4063eb:	48 01 d0             	add    %rdx,%rax
  4063ee:	48 8d 35 0a 27 00 00 	lea    0x270a(%rip),%rsi        # 408aff <_IO_stdin_used+0xaff>
  4063f5:	48 89 c7             	mov    %rax,%rdi
  4063f8:	e8 23 c2 ff ff       	callq  402620 <strcmp@plt>
  4063fd:	85 c0                	test   %eax,%eax
  4063ff:	75 54                	jne    406455 <teavpn_server_config_parser+0x4c8>
  406401:	48 8d 95 f0 ef ff ff 	lea    -0x1010(%rbp),%rdx
  406408:	48 8b 85 c8 ef ff ff 	mov    -0x1038(%rbp),%rax
  40640f:	48 01 c2             	add    %rax,%rdx
  406412:	48 8b 85 a8 ef ff ff 	mov    -0x1058(%rbp),%rax
  406419:	48 89 d6             	mov    %rdx,%rsi
  40641c:	48 89 c7             	mov    %rax,%rdi
  40641f:	e8 4c c0 ff ff       	callq  402470 <strcpy@plt>
  406424:	48 8b 85 a0 ef ff ff 	mov    -0x1060(%rbp),%rax
  40642b:	48 8b 95 a8 ef ff ff 	mov    -0x1058(%rbp),%rdx
  406432:	48 89 50 20          	mov    %rdx,0x20(%rax)
  406436:	48 8b 85 a8 ef ff ff 	mov    -0x1058(%rbp),%rax
  40643d:	48 89 c7             	mov    %rax,%rdi
  406440:	e8 bb c0 ff ff       	callq  402500 <strlen@plt>
  406445:	48 83 c0 01          	add    $0x1,%rax
  406449:	48 01 85 a8 ef ff ff 	add    %rax,-0x1058(%rbp)
  406450:	e9 7e 02 00 00       	jmpq   4066d3 <teavpn_server_config_parser+0x746>
  406455:	48 8d 95 f0 ef ff ff 	lea    -0x1010(%rbp),%rdx
  40645c:	48 8b 85 e8 ef ff ff 	mov    -0x1018(%rbp),%rax
  406463:	48 01 d0             	add    %rdx,%rax
  406466:	48 8d 35 96 26 00 00 	lea    0x2696(%rip),%rsi        # 408b03 <_IO_stdin_used+0xb03>
  40646d:	48 89 c7             	mov    %rax,%rdi
  406470:	e8 ab c1 ff ff       	callq  402620 <strcmp@plt>
  406475:	85 c0                	test   %eax,%eax
  406477:	75 2b                	jne    4064a4 <teavpn_server_config_parser+0x517>
  406479:	48 8d 95 f0 ef ff ff 	lea    -0x1010(%rbp),%rdx
  406480:	48 8b 85 c8 ef ff ff 	mov    -0x1038(%rbp),%rax
  406487:	48 01 d0             	add    %rdx,%rax
  40648a:	48 89 c7             	mov    %rax,%rdi
  40648d:	e8 ce c2 ff ff       	callq  402760 <atoi@plt>
  406492:	89 c2                	mov    %eax,%edx
  406494:	48 8b 85 a0 ef ff ff 	mov    -0x1060(%rbp),%rax
  40649b:	66 89 50 38          	mov    %dx,0x38(%rax)
  40649f:	e9 2f 02 00 00       	jmpq   4066d3 <teavpn_server_config_parser+0x746>
  4064a4:	48 8d 95 f0 ef ff ff 	lea    -0x1010(%rbp),%rdx
  4064ab:	48 8b 85 e8 ef ff ff 	mov    -0x1018(%rbp),%rax
  4064b2:	48 01 d0             	add    %rdx,%rax
  4064b5:	48 8d 35 4b 26 00 00 	lea    0x264b(%rip),%rsi        # 408b07 <_IO_stdin_used+0xb07>
  4064bc:	48 89 c7             	mov    %rax,%rdi
  4064bf:	e8 5c c1 ff ff       	callq  402620 <strcmp@plt>
  4064c4:	85 c0                	test   %eax,%eax
  4064c6:	75 54                	jne    40651c <teavpn_server_config_parser+0x58f>
  4064c8:	48 8d 95 f0 ef ff ff 	lea    -0x1010(%rbp),%rdx
  4064cf:	48 8b 85 c8 ef ff ff 	mov    -0x1038(%rbp),%rax
  4064d6:	48 01 c2             	add    %rax,%rdx
  4064d9:	48 8b 85 a8 ef ff ff 	mov    -0x1058(%rbp),%rax
  4064e0:	48 89 d6             	mov    %rdx,%rsi
  4064e3:	48 89 c7             	mov    %rax,%rdi
  4064e6:	e8 85 bf ff ff       	callq  402470 <strcpy@plt>
  4064eb:	48 8b 85 a0 ef ff ff 	mov    -0x1060(%rbp),%rax
  4064f2:	48 8b 95 a8 ef ff ff 	mov    -0x1058(%rbp),%rdx
  4064f9:	48 89 50 28          	mov    %rdx,0x28(%rax)
  4064fd:	48 8b 85 a8 ef ff ff 	mov    -0x1058(%rbp),%rax
  406504:	48 89 c7             	mov    %rax,%rdi
  406507:	e8 f4 bf ff ff       	callq  402500 <strlen@plt>
  40650c:	48 83 c0 01          	add    $0x1,%rax
  406510:	48 01 85 a8 ef ff ff 	add    %rax,-0x1058(%rbp)
  406517:	e9 b7 01 00 00       	jmpq   4066d3 <teavpn_server_config_parser+0x746>
  40651c:	48 8d 95 f0 ef ff ff 	lea    -0x1010(%rbp),%rdx
  406523:	48 8b 85 e8 ef ff ff 	mov    -0x1018(%rbp),%rax
  40652a:	48 01 d0             	add    %rdx,%rax
  40652d:	48 8d 35 d9 25 00 00 	lea    0x25d9(%rip),%rsi        # 408b0d <_IO_stdin_used+0xb0d>
  406534:	48 89 c7             	mov    %rax,%rdi
  406537:	e8 e4 c0 ff ff       	callq  402620 <strcmp@plt>
  40653c:	85 c0                	test   %eax,%eax
  40653e:	75 53                	jne    406593 <teavpn_server_config_parser+0x606>
  406540:	48 8d 95 f0 ef ff ff 	lea    -0x1010(%rbp),%rdx
  406547:	48 8b 85 c8 ef ff ff 	mov    -0x1038(%rbp),%rax
  40654e:	48 01 c2             	add    %rax,%rdx
  406551:	48 8b 85 a8 ef ff ff 	mov    -0x1058(%rbp),%rax
  406558:	48 89 d6             	mov    %rdx,%rsi
  40655b:	48 89 c7             	mov    %rax,%rdi
  40655e:	e8 0d bf ff ff       	callq  402470 <strcpy@plt>
  406563:	48 8b 85 a0 ef ff ff 	mov    -0x1060(%rbp),%rax
  40656a:	48 8b 95 a8 ef ff ff 	mov    -0x1058(%rbp),%rdx
  406571:	48 89 10             	mov    %rdx,(%rax)
  406574:	48 8b 85 a8 ef ff ff 	mov    -0x1058(%rbp),%rax
  40657b:	48 89 c7             	mov    %rax,%rdi
  40657e:	e8 7d bf ff ff       	callq  402500 <strlen@plt>
  406583:	48 83 c0 01          	add    $0x1,%rax
  406587:	48 01 85 a8 ef ff ff 	add    %rax,-0x1058(%rbp)
  40658e:	e9 40 01 00 00       	jmpq   4066d3 <teavpn_server_config_parser+0x746>
  406593:	48 8d 95 f0 ef ff ff 	lea    -0x1010(%rbp),%rdx
  40659a:	48 8b 85 e8 ef ff ff 	mov    -0x1018(%rbp),%rax
  4065a1:	48 01 d0             	add    %rdx,%rax
  4065a4:	48 8d 35 6c 25 00 00 	lea    0x256c(%rip),%rsi        # 408b17 <_IO_stdin_used+0xb17>
  4065ab:	48 89 c7             	mov    %rax,%rdi
  4065ae:	e8 6d c0 ff ff       	callq  402620 <strcmp@plt>
  4065b3:	85 c0                	test   %eax,%eax
  4065b5:	75 2b                	jne    4065e2 <teavpn_server_config_parser+0x655>
  4065b7:	48 8d 95 f0 ef ff ff 	lea    -0x1010(%rbp),%rdx
  4065be:	48 8b 85 c8 ef ff ff 	mov    -0x1038(%rbp),%rax
  4065c5:	48 01 d0             	add    %rdx,%rax
  4065c8:	48 89 c7             	mov    %rax,%rdi
  4065cb:	e8 90 c1 ff ff       	callq  402760 <atoi@plt>
  4065d0:	89 c2                	mov    %eax,%edx
  4065d2:	48 8b 85 a0 ef ff ff 	mov    -0x1060(%rbp),%rax
  4065d9:	66 89 50 3a          	mov    %dx,0x3a(%rax)
  4065dd:	e9 f1 00 00 00       	jmpq   4066d3 <teavpn_server_config_parser+0x746>
  4065e2:	48 8d 95 f0 ef ff ff 	lea    -0x1010(%rbp),%rdx
  4065e9:	48 8b 85 e8 ef ff ff 	mov    -0x1018(%rbp),%rax
  4065f0:	48 01 d0             	add    %rdx,%rax
  4065f3:	48 8d 35 27 25 00 00 	lea    0x2527(%rip),%rsi        # 408b21 <_IO_stdin_used+0xb21>
  4065fa:	48 89 c7             	mov    %rax,%rdi
