
teavpn:     file format elf64-x86-64


Disassembly of section .init:

0000000000402000 <_init>:
  402000:	f3 0f 1e fa          	endbr64 
  402004:	48 83 ec 08          	sub    $0x8,%rsp
  402008:	48 8b 05 d9 af 00 00 	mov    0xafd9(%rip),%rax        # 40cfe8 <__gmon_start__>
  40200f:	48 85 c0             	test   %rax,%rax
  402012:	74 02                	je     402016 <_init+0x16>
  402014:	ff d0                	callq  *%rax
  402016:	48 83 c4 08          	add    $0x8,%rsp
  40201a:	c3                   	retq   

Disassembly of section .plt:

0000000000402020 <.plt>:
  402020:	ff 35 e2 af 00 00    	pushq  0xafe2(%rip)        # 40d008 <_GLOBAL_OFFSET_TABLE_+0x8>
  402026:	f2 ff 25 e3 af 00 00 	bnd jmpq *0xafe3(%rip)        # 40d010 <_GLOBAL_OFFSET_TABLE_+0x10>
  40202d:	0f 1f 00             	nopl   (%rax)
  402030:	f3 0f 1e fa          	endbr64 
  402034:	68 00 00 00 00       	pushq  $0x0
  402039:	f2 e9 e1 ff ff ff    	bnd jmpq 402020 <.plt>
  40203f:	90                   	nop
  402040:	f3 0f 1e fa          	endbr64 
  402044:	68 01 00 00 00       	pushq  $0x1
  402049:	f2 e9 d1 ff ff ff    	bnd jmpq 402020 <.plt>
  40204f:	90                   	nop
  402050:	f3 0f 1e fa          	endbr64 
  402054:	68 02 00 00 00       	pushq  $0x2
  402059:	f2 e9 c1 ff ff ff    	bnd jmpq 402020 <.plt>
  40205f:	90                   	nop
  402060:	f3 0f 1e fa          	endbr64 
  402064:	68 03 00 00 00       	pushq  $0x3
  402069:	f2 e9 b1 ff ff ff    	bnd jmpq 402020 <.plt>
  40206f:	90                   	nop
  402070:	f3 0f 1e fa          	endbr64 
  402074:	68 04 00 00 00       	pushq  $0x4
  402079:	f2 e9 a1 ff ff ff    	bnd jmpq 402020 <.plt>
  40207f:	90                   	nop
  402080:	f3 0f 1e fa          	endbr64 
  402084:	68 05 00 00 00       	pushq  $0x5
  402089:	f2 e9 91 ff ff ff    	bnd jmpq 402020 <.plt>
  40208f:	90                   	nop
  402090:	f3 0f 1e fa          	endbr64 
  402094:	68 06 00 00 00       	pushq  $0x6
  402099:	f2 e9 81 ff ff ff    	bnd jmpq 402020 <.plt>
  40209f:	90                   	nop
  4020a0:	f3 0f 1e fa          	endbr64 
  4020a4:	68 07 00 00 00       	pushq  $0x7
  4020a9:	f2 e9 71 ff ff ff    	bnd jmpq 402020 <.plt>
  4020af:	90                   	nop
  4020b0:	f3 0f 1e fa          	endbr64 
  4020b4:	68 08 00 00 00       	pushq  $0x8
  4020b9:	f2 e9 61 ff ff ff    	bnd jmpq 402020 <.plt>
  4020bf:	90                   	nop
  4020c0:	f3 0f 1e fa          	endbr64 
  4020c4:	68 09 00 00 00       	pushq  $0x9
  4020c9:	f2 e9 51 ff ff ff    	bnd jmpq 402020 <.plt>
  4020cf:	90                   	nop
  4020d0:	f3 0f 1e fa          	endbr64 
  4020d4:	68 0a 00 00 00       	pushq  $0xa
  4020d9:	f2 e9 41 ff ff ff    	bnd jmpq 402020 <.plt>
  4020df:	90                   	nop
  4020e0:	f3 0f 1e fa          	endbr64 
  4020e4:	68 0b 00 00 00       	pushq  $0xb
  4020e9:	f2 e9 31 ff ff ff    	bnd jmpq 402020 <.plt>
  4020ef:	90                   	nop
  4020f0:	f3 0f 1e fa          	endbr64 
  4020f4:	68 0c 00 00 00       	pushq  $0xc
  4020f9:	f2 e9 21 ff ff ff    	bnd jmpq 402020 <.plt>
  4020ff:	90                   	nop
  402100:	f3 0f 1e fa          	endbr64 
  402104:	68 0d 00 00 00       	pushq  $0xd
  402109:	f2 e9 11 ff ff ff    	bnd jmpq 402020 <.plt>
  40210f:	90                   	nop
  402110:	f3 0f 1e fa          	endbr64 
  402114:	68 0e 00 00 00       	pushq  $0xe
  402119:	f2 e9 01 ff ff ff    	bnd jmpq 402020 <.plt>
  40211f:	90                   	nop
  402120:	f3 0f 1e fa          	endbr64 
  402124:	68 0f 00 00 00       	pushq  $0xf
  402129:	f2 e9 f1 fe ff ff    	bnd jmpq 402020 <.plt>
  40212f:	90                   	nop
  402130:	f3 0f 1e fa          	endbr64 
  402134:	68 10 00 00 00       	pushq  $0x10
  402139:	f2 e9 e1 fe ff ff    	bnd jmpq 402020 <.plt>
  40213f:	90                   	nop
  402140:	f3 0f 1e fa          	endbr64 
  402144:	68 11 00 00 00       	pushq  $0x11
  402149:	f2 e9 d1 fe ff ff    	bnd jmpq 402020 <.plt>
  40214f:	90                   	nop
  402150:	f3 0f 1e fa          	endbr64 
  402154:	68 12 00 00 00       	pushq  $0x12
  402159:	f2 e9 c1 fe ff ff    	bnd jmpq 402020 <.plt>
  40215f:	90                   	nop
  402160:	f3 0f 1e fa          	endbr64 
  402164:	68 13 00 00 00       	pushq  $0x13
  402169:	f2 e9 b1 fe ff ff    	bnd jmpq 402020 <.plt>
  40216f:	90                   	nop
  402170:	f3 0f 1e fa          	endbr64 
  402174:	68 14 00 00 00       	pushq  $0x14
  402179:	f2 e9 a1 fe ff ff    	bnd jmpq 402020 <.plt>
  40217f:	90                   	nop
  402180:	f3 0f 1e fa          	endbr64 
  402184:	68 15 00 00 00       	pushq  $0x15
  402189:	f2 e9 91 fe ff ff    	bnd jmpq 402020 <.plt>
  40218f:	90                   	nop
  402190:	f3 0f 1e fa          	endbr64 
  402194:	68 16 00 00 00       	pushq  $0x16
  402199:	f2 e9 81 fe ff ff    	bnd jmpq 402020 <.plt>
  40219f:	90                   	nop
  4021a0:	f3 0f 1e fa          	endbr64 
  4021a4:	68 17 00 00 00       	pushq  $0x17
  4021a9:	f2 e9 71 fe ff ff    	bnd jmpq 402020 <.plt>
  4021af:	90                   	nop
  4021b0:	f3 0f 1e fa          	endbr64 
  4021b4:	68 18 00 00 00       	pushq  $0x18
  4021b9:	f2 e9 61 fe ff ff    	bnd jmpq 402020 <.plt>
  4021bf:	90                   	nop
  4021c0:	f3 0f 1e fa          	endbr64 
  4021c4:	68 19 00 00 00       	pushq  $0x19
  4021c9:	f2 e9 51 fe ff ff    	bnd jmpq 402020 <.plt>
  4021cf:	90                   	nop
  4021d0:	f3 0f 1e fa          	endbr64 
  4021d4:	68 1a 00 00 00       	pushq  $0x1a
  4021d9:	f2 e9 41 fe ff ff    	bnd jmpq 402020 <.plt>
  4021df:	90                   	nop
  4021e0:	f3 0f 1e fa          	endbr64 
  4021e4:	68 1b 00 00 00       	pushq  $0x1b
  4021e9:	f2 e9 31 fe ff ff    	bnd jmpq 402020 <.plt>
  4021ef:	90                   	nop
  4021f0:	f3 0f 1e fa          	endbr64 
  4021f4:	68 1c 00 00 00       	pushq  $0x1c
  4021f9:	f2 e9 21 fe ff ff    	bnd jmpq 402020 <.plt>
  4021ff:	90                   	nop
  402200:	f3 0f 1e fa          	endbr64 
  402204:	68 1d 00 00 00       	pushq  $0x1d
  402209:	f2 e9 11 fe ff ff    	bnd jmpq 402020 <.plt>
  40220f:	90                   	nop
  402210:	f3 0f 1e fa          	endbr64 
  402214:	68 1e 00 00 00       	pushq  $0x1e
  402219:	f2 e9 01 fe ff ff    	bnd jmpq 402020 <.plt>
  40221f:	90                   	nop
  402220:	f3 0f 1e fa          	endbr64 
  402224:	68 1f 00 00 00       	pushq  $0x1f
  402229:	f2 e9 f1 fd ff ff    	bnd jmpq 402020 <.plt>
  40222f:	90                   	nop
  402230:	f3 0f 1e fa          	endbr64 
  402234:	68 20 00 00 00       	pushq  $0x20
  402239:	f2 e9 e1 fd ff ff    	bnd jmpq 402020 <.plt>
  40223f:	90                   	nop
  402240:	f3 0f 1e fa          	endbr64 
  402244:	68 21 00 00 00       	pushq  $0x21
  402249:	f2 e9 d1 fd ff ff    	bnd jmpq 402020 <.plt>
  40224f:	90                   	nop
  402250:	f3 0f 1e fa          	endbr64 
  402254:	68 22 00 00 00       	pushq  $0x22
  402259:	f2 e9 c1 fd ff ff    	bnd jmpq 402020 <.plt>
  40225f:	90                   	nop
  402260:	f3 0f 1e fa          	endbr64 
  402264:	68 23 00 00 00       	pushq  $0x23
  402269:	f2 e9 b1 fd ff ff    	bnd jmpq 402020 <.plt>
  40226f:	90                   	nop
  402270:	f3 0f 1e fa          	endbr64 
  402274:	68 24 00 00 00       	pushq  $0x24
  402279:	f2 e9 a1 fd ff ff    	bnd jmpq 402020 <.plt>
  40227f:	90                   	nop
  402280:	f3 0f 1e fa          	endbr64 
  402284:	68 25 00 00 00       	pushq  $0x25
  402289:	f2 e9 91 fd ff ff    	bnd jmpq 402020 <.plt>
  40228f:	90                   	nop
  402290:	f3 0f 1e fa          	endbr64 
  402294:	68 26 00 00 00       	pushq  $0x26
  402299:	f2 e9 81 fd ff ff    	bnd jmpq 402020 <.plt>
  40229f:	90                   	nop
  4022a0:	f3 0f 1e fa          	endbr64 
  4022a4:	68 27 00 00 00       	pushq  $0x27
  4022a9:	f2 e9 71 fd ff ff    	bnd jmpq 402020 <.plt>
  4022af:	90                   	nop
  4022b0:	f3 0f 1e fa          	endbr64 
  4022b4:	68 28 00 00 00       	pushq  $0x28
  4022b9:	f2 e9 61 fd ff ff    	bnd jmpq 402020 <.plt>
  4022bf:	90                   	nop
  4022c0:	f3 0f 1e fa          	endbr64 
  4022c4:	68 29 00 00 00       	pushq  $0x29
  4022c9:	f2 e9 51 fd ff ff    	bnd jmpq 402020 <.plt>
  4022cf:	90                   	nop
  4022d0:	f3 0f 1e fa          	endbr64 
  4022d4:	68 2a 00 00 00       	pushq  $0x2a
  4022d9:	f2 e9 41 fd ff ff    	bnd jmpq 402020 <.plt>
  4022df:	90                   	nop
  4022e0:	f3 0f 1e fa          	endbr64 
  4022e4:	68 2b 00 00 00       	pushq  $0x2b
  4022e9:	f2 e9 31 fd ff ff    	bnd jmpq 402020 <.plt>
  4022ef:	90                   	nop
  4022f0:	f3 0f 1e fa          	endbr64 
  4022f4:	68 2c 00 00 00       	pushq  $0x2c
  4022f9:	f2 e9 21 fd ff ff    	bnd jmpq 402020 <.plt>
  4022ff:	90                   	nop
  402300:	f3 0f 1e fa          	endbr64 
  402304:	68 2d 00 00 00       	pushq  $0x2d
  402309:	f2 e9 11 fd ff ff    	bnd jmpq 402020 <.plt>
  40230f:	90                   	nop
  402310:	f3 0f 1e fa          	endbr64 
  402314:	68 2e 00 00 00       	pushq  $0x2e
  402319:	f2 e9 01 fd ff ff    	bnd jmpq 402020 <.plt>
  40231f:	90                   	nop
  402320:	f3 0f 1e fa          	endbr64 
  402324:	68 2f 00 00 00       	pushq  $0x2f
  402329:	f2 e9 f1 fc ff ff    	bnd jmpq 402020 <.plt>
  40232f:	90                   	nop
  402330:	f3 0f 1e fa          	endbr64 
  402334:	68 30 00 00 00       	pushq  $0x30
  402339:	f2 e9 e1 fc ff ff    	bnd jmpq 402020 <.plt>
  40233f:	90                   	nop
  402340:	f3 0f 1e fa          	endbr64 
  402344:	68 31 00 00 00       	pushq  $0x31
  402349:	f2 e9 d1 fc ff ff    	bnd jmpq 402020 <.plt>
  40234f:	90                   	nop
  402350:	f3 0f 1e fa          	endbr64 
  402354:	68 32 00 00 00       	pushq  $0x32
  402359:	f2 e9 c1 fc ff ff    	bnd jmpq 402020 <.plt>
  40235f:	90                   	nop
  402360:	f3 0f 1e fa          	endbr64 
  402364:	68 33 00 00 00       	pushq  $0x33
  402369:	f2 e9 b1 fc ff ff    	bnd jmpq 402020 <.plt>
  40236f:	90                   	nop
  402370:	f3 0f 1e fa          	endbr64 
  402374:	68 34 00 00 00       	pushq  $0x34
  402379:	f2 e9 a1 fc ff ff    	bnd jmpq 402020 <.plt>
  40237f:	90                   	nop
  402380:	f3 0f 1e fa          	endbr64 
  402384:	68 35 00 00 00       	pushq  $0x35
  402389:	f2 e9 91 fc ff ff    	bnd jmpq 402020 <.plt>
  40238f:	90                   	nop
  402390:	f3 0f 1e fa          	endbr64 
  402394:	68 36 00 00 00       	pushq  $0x36
  402399:	f2 e9 81 fc ff ff    	bnd jmpq 402020 <.plt>
  40239f:	90                   	nop
  4023a0:	f3 0f 1e fa          	endbr64 
  4023a4:	68 37 00 00 00       	pushq  $0x37
  4023a9:	f2 e9 71 fc ff ff    	bnd jmpq 402020 <.plt>
  4023af:	90                   	nop
  4023b0:	f3 0f 1e fa          	endbr64 
  4023b4:	68 38 00 00 00       	pushq  $0x38
  4023b9:	f2 e9 61 fc ff ff    	bnd jmpq 402020 <.plt>
  4023bf:	90                   	nop
  4023c0:	f3 0f 1e fa          	endbr64 
  4023c4:	68 39 00 00 00       	pushq  $0x39
  4023c9:	f2 e9 51 fc ff ff    	bnd jmpq 402020 <.plt>
  4023cf:	90                   	nop
  4023d0:	f3 0f 1e fa          	endbr64 
  4023d4:	68 3a 00 00 00       	pushq  $0x3a
  4023d9:	f2 e9 41 fc ff ff    	bnd jmpq 402020 <.plt>
  4023df:	90                   	nop
  4023e0:	f3 0f 1e fa          	endbr64 
  4023e4:	68 3b 00 00 00       	pushq  $0x3b
  4023e9:	f2 e9 31 fc ff ff    	bnd jmpq 402020 <.plt>
  4023ef:	90                   	nop
  4023f0:	f3 0f 1e fa          	endbr64 
  4023f4:	68 3c 00 00 00       	pushq  $0x3c
  4023f9:	f2 e9 21 fc ff ff    	bnd jmpq 402020 <.plt>
  4023ff:	90                   	nop
  402400:	f3 0f 1e fa          	endbr64 
  402404:	68 3d 00 00 00       	pushq  $0x3d
  402409:	f2 e9 11 fc ff ff    	bnd jmpq 402020 <.plt>
  40240f:	90                   	nop
  402410:	f3 0f 1e fa          	endbr64 
  402414:	68 3e 00 00 00       	pushq  $0x3e
  402419:	f2 e9 01 fc ff ff    	bnd jmpq 402020 <.plt>
  40241f:	90                   	nop
  402420:	f3 0f 1e fa          	endbr64 
  402424:	68 3f 00 00 00       	pushq  $0x3f
  402429:	f2 e9 f1 fb ff ff    	bnd jmpq 402020 <.plt>
  40242f:	90                   	nop
  402430:	f3 0f 1e fa          	endbr64 
  402434:	68 40 00 00 00       	pushq  $0x40
  402439:	f2 e9 e1 fb ff ff    	bnd jmpq 402020 <.plt>
  40243f:	90                   	nop
  402440:	f3 0f 1e fa          	endbr64 
  402444:	68 41 00 00 00       	pushq  $0x41
  402449:	f2 e9 d1 fb ff ff    	bnd jmpq 402020 <.plt>
  40244f:	90                   	nop
  402450:	f3 0f 1e fa          	endbr64 
  402454:	68 42 00 00 00       	pushq  $0x42
  402459:	f2 e9 c1 fb ff ff    	bnd jmpq 402020 <.plt>
  40245f:	90                   	nop
  402460:	f3 0f 1e fa          	endbr64 
  402464:	68 43 00 00 00       	pushq  $0x43
  402469:	f2 e9 b1 fb ff ff    	bnd jmpq 402020 <.plt>
  40246f:	90                   	nop

Disassembly of section .plt.sec:

0000000000402470 <free@plt>:
  402470:	f3 0f 1e fa          	endbr64 
  402474:	f2 ff 25 9d ab 00 00 	bnd jmpq *0xab9d(%rip)        # 40d018 <free@GLIBC_2.2.5>
  40247b:	0f 1f 44 00 00       	nopl   0x0(%rax,%rax,1)

0000000000402480 <pthread_create@plt>:
  402480:	f3 0f 1e fa          	endbr64 
  402484:	f2 ff 25 95 ab 00 00 	bnd jmpq *0xab95(%rip)        # 40d020 <pthread_create@GLIBC_2.2.5>
  40248b:	0f 1f 44 00 00       	nopl   0x0(%rax,%rax,1)

0000000000402490 <pthread_detach@plt>:
  402490:	f3 0f 1e fa          	endbr64 
  402494:	f2 ff 25 8d ab 00 00 	bnd jmpq *0xab8d(%rip)        # 40d028 <pthread_detach@GLIBC_2.2.5>
  40249b:	0f 1f 44 00 00       	nopl   0x0(%rax,%rax,1)

00000000004024a0 <localtime@plt>:
  4024a0:	f3 0f 1e fa          	endbr64 
  4024a4:	f2 ff 25 85 ab 00 00 	bnd jmpq *0xab85(%rip)        # 40d030 <localtime@GLIBC_2.2.5>
  4024ab:	0f 1f 44 00 00       	nopl   0x0(%rax,%rax,1)

00000000004024b0 <__errno_location@plt>:
  4024b0:	f3 0f 1e fa          	endbr64 
  4024b4:	f2 ff 25 7d ab 00 00 	bnd jmpq *0xab7d(%rip)        # 40d038 <__errno_location@GLIBC_2.2.5>
  4024bb:	0f 1f 44 00 00       	nopl   0x0(%rax,%rax,1)

00000000004024c0 <strncpy@plt>:
  4024c0:	f3 0f 1e fa          	endbr64 
  4024c4:	f2 ff 25 75 ab 00 00 	bnd jmpq *0xab75(%rip)        # 40d040 <strncpy@GLIBC_2.2.5>
  4024cb:	0f 1f 44 00 00       	nopl   0x0(%rax,%rax,1)

00000000004024d0 <strcpy@plt>:
  4024d0:	f3 0f 1e fa          	endbr64 
  4024d4:	f2 ff 25 6d ab 00 00 	bnd jmpq *0xab6d(%rip)        # 40d048 <strcpy@GLIBC_2.2.5>
  4024db:	0f 1f 44 00 00       	nopl   0x0(%rax,%rax,1)

00000000004024e0 <pthread_cond_broadcast@plt>:
  4024e0:	f3 0f 1e fa          	endbr64 
  4024e4:	f2 ff 25 65 ab 00 00 	bnd jmpq *0xab65(%rip)        # 40d050 <pthread_cond_broadcast@GLIBC_2.3.2>
  4024eb:	0f 1f 44 00 00       	nopl   0x0(%rax,%rax,1)

00000000004024f0 <puts@plt>:
  4024f0:	f3 0f 1e fa          	endbr64 
  4024f4:	f2 ff 25 5d ab 00 00 	bnd jmpq *0xab5d(%rip)        # 40d058 <puts@GLIBC_2.2.5>
  4024fb:	0f 1f 44 00 00       	nopl   0x0(%rax,%rax,1)

0000000000402500 <sigaction@plt>:
  402500:	f3 0f 1e fa          	endbr64 
  402504:	f2 ff 25 55 ab 00 00 	bnd jmpq *0xab55(%rip)        # 40d060 <sigaction@GLIBC_2.2.5>
  40250b:	0f 1f 44 00 00       	nopl   0x0(%rax,%rax,1)

0000000000402510 <setsockopt@plt>:
  402510:	f3 0f 1e fa          	endbr64 
  402514:	f2 ff 25 4d ab 00 00 	bnd jmpq *0xab4d(%rip)        # 40d068 <setsockopt@GLIBC_2.2.5>
  40251b:	0f 1f 44 00 00       	nopl   0x0(%rax,%rax,1)

0000000000402520 <write@plt>:
  402520:	f3 0f 1e fa          	endbr64 
  402524:	f2 ff 25 45 ab 00 00 	bnd jmpq *0xab45(%rip)        # 40d070 <write@GLIBC_2.2.5>
  40252b:	0f 1f 44 00 00       	nopl   0x0(%rax,%rax,1)

0000000000402530 <pthread_kill@plt>:
  402530:	f3 0f 1e fa          	endbr64 
  402534:	f2 ff 25 3d ab 00 00 	bnd jmpq *0xab3d(%rip)        # 40d078 <pthread_kill@GLIBC_2.2.5>
  40253b:	0f 1f 44 00 00       	nopl   0x0(%rax,%rax,1)

0000000000402540 <inet_ntoa@plt>:
  402540:	f3 0f 1e fa          	endbr64 
  402544:	f2 ff 25 35 ab 00 00 	bnd jmpq *0xab35(%rip)        # 40d080 <inet_ntoa@GLIBC_2.2.5>
  40254b:	0f 1f 44 00 00       	nopl   0x0(%rax,%rax,1)

0000000000402550 <pthread_cond_wait@plt>:
  402550:	f3 0f 1e fa          	endbr64 
  402554:	f2 ff 25 2d ab 00 00 	bnd jmpq *0xab2d(%rip)        # 40d088 <pthread_cond_wait@GLIBC_2.3.2>
  40255b:	0f 1f 44 00 00       	nopl   0x0(%rax,%rax,1)

0000000000402560 <fclose@plt>:
  402560:	f3 0f 1e fa          	endbr64 
  402564:	f2 ff 25 25 ab 00 00 	bnd jmpq *0xab25(%rip)        # 40d090 <fclose@GLIBC_2.2.5>
  40256b:	0f 1f 44 00 00       	nopl   0x0(%rax,%rax,1)

0000000000402570 <strlen@plt>:
  402570:	f3 0f 1e fa          	endbr64 
  402574:	f2 ff 25 1d ab 00 00 	bnd jmpq *0xab1d(%rip)        # 40d098 <strlen@GLIBC_2.2.5>
  40257b:	0f 1f 44 00 00       	nopl   0x0(%rax,%rax,1)

0000000000402580 <__stack_chk_fail@plt>:
  402580:	f3 0f 1e fa          	endbr64 
  402584:	f2 ff 25 15 ab 00 00 	bnd jmpq *0xab15(%rip)        # 40d0a0 <__stack_chk_fail@GLIBC_2.4>
  40258b:	0f 1f 44 00 00       	nopl   0x0(%rax,%rax,1)

0000000000402590 <getopt_long@plt>:
  402590:	f3 0f 1e fa          	endbr64 
  402594:	f2 ff 25 0d ab 00 00 	bnd jmpq *0xab0d(%rip)        # 40d0a8 <getopt_long@GLIBC_2.2.5>
  40259b:	0f 1f 44 00 00       	nopl   0x0(%rax,%rax,1)

00000000004025a0 <asctime@plt>:
  4025a0:	f3 0f 1e fa          	endbr64 
  4025a4:	f2 ff 25 05 ab 00 00 	bnd jmpq *0xab05(%rip)        # 40d0b0 <asctime@GLIBC_2.2.5>
  4025ab:	0f 1f 44 00 00       	nopl   0x0(%rax,%rax,1)

00000000004025b0 <system@plt>:
  4025b0:	f3 0f 1e fa          	endbr64 
  4025b4:	f2 ff 25 fd aa 00 00 	bnd jmpq *0xaafd(%rip)        # 40d0b8 <system@GLIBC_2.2.5>
  4025bb:	0f 1f 44 00 00       	nopl   0x0(%rax,%rax,1)

00000000004025c0 <htons@plt>:
  4025c0:	f3 0f 1e fa          	endbr64 
  4025c4:	f2 ff 25 f5 aa 00 00 	bnd jmpq *0xaaf5(%rip)        # 40d0c0 <htons@GLIBC_2.2.5>
  4025cb:	0f 1f 44 00 00       	nopl   0x0(%rax,%rax,1)

00000000004025d0 <printf@plt>:
  4025d0:	f3 0f 1e fa          	endbr64 
  4025d4:	f2 ff 25 ed aa 00 00 	bnd jmpq *0xaaed(%rip)        # 40d0c8 <printf@GLIBC_2.2.5>
  4025db:	0f 1f 44 00 00       	nopl   0x0(%rax,%rax,1)

00000000004025e0 <difftime@plt>:
  4025e0:	f3 0f 1e fa          	endbr64 
  4025e4:	f2 ff 25 e5 aa 00 00 	bnd jmpq *0xaae5(%rip)        # 40d0d0 <difftime@GLIBC_2.2.5>
  4025eb:	0f 1f 44 00 00       	nopl   0x0(%rax,%rax,1)

00000000004025f0 <pclose@plt>:
  4025f0:	f3 0f 1e fa          	endbr64 
  4025f4:	f2 ff 25 dd aa 00 00 	bnd jmpq *0xaadd(%rip)        # 40d0d8 <pclose@GLIBC_2.2.5>
  4025fb:	0f 1f 44 00 00       	nopl   0x0(%rax,%rax,1)

0000000000402600 <memset@plt>:
  402600:	f3 0f 1e fa          	endbr64 
  402604:	f2 ff 25 d5 aa 00 00 	bnd jmpq *0xaad5(%rip)        # 40d0e0 <memset@GLIBC_2.2.5>
  40260b:	0f 1f 44 00 00       	nopl   0x0(%rax,%rax,1)

0000000000402610 <ioctl@plt>:
  402610:	f3 0f 1e fa          	endbr64 
  402614:	f2 ff 25 cd aa 00 00 	bnd jmpq *0xaacd(%rip)        # 40d0e8 <ioctl@GLIBC_2.2.5>
  40261b:	0f 1f 44 00 00       	nopl   0x0(%rax,%rax,1)

0000000000402620 <sendto@plt>:
  402620:	f3 0f 1e fa          	endbr64 
  402624:	f2 ff 25 c5 aa 00 00 	bnd jmpq *0xaac5(%rip)        # 40d0f0 <sendto@GLIBC_2.2.5>
  40262b:	0f 1f 44 00 00       	nopl   0x0(%rax,%rax,1)

0000000000402630 <close@plt>:
  402630:	f3 0f 1e fa          	endbr64 
  402634:	f2 ff 25 bd aa 00 00 	bnd jmpq *0xaabd(%rip)        # 40d0f8 <close@GLIBC_2.2.5>
  40263b:	0f 1f 44 00 00       	nopl   0x0(%rax,%rax,1)

0000000000402640 <pipe@plt>:
  402640:	f3 0f 1e fa          	endbr64 
  402644:	f2 ff 25 b5 aa 00 00 	bnd jmpq *0xaab5(%rip)        # 40d100 <pipe@GLIBC_2.2.5>
  40264b:	0f 1f 44 00 00       	nopl   0x0(%rax,%rax,1)

0000000000402650 <fputc@plt>:
  402650:	f3 0f 1e fa          	endbr64 
  402654:	f2 ff 25 ad aa 00 00 	bnd jmpq *0xaaad(%rip)        # 40d108 <fputc@GLIBC_2.2.5>
  40265b:	0f 1f 44 00 00       	nopl   0x0(%rax,%rax,1)

0000000000402660 <read@plt>:
  402660:	f3 0f 1e fa          	endbr64 
  402664:	f2 ff 25 a5 aa 00 00 	bnd jmpq *0xaaa5(%rip)        # 40d110 <read@GLIBC_2.2.5>
  40266b:	0f 1f 44 00 00       	nopl   0x0(%rax,%rax,1)

0000000000402670 <fgets@plt>:
  402670:	f3 0f 1e fa          	endbr64 
  402674:	f2 ff 25 9d aa 00 00 	bnd jmpq *0xaa9d(%rip)        # 40d118 <fgets@GLIBC_2.2.5>
  40267b:	0f 1f 44 00 00       	nopl   0x0(%rax,%rax,1)

0000000000402680 <pthread_cond_signal@plt>:
  402680:	f3 0f 1e fa          	endbr64 
  402684:	f2 ff 25 95 aa 00 00 	bnd jmpq *0xaa95(%rip)        # 40d120 <pthread_cond_signal@GLIBC_2.3.2>
  40268b:	0f 1f 44 00 00       	nopl   0x0(%rax,%rax,1)

0000000000402690 <inet_addr@plt>:
  402690:	f3 0f 1e fa          	endbr64 
  402694:	f2 ff 25 8d aa 00 00 	bnd jmpq *0xaa8d(%rip)        # 40d128 <inet_addr@GLIBC_2.2.5>
  40269b:	0f 1f 44 00 00       	nopl   0x0(%rax,%rax,1)

00000000004026a0 <strcmp@plt>:
  4026a0:	f3 0f 1e fa          	endbr64 
  4026a4:	f2 ff 25 85 aa 00 00 	bnd jmpq *0xaa85(%rip)        # 40d130 <strcmp@GLIBC_2.2.5>
  4026ab:	0f 1f 44 00 00       	nopl   0x0(%rax,%rax,1)

00000000004026b0 <signal@plt>:
  4026b0:	f3 0f 1e fa          	endbr64 
  4026b4:	f2 ff 25 7d aa 00 00 	bnd jmpq *0xaa7d(%rip)        # 40d138 <signal@GLIBC_2.2.5>
  4026bb:	0f 1f 44 00 00       	nopl   0x0(%rax,%rax,1)

00000000004026c0 <fprintf@plt>:
  4026c0:	f3 0f 1e fa          	endbr64 
  4026c4:	f2 ff 25 75 aa 00 00 	bnd jmpq *0xaa75(%rip)        # 40d140 <fprintf@GLIBC_2.2.5>
  4026cb:	0f 1f 44 00 00       	nopl   0x0(%rax,%rax,1)

00000000004026d0 <sigemptyset@plt>:
  4026d0:	f3 0f 1e fa          	endbr64 
  4026d4:	f2 ff 25 6d aa 00 00 	bnd jmpq *0xaa6d(%rip)        # 40d148 <sigemptyset@GLIBC_2.2.5>
  4026db:	0f 1f 44 00 00       	nopl   0x0(%rax,%rax,1)

00000000004026e0 <prctl@plt>:
  4026e0:	f3 0f 1e fa          	endbr64 
  4026e4:	f2 ff 25 65 aa 00 00 	bnd jmpq *0xaa65(%rip)        # 40d150 <prctl@GLIBC_2.2.5>
  4026eb:	0f 1f 44 00 00       	nopl   0x0(%rax,%rax,1)

00000000004026f0 <pthread_setname_np@plt>:
  4026f0:	f3 0f 1e fa          	endbr64 
  4026f4:	f2 ff 25 5d aa 00 00 	bnd jmpq *0xaa5d(%rip)        # 40d158 <pthread_setname_np@GLIBC_2.12>
  4026fb:	0f 1f 44 00 00       	nopl   0x0(%rax,%rax,1)

0000000000402700 <time@plt>:
  402700:	f3 0f 1e fa          	endbr64 
  402704:	f2 ff 25 55 aa 00 00 	bnd jmpq *0xaa55(%rip)        # 40d160 <time@GLIBC_2.2.5>
  40270b:	0f 1f 44 00 00       	nopl   0x0(%rax,%rax,1)

0000000000402710 <select@plt>:
  402710:	f3 0f 1e fa          	endbr64 
  402714:	f2 ff 25 4d aa 00 00 	bnd jmpq *0xaa4d(%rip)        # 40d168 <select@GLIBC_2.2.5>
  40271b:	0f 1f 44 00 00       	nopl   0x0(%rax,%rax,1)

0000000000402720 <pthread_cond_init@plt>:
  402720:	f3 0f 1e fa          	endbr64 
  402724:	f2 ff 25 45 aa 00 00 	bnd jmpq *0xaa45(%rip)        # 40d170 <pthread_cond_init@GLIBC_2.3.2>
  40272b:	0f 1f 44 00 00       	nopl   0x0(%rax,%rax,1)

0000000000402730 <pthread_mutex_unlock@plt>:
  402730:	f3 0f 1e fa          	endbr64 
  402734:	f2 ff 25 3d aa 00 00 	bnd jmpq *0xaa3d(%rip)        # 40d178 <pthread_mutex_unlock@GLIBC_2.2.5>
  40273b:	0f 1f 44 00 00       	nopl   0x0(%rax,%rax,1)

0000000000402740 <malloc@plt>:
  402740:	f3 0f 1e fa          	endbr64 
  402744:	f2 ff 25 35 aa 00 00 	bnd jmpq *0xaa35(%rip)        # 40d180 <malloc@GLIBC_2.2.5>
  40274b:	0f 1f 44 00 00       	nopl   0x0(%rax,%rax,1)

0000000000402750 <fflush@plt>:
  402750:	f3 0f 1e fa          	endbr64 
  402754:	f2 ff 25 2d aa 00 00 	bnd jmpq *0xaa2d(%rip)        # 40d188 <fflush@GLIBC_2.2.5>
  40275b:	0f 1f 44 00 00       	nopl   0x0(%rax,%rax,1)

0000000000402760 <listen@plt>:
  402760:	f3 0f 1e fa          	endbr64 
  402764:	f2 ff 25 25 aa 00 00 	bnd jmpq *0xaa25(%rip)        # 40d190 <listen@GLIBC_2.2.5>
  40276b:	0f 1f 44 00 00       	nopl   0x0(%rax,%rax,1)

0000000000402770 <recvfrom@plt>:
  402770:	f3 0f 1e fa          	endbr64 
  402774:	f2 ff 25 1d aa 00 00 	bnd jmpq *0xaa1d(%rip)        # 40d198 <recvfrom@GLIBC_2.2.5>
  40277b:	0f 1f 44 00 00       	nopl   0x0(%rax,%rax,1)

0000000000402780 <ntohs@plt>:
  402780:	f3 0f 1e fa          	endbr64 
  402784:	f2 ff 25 15 aa 00 00 	bnd jmpq *0xaa15(%rip)        # 40d1a0 <ntohs@GLIBC_2.2.5>
  40278b:	0f 1f 44 00 00       	nopl   0x0(%rax,%rax,1)

0000000000402790 <bind@plt>:
  402790:	f3 0f 1e fa          	endbr64 
  402794:	f2 ff 25 0d aa 00 00 	bnd jmpq *0xaa0d(%rip)        # 40d1a8 <bind@GLIBC_2.2.5>
  40279b:	0f 1f 44 00 00       	nopl   0x0(%rax,%rax,1)

00000000004027a0 <open@plt>:
  4027a0:	f3 0f 1e fa          	endbr64 
  4027a4:	f2 ff 25 05 aa 00 00 	bnd jmpq *0xaa05(%rip)        # 40d1b0 <open@GLIBC_2.2.5>
  4027ab:	0f 1f 44 00 00       	nopl   0x0(%rax,%rax,1)

00000000004027b0 <popen@plt>:
  4027b0:	f3 0f 1e fa          	endbr64 
  4027b4:	f2 ff 25 fd a9 00 00 	bnd jmpq *0xa9fd(%rip)        # 40d1b8 <popen@GLIBC_2.2.5>
  4027bb:	0f 1f 44 00 00       	nopl   0x0(%rax,%rax,1)

00000000004027c0 <fopen@plt>:
  4027c0:	f3 0f 1e fa          	endbr64 
  4027c4:	f2 ff 25 f5 a9 00 00 	bnd jmpq *0xa9f5(%rip)        # 40d1c0 <fopen@GLIBC_2.2.5>
  4027cb:	0f 1f 44 00 00       	nopl   0x0(%rax,%rax,1)

00000000004027d0 <perror@plt>:
  4027d0:	f3 0f 1e fa          	endbr64 
  4027d4:	f2 ff 25 ed a9 00 00 	bnd jmpq *0xa9ed(%rip)        # 40d1c8 <perror@GLIBC_2.2.5>
  4027db:	0f 1f 44 00 00       	nopl   0x0(%rax,%rax,1)

00000000004027e0 <vfprintf@plt>:
  4027e0:	f3 0f 1e fa          	endbr64 
  4027e4:	f2 ff 25 e5 a9 00 00 	bnd jmpq *0xa9e5(%rip)        # 40d1d0 <vfprintf@GLIBC_2.2.5>
  4027eb:	0f 1f 44 00 00       	nopl   0x0(%rax,%rax,1)

00000000004027f0 <accept@plt>:
  4027f0:	f3 0f 1e fa          	endbr64 
  4027f4:	f2 ff 25 dd a9 00 00 	bnd jmpq *0xa9dd(%rip)        # 40d1d8 <accept@GLIBC_2.2.5>
  4027fb:	0f 1f 44 00 00       	nopl   0x0(%rax,%rax,1)

0000000000402800 <atoi@plt>:
  402800:	f3 0f 1e fa          	endbr64 
  402804:	f2 ff 25 d5 a9 00 00 	bnd jmpq *0xa9d5(%rip)        # 40d1e0 <atoi@GLIBC_2.2.5>
  40280b:	0f 1f 44 00 00       	nopl   0x0(%rax,%rax,1)

0000000000402810 <sprintf@plt>:
  402810:	f3 0f 1e fa          	endbr64 
  402814:	f2 ff 25 cd a9 00 00 	bnd jmpq *0xa9cd(%rip)        # 40d1e8 <sprintf@GLIBC_2.2.5>
  40281b:	0f 1f 44 00 00       	nopl   0x0(%rax,%rax,1)

0000000000402820 <exit@plt>:
  402820:	f3 0f 1e fa          	endbr64 
  402824:	f2 ff 25 c5 a9 00 00 	bnd jmpq *0xa9c5(%rip)        # 40d1f0 <exit@GLIBC_2.2.5>
  40282b:	0f 1f 44 00 00       	nopl   0x0(%rax,%rax,1)

0000000000402830 <connect@plt>:
  402830:	f3 0f 1e fa          	endbr64 
  402834:	f2 ff 25 bd a9 00 00 	bnd jmpq *0xa9bd(%rip)        # 40d1f8 <connect@GLIBC_2.2.5>
  40283b:	0f 1f 44 00 00       	nopl   0x0(%rax,%rax,1)

0000000000402840 <fwrite@plt>:
  402840:	f3 0f 1e fa          	endbr64 
  402844:	f2 ff 25 b5 a9 00 00 	bnd jmpq *0xa9b5(%rip)        # 40d200 <fwrite@GLIBC_2.2.5>
  40284b:	0f 1f 44 00 00       	nopl   0x0(%rax,%rax,1)

0000000000402850 <sleep@plt>:
  402850:	f3 0f 1e fa          	endbr64 
  402854:	f2 ff 25 ad a9 00 00 	bnd jmpq *0xa9ad(%rip)        # 40d208 <sleep@GLIBC_2.2.5>
  40285b:	0f 1f 44 00 00       	nopl   0x0(%rax,%rax,1)

0000000000402860 <pthread_mutex_init@plt>:
  402860:	f3 0f 1e fa          	endbr64 
  402864:	f2 ff 25 a5 a9 00 00 	bnd jmpq *0xa9a5(%rip)        # 40d210 <pthread_mutex_init@GLIBC_2.2.5>
  40286b:	0f 1f 44 00 00       	nopl   0x0(%rax,%rax,1)

0000000000402870 <strstr@plt>:
  402870:	f3 0f 1e fa          	endbr64 
  402874:	f2 ff 25 9d a9 00 00 	bnd jmpq *0xa99d(%rip)        # 40d218 <strstr@GLIBC_2.2.5>
  40287b:	0f 1f 44 00 00       	nopl   0x0(%rax,%rax,1)

0000000000402880 <pthread_mutex_lock@plt>:
  402880:	f3 0f 1e fa          	endbr64 
  402884:	f2 ff 25 95 a9 00 00 	bnd jmpq *0xa995(%rip)        # 40d220 <pthread_mutex_lock@GLIBC_2.2.5>
  40288b:	0f 1f 44 00 00       	nopl   0x0(%rax,%rax,1)

0000000000402890 <usleep@plt>:
  402890:	f3 0f 1e fa          	endbr64 
  402894:	f2 ff 25 8d a9 00 00 	bnd jmpq *0xa98d(%rip)        # 40d228 <usleep@GLIBC_2.2.5>
  40289b:	0f 1f 44 00 00       	nopl   0x0(%rax,%rax,1)

00000000004028a0 <socket@plt>:
  4028a0:	f3 0f 1e fa          	endbr64 
  4028a4:	f2 ff 25 85 a9 00 00 	bnd jmpq *0xa985(%rip)        # 40d230 <socket@GLIBC_2.2.5>
  4028ab:	0f 1f 44 00 00       	nopl   0x0(%rax,%rax,1)

Disassembly of section .text:

00000000004028b0 <_start>:
  4028b0:	f3 0f 1e fa          	endbr64 
  4028b4:	31 ed                	xor    %ebp,%ebp
  4028b6:	49 89 d1             	mov    %rdx,%r9
  4028b9:	5e                   	pop    %rsi
  4028ba:	48 89 e2             	mov    %rsp,%rdx
  4028bd:	48 83 e4 f0          	and    $0xfffffffffffffff0,%rsp
  4028c1:	50                   	push   %rax
  4028c2:	54                   	push   %rsp
  4028c3:	49 c7 c0 e0 84 40 00 	mov    $0x4084e0,%r8
  4028ca:	48 c7 c1 70 84 40 00 	mov    $0x408470,%rcx
  4028d1:	48 c7 c7 d8 42 40 00 	mov    $0x4042d8,%rdi
  4028d8:	ff 15 02 a7 00 00    	callq  *0xa702(%rip)        # 40cfe0 <__libc_start_main@GLIBC_2.2.5>
  4028de:	f4                   	hlt    
  4028df:	90                   	nop

00000000004028e0 <_dl_relocate_static_pie>:
  4028e0:	f3 0f 1e fa          	endbr64 
  4028e4:	c3                   	retq   
  4028e5:	66 2e 0f 1f 84 00 00 	nopw   %cs:0x0(%rax,%rax,1)
  4028ec:	00 00 00 
  4028ef:	90                   	nop

00000000004028f0 <deregister_tm_clones>:
  4028f0:	b8 88 d2 40 00       	mov    $0x40d288,%eax
  4028f5:	48 3d 88 d2 40 00    	cmp    $0x40d288,%rax
  4028fb:	74 13                	je     402910 <deregister_tm_clones+0x20>
  4028fd:	b8 00 00 00 00       	mov    $0x0,%eax
  402902:	48 85 c0             	test   %rax,%rax
  402905:	74 09                	je     402910 <deregister_tm_clones+0x20>
  402907:	bf 88 d2 40 00       	mov    $0x40d288,%edi
  40290c:	ff e0                	jmpq   *%rax
  40290e:	66 90                	xchg   %ax,%ax
  402910:	c3                   	retq   
  402911:	66 66 2e 0f 1f 84 00 	data16 nopw %cs:0x0(%rax,%rax,1)
  402918:	00 00 00 00 
  40291c:	0f 1f 40 00          	nopl   0x0(%rax)

0000000000402920 <register_tm_clones>:
  402920:	be 88 d2 40 00       	mov    $0x40d288,%esi
  402925:	48 81 ee 88 d2 40 00 	sub    $0x40d288,%rsi
  40292c:	48 89 f0             	mov    %rsi,%rax
  40292f:	48 c1 ee 3f          	shr    $0x3f,%rsi
  402933:	48 c1 f8 03          	sar    $0x3,%rax
  402937:	48 01 c6             	add    %rax,%rsi
  40293a:	48 d1 fe             	sar    %rsi
  40293d:	74 11                	je     402950 <register_tm_clones+0x30>
  40293f:	b8 00 00 00 00       	mov    $0x0,%eax
  402944:	48 85 c0             	test   %rax,%rax
  402947:	74 07                	je     402950 <register_tm_clones+0x30>
  402949:	bf 88 d2 40 00       	mov    $0x40d288,%edi
  40294e:	ff e0                	jmpq   *%rax
  402950:	c3                   	retq   
  402951:	66 66 2e 0f 1f 84 00 	data16 nopw %cs:0x0(%rax,%rax,1)
  402958:	00 00 00 00 
  40295c:	0f 1f 40 00          	nopl   0x0(%rax)

0000000000402960 <__do_global_dtors_aux>:
  402960:	f3 0f 1e fa          	endbr64 
  402964:	80 3d 5d a9 00 00 00 	cmpb   $0x0,0xa95d(%rip)        # 40d2c8 <completed.8055>
  40296b:	75 13                	jne    402980 <__do_global_dtors_aux+0x20>
  40296d:	55                   	push   %rbp
  40296e:	48 89 e5             	mov    %rsp,%rbp
  402971:	e8 7a ff ff ff       	callq  4028f0 <deregister_tm_clones>
  402976:	c6 05 4b a9 00 00 01 	movb   $0x1,0xa94b(%rip)        # 40d2c8 <completed.8055>
  40297d:	5d                   	pop    %rbp
  40297e:	c3                   	retq   
  40297f:	90                   	nop
  402980:	c3                   	retq   
  402981:	66 66 2e 0f 1f 84 00 	data16 nopw %cs:0x0(%rax,%rax,1)
  402988:	00 00 00 00 
  40298c:	0f 1f 40 00          	nopl   0x0(%rax)

0000000000402990 <frame_dummy>:
  402990:	f3 0f 1e fa          	endbr64 
  402994:	eb 8a                	jmp    402920 <register_tm_clones>

0000000000402996 <thpool_init>:
  402996:	f3 0f 1e fa          	endbr64 
  40299a:	55                   	push   %rbp
  40299b:	48 89 e5             	mov    %rsp,%rbp
  40299e:	48 83 ec 20          	sub    $0x20,%rsp
  4029a2:	89 7d ec             	mov    %edi,-0x14(%rbp)
  4029a5:	c7 05 21 a9 00 00 00 	movl   $0x0,0xa921(%rip)        # 40d2d0 <threads_on_hold>
  4029ac:	00 00 00 
  4029af:	c7 05 13 a9 00 00 01 	movl   $0x1,0xa913(%rip)        # 40d2cc <threads_keepalive>
  4029b6:	00 00 00 
  4029b9:	83 7d ec 00          	cmpl   $0x0,-0x14(%rbp)
  4029bd:	79 07                	jns    4029c6 <thpool_init+0x30>
  4029bf:	c7 45 ec 00 00 00 00 	movl   $0x0,-0x14(%rbp)
  4029c6:	bf b0 00 00 00       	mov    $0xb0,%edi
  4029cb:	e8 70 fd ff ff       	callq  402740 <malloc@plt>
  4029d0:	48 89 45 f8          	mov    %rax,-0x8(%rbp)
  4029d4:	48 83 7d f8 00       	cmpq   $0x0,-0x8(%rbp)
  4029d9:	75 2a                	jne    402a05 <thpool_init+0x6f>
  4029db:	48 8b 05 de a8 00 00 	mov    0xa8de(%rip),%rax        # 40d2c0 <stderr@@GLIBC_2.2.5>
  4029e2:	48 89 c1             	mov    %rax,%rcx
  4029e5:	ba 39 00 00 00       	mov    $0x39,%edx
  4029ea:	be 01 00 00 00       	mov    $0x1,%esi
  4029ef:	48 8d 3d 12 66 00 00 	lea    0x6612(%rip),%rdi        # 409008 <_IO_stdin_used+0x8>
  4029f6:	e8 45 fe ff ff       	callq  402840 <fwrite@plt>
  4029fb:	b8 00 00 00 00       	mov    $0x0,%eax
  402a00:	e9 42 01 00 00       	jmpq   402b47 <thpool_init+0x1b1>
  402a05:	48 8b 45 f8          	mov    -0x8(%rbp),%rax
  402a09:	c7 40 08 00 00 00 00 	movl   $0x0,0x8(%rax)
  402a10:	48 8b 45 f8          	mov    -0x8(%rbp),%rax
  402a14:	c7 40 0c 00 00 00 00 	movl   $0x0,0xc(%rax)
  402a1b:	48 8b 45 f8          	mov    -0x8(%rbp),%rax
  402a1f:	48 83 c0 68          	add    $0x68,%rax
  402a23:	48 89 c7             	mov    %rax,%rdi
  402a26:	e8 24 08 00 00       	callq  40324f <jobqueue_init>
  402a2b:	83 f8 ff             	cmp    $0xffffffff,%eax
  402a2e:	75 36                	jne    402a66 <thpool_init+0xd0>
  402a30:	48 8b 05 89 a8 00 00 	mov    0xa889(%rip),%rax        # 40d2c0 <stderr@@GLIBC_2.2.5>
  402a37:	48 89 c1             	mov    %rax,%rcx
  402a3a:	ba 37 00 00 00       	mov    $0x37,%edx
  402a3f:	be 01 00 00 00       	mov    $0x1,%esi
  402a44:	48 8d 3d fd 65 00 00 	lea    0x65fd(%rip),%rdi        # 409048 <_IO_stdin_used+0x48>
  402a4b:	e8 f0 fd ff ff       	callq  402840 <fwrite@plt>
  402a50:	48 8b 45 f8          	mov    -0x8(%rbp),%rax
  402a54:	48 89 c7             	mov    %rax,%rdi
  402a57:	e8 14 fa ff ff       	callq  402470 <free@plt>
  402a5c:	b8 00 00 00 00       	mov    $0x0,%eax
  402a61:	e9 e1 00 00 00       	jmpq   402b47 <thpool_init+0x1b1>
  402a66:	8b 45 ec             	mov    -0x14(%rbp),%eax
  402a69:	48 98                	cltq   
  402a6b:	48 c1 e0 03          	shl    $0x3,%rax
  402a6f:	48 89 c7             	mov    %rax,%rdi
  402a72:	e8 c9 fc ff ff       	callq  402740 <malloc@plt>
  402a77:	48 89 c2             	mov    %rax,%rdx
  402a7a:	48 8b 45 f8          	mov    -0x8(%rbp),%rax
  402a7e:	48 89 10             	mov    %rdx,(%rax)
  402a81:	48 8b 45 f8          	mov    -0x8(%rbp),%rax
  402a85:	48 8b 00             	mov    (%rax),%rax
  402a88:	48 85 c0             	test   %rax,%rax
  402a8b:	75 43                	jne    402ad0 <thpool_init+0x13a>
  402a8d:	48 8b 05 2c a8 00 00 	mov    0xa82c(%rip),%rax        # 40d2c0 <stderr@@GLIBC_2.2.5>
  402a94:	48 89 c1             	mov    %rax,%rcx
  402a97:	ba 35 00 00 00       	mov    $0x35,%edx
  402a9c:	be 01 00 00 00       	mov    $0x1,%esi
  402aa1:	48 8d 3d d8 65 00 00 	lea    0x65d8(%rip),%rdi        # 409080 <_IO_stdin_used+0x80>
  402aa8:	e8 93 fd ff ff       	callq  402840 <fwrite@plt>
  402aad:	48 8b 45 f8          	mov    -0x8(%rbp),%rax
  402ab1:	48 83 c0 68          	add    $0x68,%rax
  402ab5:	48 89 c7             	mov    %rax,%rdi
  402ab8:	e8 bf 09 00 00       	callq  40347c <jobqueue_destroy>
  402abd:	48 8b 45 f8          	mov    -0x8(%rbp),%rax
  402ac1:	48 89 c7             	mov    %rax,%rdi
  402ac4:	e8 a7 f9 ff ff       	callq  402470 <free@plt>
  402ac9:	b8 00 00 00 00       	mov    $0x0,%eax
  402ace:	eb 77                	jmp    402b47 <thpool_init+0x1b1>
  402ad0:	48 8b 45 f8          	mov    -0x8(%rbp),%rax
  402ad4:	48 83 c0 10          	add    $0x10,%rax
  402ad8:	be 00 00 00 00       	mov    $0x0,%esi
  402add:	48 89 c7             	mov    %rax,%rdi
  402ae0:	e8 7b fd ff ff       	callq  402860 <pthread_mutex_init@plt>
  402ae5:	48 8b 45 f8          	mov    -0x8(%rbp),%rax
  402ae9:	48 83 c0 38          	add    $0x38,%rax
  402aed:	be 00 00 00 00       	mov    $0x0,%esi
  402af2:	48 89 c7             	mov    %rax,%rdi
  402af5:	e8 26 fc ff ff       	callq  402720 <pthread_cond_init@plt>
  402afa:	c7 45 f4 00 00 00 00 	movl   $0x0,-0xc(%rbp)
  402b01:	eb 2b                	jmp    402b2e <thpool_init+0x198>
  402b03:	48 8b 45 f8          	mov    -0x8(%rbp),%rax
  402b07:	48 8b 00             	mov    (%rax),%rax
  402b0a:	8b 55 f4             	mov    -0xc(%rbp),%edx
  402b0d:	48 63 d2             	movslq %edx,%rdx
  402b10:	48 c1 e2 03          	shl    $0x3,%rdx
  402b14:	48 8d 0c 10          	lea    (%rax,%rdx,1),%rcx
  402b18:	8b 55 f4             	mov    -0xc(%rbp),%edx
  402b1b:	48 8b 45 f8          	mov    -0x8(%rbp),%rax
  402b1f:	48 89 ce             	mov    %rcx,%rsi
  402b22:	48 89 c7             	mov    %rax,%rdi
  402b25:	e8 eb 02 00 00       	callq  402e15 <thread_init>
  402b2a:	83 45 f4 01          	addl   $0x1,-0xc(%rbp)
  402b2e:	8b 45 f4             	mov    -0xc(%rbp),%eax
  402b31:	3b 45 ec             	cmp    -0x14(%rbp),%eax
  402b34:	7c cd                	jl     402b03 <thpool_init+0x16d>
  402b36:	90                   	nop
  402b37:	48 8b 45 f8          	mov    -0x8(%rbp),%rax
  402b3b:	8b 40 08             	mov    0x8(%rax),%eax
  402b3e:	39 45 ec             	cmp    %eax,-0x14(%rbp)
  402b41:	75 f4                	jne    402b37 <thpool_init+0x1a1>
  402b43:	48 8b 45 f8          	mov    -0x8(%rbp),%rax
  402b47:	c9                   	leaveq 
  402b48:	c3                   	retq   

0000000000402b49 <thpool_add_work>:
  402b49:	f3 0f 1e fa          	endbr64 
  402b4d:	55                   	push   %rbp
  402b4e:	48 89 e5             	mov    %rsp,%rbp
  402b51:	48 83 ec 30          	sub    $0x30,%rsp
  402b55:	48 89 7d e8          	mov    %rdi,-0x18(%rbp)
  402b59:	48 89 75 e0          	mov    %rsi,-0x20(%rbp)
  402b5d:	48 89 55 d8          	mov    %rdx,-0x28(%rbp)
  402b61:	bf 18 00 00 00       	mov    $0x18,%edi
  402b66:	e8 d5 fb ff ff       	callq  402740 <malloc@plt>
  402b6b:	48 89 45 f8          	mov    %rax,-0x8(%rbp)
  402b6f:	48 83 7d f8 00       	cmpq   $0x0,-0x8(%rbp)
  402b74:	75 27                	jne    402b9d <thpool_add_work+0x54>
  402b76:	48 8b 05 43 a7 00 00 	mov    0xa743(%rip),%rax        # 40d2c0 <stderr@@GLIBC_2.2.5>
  402b7d:	48 89 c1             	mov    %rax,%rcx
  402b80:	ba 39 00 00 00       	mov    $0x39,%edx
  402b85:	be 01 00 00 00       	mov    $0x1,%esi
  402b8a:	48 8d 3d 27 65 00 00 	lea    0x6527(%rip),%rdi        # 4090b8 <_IO_stdin_used+0xb8>
  402b91:	e8 aa fc ff ff       	callq  402840 <fwrite@plt>
  402b96:	b8 ff ff ff ff       	mov    $0xffffffff,%eax
  402b9b:	eb 34                	jmp    402bd1 <thpool_add_work+0x88>
  402b9d:	48 8b 45 f8          	mov    -0x8(%rbp),%rax
  402ba1:	48 8b 55 e0          	mov    -0x20(%rbp),%rdx
  402ba5:	48 89 50 08          	mov    %rdx,0x8(%rax)
  402ba9:	48 8b 45 f8          	mov    -0x8(%rbp),%rax
  402bad:	48 8b 55 d8          	mov    -0x28(%rbp),%rdx
  402bb1:	48 89 50 10          	mov    %rdx,0x10(%rax)
  402bb5:	48 8b 45 e8          	mov    -0x18(%rbp),%rax
  402bb9:	48 8d 50 68          	lea    0x68(%rax),%rdx
  402bbd:	48 8b 45 f8          	mov    -0x8(%rbp),%rax
  402bc1:	48 89 c6             	mov    %rax,%rsi
  402bc4:	48 89 d7             	mov    %rdx,%rdi
  402bc7:	e8 73 07 00 00       	callq  40333f <jobqueue_push>
  402bcc:	b8 00 00 00 00       	mov    $0x0,%eax
  402bd1:	c9                   	leaveq 
  402bd2:	c3                   	retq   

0000000000402bd3 <thpool_wait>:
  402bd3:	f3 0f 1e fa          	endbr64 
  402bd7:	55                   	push   %rbp
  402bd8:	48 89 e5             	mov    %rsp,%rbp
  402bdb:	48 83 ec 10          	sub    $0x10,%rsp
  402bdf:	48 89 7d f8          	mov    %rdi,-0x8(%rbp)
  402be3:	48 8b 45 f8          	mov    -0x8(%rbp),%rax
  402be7:	48 83 c0 10          	add    $0x10,%rax
  402beb:	48 89 c7             	mov    %rax,%rdi
  402bee:	e8 8d fc ff ff       	callq  402880 <pthread_mutex_lock@plt>
  402bf3:	eb 1b                	jmp    402c10 <thpool_wait+0x3d>
  402bf5:	48 8b 45 f8          	mov    -0x8(%rbp),%rax
  402bf9:	48 8d 50 10          	lea    0x10(%rax),%rdx
  402bfd:	48 8b 45 f8          	mov    -0x8(%rbp),%rax
  402c01:	48 83 c0 38          	add    $0x38,%rax
  402c05:	48 89 d6             	mov    %rdx,%rsi
  402c08:	48 89 c7             	mov    %rax,%rdi
  402c0b:	e8 40 f9 ff ff       	callq  402550 <pthread_cond_wait@plt>
  402c10:	48 8b 45 f8          	mov    -0x8(%rbp),%rax
  402c14:	8b 80 a8 00 00 00    	mov    0xa8(%rax),%eax
  402c1a:	85 c0                	test   %eax,%eax
  402c1c:	75 d7                	jne    402bf5 <thpool_wait+0x22>
  402c1e:	48 8b 45 f8          	mov    -0x8(%rbp),%rax
  402c22:	8b 40 0c             	mov    0xc(%rax),%eax
  402c25:	85 c0                	test   %eax,%eax
  402c27:	75 cc                	jne    402bf5 <thpool_wait+0x22>
  402c29:	48 8b 45 f8          	mov    -0x8(%rbp),%rax
  402c2d:	48 83 c0 10          	add    $0x10,%rax
  402c31:	48 89 c7             	mov    %rax,%rdi
  402c34:	e8 f7 fa ff ff       	callq  402730 <pthread_mutex_unlock@plt>
  402c39:	90                   	nop
  402c3a:	c9                   	leaveq 
  402c3b:	c3                   	retq   

0000000000402c3c <thpool_destroy>:
  402c3c:	f3 0f 1e fa          	endbr64 
  402c40:	55                   	push   %rbp
  402c41:	48 89 e5             	mov    %rsp,%rbp
  402c44:	48 83 ec 40          	sub    $0x40,%rsp
  402c48:	48 89 7d c8          	mov    %rdi,-0x38(%rbp)
  402c4c:	64 48 8b 04 25 28 00 	mov    %fs:0x28,%rax
  402c53:	00 00 
  402c55:	48 89 45 f8          	mov    %rax,-0x8(%rbp)
  402c59:	31 c0                	xor    %eax,%eax
  402c5b:	48 83 7d c8 00       	cmpq   $0x0,-0x38(%rbp)
  402c60:	0f 84 15 01 00 00    	je     402d7b <thpool_destroy+0x13f>
  402c66:	48 8b 45 c8          	mov    -0x38(%rbp),%rax
  402c6a:	8b 40 08             	mov    0x8(%rax),%eax
  402c6d:	89 45 d0             	mov    %eax,-0x30(%rbp)
  402c70:	c7 05 52 a6 00 00 00 	movl   $0x0,0xa652(%rip)        # 40d2cc <threads_keepalive>
  402c77:	00 00 00 
  402c7a:	f2 0f 10 05 26 65 00 	movsd  0x6526(%rip),%xmm0        # 4091a8 <_IO_stdin_used+0x1a8>
  402c81:	00 
  402c82:	f2 0f 11 45 f0       	movsd  %xmm0,-0x10(%rbp)
  402c87:	66 0f ef c0          	pxor   %xmm0,%xmm0
  402c8b:	f2 0f 11 45 e8       	movsd  %xmm0,-0x18(%rbp)
  402c90:	48 8d 45 d8          	lea    -0x28(%rbp),%rax
  402c94:	48 89 c7             	mov    %rax,%rdi
  402c97:	e8 64 fa ff ff       	callq  402700 <time@plt>
  402c9c:	eb 3b                	jmp    402cd9 <thpool_destroy+0x9d>
  402c9e:	48 8b 45 c8          	mov    -0x38(%rbp),%rax
  402ca2:	48 8b 80 a0 00 00 00 	mov    0xa0(%rax),%rax
  402ca9:	48 89 c7             	mov    %rax,%rdi
  402cac:	e8 e0 08 00 00       	callq  403591 <bsem_post_all>
  402cb1:	48 8d 45 e0          	lea    -0x20(%rbp),%rax
  402cb5:	48 89 c7             	mov    %rax,%rdi
  402cb8:	e8 43 fa ff ff       	callq  402700 <time@plt>
  402cbd:	48 8b 55 d8          	mov    -0x28(%rbp),%rdx
  402cc1:	48 8b 45 e0          	mov    -0x20(%rbp),%rax
  402cc5:	48 89 d6             	mov    %rdx,%rsi
  402cc8:	48 89 c7             	mov    %rax,%rdi
  402ccb:	e8 10 f9 ff ff       	callq  4025e0 <difftime@plt>
  402cd0:	66 48 0f 7e c0       	movq   %xmm0,%rax
  402cd5:	48 89 45 e8          	mov    %rax,-0x18(%rbp)
  402cd9:	f2 0f 10 45 f0       	movsd  -0x10(%rbp),%xmm0
  402cde:	66 0f 2f 45 e8       	comisd -0x18(%rbp),%xmm0
  402ce3:	76 0b                	jbe    402cf0 <thpool_destroy+0xb4>
  402ce5:	48 8b 45 c8          	mov    -0x38(%rbp),%rax
  402ce9:	8b 40 08             	mov    0x8(%rax),%eax
  402cec:	85 c0                	test   %eax,%eax
  402cee:	75 ae                	jne    402c9e <thpool_destroy+0x62>
  402cf0:	eb 1d                	jmp    402d0f <thpool_destroy+0xd3>
  402cf2:	48 8b 45 c8          	mov    -0x38(%rbp),%rax
  402cf6:	48 8b 80 a0 00 00 00 	mov    0xa0(%rax),%rax
  402cfd:	48 89 c7             	mov    %rax,%rdi
  402d00:	e8 8c 08 00 00       	callq  403591 <bsem_post_all>
  402d05:	bf 01 00 00 00       	mov    $0x1,%edi
  402d0a:	e8 41 fb ff ff       	callq  402850 <sleep@plt>
  402d0f:	48 8b 45 c8          	mov    -0x38(%rbp),%rax
  402d13:	8b 40 08             	mov    0x8(%rax),%eax
  402d16:	85 c0                	test   %eax,%eax
  402d18:	75 d8                	jne    402cf2 <thpool_destroy+0xb6>
  402d1a:	48 8b 45 c8          	mov    -0x38(%rbp),%rax
  402d1e:	48 83 c0 68          	add    $0x68,%rax
  402d22:	48 89 c7             	mov    %rax,%rdi
  402d25:	e8 52 07 00 00       	callq  40347c <jobqueue_destroy>
  402d2a:	c7 45 d4 00 00 00 00 	movl   $0x0,-0x2c(%rbp)
  402d31:	eb 23                	jmp    402d56 <thpool_destroy+0x11a>
  402d33:	48 8b 45 c8          	mov    -0x38(%rbp),%rax
  402d37:	48 8b 00             	mov    (%rax),%rax
  402d3a:	8b 55 d4             	mov    -0x2c(%rbp),%edx
  402d3d:	48 63 d2             	movslq %edx,%rdx
  402d40:	48 c1 e2 03          	shl    $0x3,%rdx
  402d44:	48 01 d0             	add    %rdx,%rax
  402d47:	48 8b 00             	mov    (%rax),%rax
  402d4a:	48 89 c7             	mov    %rax,%rdi
  402d4d:	e8 de 04 00 00       	callq  403230 <thread_destroy>
  402d52:	83 45 d4 01          	addl   $0x1,-0x2c(%rbp)
  402d56:	8b 45 d0             	mov    -0x30(%rbp),%eax
  402d59:	39 45 d4             	cmp    %eax,-0x2c(%rbp)
  402d5c:	7c d5                	jl     402d33 <thpool_destroy+0xf7>
  402d5e:	48 8b 45 c8          	mov    -0x38(%rbp),%rax
  402d62:	48 8b 00             	mov    (%rax),%rax
  402d65:	48 89 c7             	mov    %rax,%rdi
  402d68:	e8 03 f7 ff ff       	callq  402470 <free@plt>
  402d6d:	48 8b 45 c8          	mov    -0x38(%rbp),%rax
  402d71:	48 89 c7             	mov    %rax,%rdi
  402d74:	e8 f7 f6 ff ff       	callq  402470 <free@plt>
  402d79:	eb 01                	jmp    402d7c <thpool_destroy+0x140>
  402d7b:	90                   	nop
  402d7c:	48 8b 45 f8          	mov    -0x8(%rbp),%rax
  402d80:	64 48 33 04 25 28 00 	xor    %fs:0x28,%rax
  402d87:	00 00 
  402d89:	74 05                	je     402d90 <thpool_destroy+0x154>
  402d8b:	e8 f0 f7 ff ff       	callq  402580 <__stack_chk_fail@plt>
  402d90:	c9                   	leaveq 
  402d91:	c3                   	retq   

0000000000402d92 <thpool_pause>:
  402d92:	f3 0f 1e fa          	endbr64 
  402d96:	55                   	push   %rbp
  402d97:	48 89 e5             	mov    %rsp,%rbp
  402d9a:	48 83 ec 20          	sub    $0x20,%rsp
  402d9e:	48 89 7d e8          	mov    %rdi,-0x18(%rbp)
  402da2:	c7 45 fc 00 00 00 00 	movl   $0x0,-0x4(%rbp)
  402da9:	eb 2c                	jmp    402dd7 <thpool_pause+0x45>
  402dab:	48 8b 45 e8          	mov    -0x18(%rbp),%rax
  402daf:	48 8b 00             	mov    (%rax),%rax
  402db2:	8b 55 fc             	mov    -0x4(%rbp),%edx
  402db5:	48 63 d2             	movslq %edx,%rdx
  402db8:	48 c1 e2 03          	shl    $0x3,%rdx
  402dbc:	48 01 d0             	add    %rdx,%rax
  402dbf:	48 8b 00             	mov    (%rax),%rax
  402dc2:	48 8b 40 08          	mov    0x8(%rax),%rax
  402dc6:	be 0a 00 00 00       	mov    $0xa,%esi
  402dcb:	48 89 c7             	mov    %rax,%rdi
  402dce:	e8 5d f7 ff ff       	callq  402530 <pthread_kill@plt>
  402dd3:	83 45 fc 01          	addl   $0x1,-0x4(%rbp)
  402dd7:	48 8b 45 e8          	mov    -0x18(%rbp),%rax
  402ddb:	8b 40 08             	mov    0x8(%rax),%eax
  402dde:	39 45 fc             	cmp    %eax,-0x4(%rbp)
  402de1:	7c c8                	jl     402dab <thpool_pause+0x19>
  402de3:	90                   	nop
  402de4:	90                   	nop
  402de5:	c9                   	leaveq 
  402de6:	c3                   	retq   

0000000000402de7 <thpool_resume>:
  402de7:	f3 0f 1e fa          	endbr64 
  402deb:	55                   	push   %rbp
  402dec:	48 89 e5             	mov    %rsp,%rbp
  402def:	48 89 7d f8          	mov    %rdi,-0x8(%rbp)
  402df3:	c7 05 d3 a4 00 00 00 	movl   $0x0,0xa4d3(%rip)        # 40d2d0 <threads_on_hold>
  402dfa:	00 00 00 
  402dfd:	90                   	nop
  402dfe:	5d                   	pop    %rbp
  402dff:	c3                   	retq   

0000000000402e00 <thpool_num_threads_working>:
  402e00:	f3 0f 1e fa          	endbr64 
  402e04:	55                   	push   %rbp
  402e05:	48 89 e5             	mov    %rsp,%rbp
  402e08:	48 89 7d f8          	mov    %rdi,-0x8(%rbp)
  402e0c:	48 8b 45 f8          	mov    -0x8(%rbp),%rax
  402e10:	8b 40 0c             	mov    0xc(%rax),%eax
  402e13:	5d                   	pop    %rbp
  402e14:	c3                   	retq   

0000000000402e15 <thread_init>:
  402e15:	f3 0f 1e fa          	endbr64 
  402e19:	55                   	push   %rbp
  402e1a:	48 89 e5             	mov    %rsp,%rbp
  402e1d:	48 83 ec 20          	sub    $0x20,%rsp
  402e21:	48 89 7d f8          	mov    %rdi,-0x8(%rbp)
  402e25:	48 89 75 f0          	mov    %rsi,-0x10(%rbp)
  402e29:	89 55 ec             	mov    %edx,-0x14(%rbp)
  402e2c:	bf 18 00 00 00       	mov    $0x18,%edi
  402e31:	e8 0a f9 ff ff       	callq  402740 <malloc@plt>
  402e36:	48 89 c2             	mov    %rax,%rdx
  402e39:	48 8b 45 f0          	mov    -0x10(%rbp),%rax
  402e3d:	48 89 10             	mov    %rdx,(%rax)
  402e40:	48 83 7d f0 00       	cmpq   $0x0,-0x10(%rbp)
  402e45:	75 27                	jne    402e6e <thread_init+0x59>
  402e47:	48 8b 05 72 a4 00 00 	mov    0xa472(%rip),%rax        # 40d2c0 <stderr@@GLIBC_2.2.5>
  402e4e:	48 89 c1             	mov    %rax,%rcx
  402e51:	ba 34 00 00 00       	mov    $0x34,%edx
  402e56:	be 01 00 00 00       	mov    $0x1,%esi
  402e5b:	48 8d 3d 96 62 00 00 	lea    0x6296(%rip),%rdi        # 4090f8 <_IO_stdin_used+0xf8>
  402e62:	e8 d9 f9 ff ff       	callq  402840 <fwrite@plt>
  402e67:	b8 ff ff ff ff       	mov    $0xffffffff,%eax
  402e6c:	eb 59                	jmp    402ec7 <thread_init+0xb2>
  402e6e:	48 8b 45 f0          	mov    -0x10(%rbp),%rax
  402e72:	48 8b 00             	mov    (%rax),%rax
  402e75:	48 8b 55 f8          	mov    -0x8(%rbp),%rdx
  402e79:	48 89 50 10          	mov    %rdx,0x10(%rax)
  402e7d:	48 8b 45 f0          	mov    -0x10(%rbp),%rax
  402e81:	48 8b 00             	mov    (%rax),%rax
  402e84:	8b 55 ec             	mov    -0x14(%rbp),%edx
  402e87:	89 10                	mov    %edx,(%rax)
  402e89:	48 8b 45 f0          	mov    -0x10(%rbp),%rax
  402e8d:	48 8b 00             	mov    (%rax),%rax
  402e90:	48 8b 55 f0          	mov    -0x10(%rbp),%rdx
  402e94:	48 8b 12             	mov    (%rdx),%rdx
  402e97:	48 8d 7a 08          	lea    0x8(%rdx),%rdi
  402e9b:	48 89 c1             	mov    %rax,%rcx
  402e9e:	48 8d 15 57 00 00 00 	lea    0x57(%rip),%rdx        # 402efc <thread_do>
  402ea5:	be 00 00 00 00       	mov    $0x0,%esi
  402eaa:	e8 d1 f5 ff ff       	callq  402480 <pthread_create@plt>
  402eaf:	48 8b 45 f0          	mov    -0x10(%rbp),%rax
  402eb3:	48 8b 00             	mov    (%rax),%rax
  402eb6:	48 8b 40 08          	mov    0x8(%rax),%rax
  402eba:	48 89 c7             	mov    %rax,%rdi
  402ebd:	e8 ce f5 ff ff       	callq  402490 <pthread_detach@plt>
  402ec2:	b8 00 00 00 00       	mov    $0x0,%eax
  402ec7:	c9                   	leaveq 
  402ec8:	c3                   	retq   

0000000000402ec9 <thread_hold>:
  402ec9:	f3 0f 1e fa          	endbr64 
  402ecd:	55                   	push   %rbp
  402ece:	48 89 e5             	mov    %rsp,%rbp
  402ed1:	48 83 ec 10          	sub    $0x10,%rsp
  402ed5:	89 7d fc             	mov    %edi,-0x4(%rbp)
  402ed8:	c7 05 ee a3 00 00 01 	movl   $0x1,0xa3ee(%rip)        # 40d2d0 <threads_on_hold>
  402edf:	00 00 00 
  402ee2:	eb 0a                	jmp    402eee <thread_hold+0x25>
  402ee4:	bf 01 00 00 00       	mov    $0x1,%edi
  402ee9:	e8 62 f9 ff ff       	callq  402850 <sleep@plt>
  402eee:	8b 05 dc a3 00 00    	mov    0xa3dc(%rip),%eax        # 40d2d0 <threads_on_hold>
  402ef4:	85 c0                	test   %eax,%eax
  402ef6:	75 ec                	jne    402ee4 <thread_hold+0x1b>
  402ef8:	90                   	nop
  402ef9:	90                   	nop
  402efa:	c9                   	leaveq 
  402efb:	c3                   	retq   

0000000000402efc <thread_do>:
  402efc:	f3 0f 1e fa          	endbr64 
  402f00:	55                   	push   %rbp
  402f01:	48 89 e5             	mov    %rsp,%rbp
  402f04:	48 81 ec 60 01 00 00 	sub    $0x160,%rsp
  402f0b:	48 89 bd a8 fe ff ff 	mov    %rdi,-0x158(%rbp)
  402f12:	64 48 8b 04 25 28 00 	mov    %fs:0x28,%rax
  402f19:	00 00 
  402f1b:	48 89 45 f8          	mov    %rax,-0x8(%rbp)
  402f1f:	31 c0                	xor    %eax,%eax
  402f21:	48 c7 85 70 ff ff ff 	movq   $0x0,-0x90(%rbp)
  402f28:	00 00 00 00 
  402f2c:	48 c7 85 78 ff ff ff 	movq   $0x0,-0x88(%rbp)
  402f33:	00 00 00 00 
  402f37:	48 c7 45 80 00 00 00 	movq   $0x0,-0x80(%rbp)
  402f3e:	00 
  402f3f:	48 c7 45 88 00 00 00 	movq   $0x0,-0x78(%rbp)
  402f46:	00 
  402f47:	48 c7 45 90 00 00 00 	movq   $0x0,-0x70(%rbp)
  402f4e:	00 
  402f4f:	48 c7 45 98 00 00 00 	movq   $0x0,-0x68(%rbp)
  402f56:	00 
  402f57:	48 c7 45 a0 00 00 00 	movq   $0x0,-0x60(%rbp)
  402f5e:	00 
  402f5f:	48 c7 45 a8 00 00 00 	movq   $0x0,-0x58(%rbp)
  402f66:	00 
  402f67:	48 c7 45 b0 00 00 00 	movq   $0x0,-0x50(%rbp)
  402f6e:	00 
  402f6f:	48 c7 45 b8 00 00 00 	movq   $0x0,-0x48(%rbp)
  402f76:	00 
  402f77:	48 c7 45 c0 00 00 00 	movq   $0x0,-0x40(%rbp)
  402f7e:	00 
  402f7f:	48 c7 45 c8 00 00 00 	movq   $0x0,-0x38(%rbp)
  402f86:	00 
  402f87:	48 c7 45 d0 00 00 00 	movq   $0x0,-0x30(%rbp)
  402f8e:	00 
  402f8f:	48 c7 45 d8 00 00 00 	movq   $0x0,-0x28(%rbp)
  402f96:	00 
  402f97:	48 c7 45 e0 00 00 00 	movq   $0x0,-0x20(%rbp)
  402f9e:	00 
  402f9f:	48 c7 45 e8 00 00 00 	movq   $0x0,-0x18(%rbp)
  402fa6:	00 
  402fa7:	48 8b 85 a8 fe ff ff 	mov    -0x158(%rbp),%rax
  402fae:	8b 10                	mov    (%rax),%edx
  402fb0:	48 8d 85 70 ff ff ff 	lea    -0x90(%rbp),%rax
  402fb7:	48 8d 35 6f 61 00 00 	lea    0x616f(%rip),%rsi        # 40912d <_IO_stdin_used+0x12d>
  402fbe:	48 89 c7             	mov    %rax,%rdi
  402fc1:	b8 00 00 00 00       	mov    $0x0,%eax
  402fc6:	e8 45 f8 ff ff       	callq  402810 <sprintf@plt>
  402fcb:	48 8d 85 70 ff ff ff 	lea    -0x90(%rbp),%rax
  402fd2:	48 89 c6             	mov    %rax,%rsi
  402fd5:	bf 0f 00 00 00       	mov    $0xf,%edi
  402fda:	b8 00 00 00 00       	mov    $0x0,%eax
  402fdf:	e8 fc f6 ff ff       	callq  4026e0 <prctl@plt>
  402fe4:	48 8b 85 a8 fe ff ff 	mov    -0x158(%rbp),%rax
  402feb:	48 8b 40 10          	mov    0x10(%rax),%rax
  402fef:	48 89 85 b0 fe ff ff 	mov    %rax,-0x150(%rbp)
  402ff6:	48 8d 85 d0 fe ff ff 	lea    -0x130(%rbp),%rax
  402ffd:	48 83 c0 08          	add    $0x8,%rax
  403001:	48 89 c7             	mov    %rax,%rdi
  403004:	e8 c7 f6 ff ff       	callq  4026d0 <sigemptyset@plt>
  403009:	c7 85 58 ff ff ff 00 	movl   $0x0,-0xa8(%rbp)
  403010:	00 00 00 
  403013:	48 8d 05 af fe ff ff 	lea    -0x151(%rip),%rax        # 402ec9 <thread_hold>
  40301a:	48 89 85 d0 fe ff ff 	mov    %rax,-0x130(%rbp)
  403021:	48 8d 85 d0 fe ff ff 	lea    -0x130(%rbp),%rax
  403028:	ba 00 00 00 00       	mov    $0x0,%edx
  40302d:	48 89 c6             	mov    %rax,%rsi
  403030:	bf 0a 00 00 00       	mov    $0xa,%edi
  403035:	e8 c6 f4 ff ff       	callq  402500 <sigaction@plt>
  40303a:	83 f8 ff             	cmp    $0xffffffff,%eax
  40303d:	75 20                	jne    40305f <thread_do+0x163>
  40303f:	48 8b 05 7a a2 00 00 	mov    0xa27a(%rip),%rax        # 40d2c0 <stderr@@GLIBC_2.2.5>
  403046:	48 89 c1             	mov    %rax,%rcx
  403049:	ba 22 00 00 00       	mov    $0x22,%edx
  40304e:	be 01 00 00 00       	mov    $0x1,%esi
  403053:	48 8d 3d e6 60 00 00 	lea    0x60e6(%rip),%rdi        # 409140 <_IO_stdin_used+0x140>
  40305a:	e8 e1 f7 ff ff       	callq  402840 <fwrite@plt>
  40305f:	48 8b 85 b0 fe ff ff 	mov    -0x150(%rbp),%rax
  403066:	48 83 c0 10          	add    $0x10,%rax
  40306a:	48 89 c7             	mov    %rax,%rdi
  40306d:	e8 0e f8 ff ff       	callq  402880 <pthread_mutex_lock@plt>
  403072:	48 8b 85 b0 fe ff ff 	mov    -0x150(%rbp),%rax
  403079:	8b 40 08             	mov    0x8(%rax),%eax
  40307c:	8d 50 01             	lea    0x1(%rax),%edx
  40307f:	48 8b 85 b0 fe ff ff 	mov    -0x150(%rbp),%rax
  403086:	89 50 08             	mov    %edx,0x8(%rax)
  403089:	48 8b 85 b0 fe ff ff 	mov    -0x150(%rbp),%rax
  403090:	48 83 c0 10          	add    $0x10,%rax
  403094:	48 89 c7             	mov    %rax,%rdi
  403097:	e8 94 f6 ff ff       	callq  402730 <pthread_mutex_unlock@plt>
  40309c:	e9 29 01 00 00       	jmpq   4031ca <thread_do+0x2ce>
  4030a1:	48 8b 85 b0 fe ff ff 	mov    -0x150(%rbp),%rax
  4030a8:	48 8b 80 a0 00 00 00 	mov    0xa0(%rax),%rax
  4030af:	48 89 c7             	mov    %rax,%rdi
  4030b2:	e8 20 05 00 00       	callq  4035d7 <bsem_wait>
  4030b7:	8b 05 0f a2 00 00    	mov    0xa20f(%rip),%eax        # 40d2cc <threads_keepalive>
  4030bd:	85 c0                	test   %eax,%eax
  4030bf:	0f 84 05 01 00 00    	je     4031ca <thread_do+0x2ce>
  4030c5:	48 8b 85 b0 fe ff ff 	mov    -0x150(%rbp),%rax
  4030cc:	48 83 c0 10          	add    $0x10,%rax
  4030d0:	48 89 c7             	mov    %rax,%rdi
  4030d3:	e8 a8 f7 ff ff       	callq  402880 <pthread_mutex_lock@plt>
  4030d8:	48 8b 85 b0 fe ff ff 	mov    -0x150(%rbp),%rax
  4030df:	8b 40 0c             	mov    0xc(%rax),%eax
  4030e2:	8d 50 01             	lea    0x1(%rax),%edx
  4030e5:	48 8b 85 b0 fe ff ff 	mov    -0x150(%rbp),%rax
  4030ec:	89 50 0c             	mov    %edx,0xc(%rax)
  4030ef:	48 8b 85 b0 fe ff ff 	mov    -0x150(%rbp),%rax
  4030f6:	48 83 c0 10          	add    $0x10,%rax
  4030fa:	48 89 c7             	mov    %rax,%rdi
  4030fd:	e8 2e f6 ff ff       	callq  402730 <pthread_mutex_unlock@plt>
  403102:	48 8b 85 b0 fe ff ff 	mov    -0x150(%rbp),%rax
  403109:	48 83 c0 68          	add    $0x68,%rax
  40310d:	48 89 c7             	mov    %rax,%rdi
  403110:	e8 c5 02 00 00       	callq  4033da <jobqueue_pull>
  403115:	48 89 85 b8 fe ff ff 	mov    %rax,-0x148(%rbp)
  40311c:	48 83 bd b8 fe ff ff 	cmpq   $0x0,-0x148(%rbp)
  403123:	00 
  403124:	74 46                	je     40316c <thread_do+0x270>
  403126:	48 8b 85 b8 fe ff ff 	mov    -0x148(%rbp),%rax
  40312d:	48 8b 40 08          	mov    0x8(%rax),%rax
  403131:	48 89 85 c0 fe ff ff 	mov    %rax,-0x140(%rbp)
  403138:	48 8b 85 b8 fe ff ff 	mov    -0x148(%rbp),%rax
  40313f:	48 8b 40 10          	mov    0x10(%rax),%rax
  403143:	48 89 85 c8 fe ff ff 	mov    %rax,-0x138(%rbp)
  40314a:	48 8b 85 c8 fe ff ff 	mov    -0x138(%rbp),%rax
  403151:	48 8b 95 c0 fe ff ff 	mov    -0x140(%rbp),%rdx
  403158:	48 89 c7             	mov    %rax,%rdi
  40315b:	ff d2                	callq  *%rdx
  40315d:	48 8b 85 b8 fe ff ff 	mov    -0x148(%rbp),%rax
  403164:	48 89 c7             	mov    %rax,%rdi
  403167:	e8 04 f3 ff ff       	callq  402470 <free@plt>
  40316c:	48 8b 85 b0 fe ff ff 	mov    -0x150(%rbp),%rax
  403173:	48 83 c0 10          	add    $0x10,%rax
  403177:	48 89 c7             	mov    %rax,%rdi
  40317a:	e8 01 f7 ff ff       	callq  402880 <pthread_mutex_lock@plt>
  40317f:	48 8b 85 b0 fe ff ff 	mov    -0x150(%rbp),%rax
  403186:	8b 40 0c             	mov    0xc(%rax),%eax
  403189:	8d 50 ff             	lea    -0x1(%rax),%edx
  40318c:	48 8b 85 b0 fe ff ff 	mov    -0x150(%rbp),%rax
  403193:	89 50 0c             	mov    %edx,0xc(%rax)
  403196:	48 8b 85 b0 fe ff ff 	mov    -0x150(%rbp),%rax
  40319d:	8b 40 0c             	mov    0xc(%rax),%eax
  4031a0:	85 c0                	test   %eax,%eax
  4031a2:	75 13                	jne    4031b7 <thread_do+0x2bb>
  4031a4:	48 8b 85 b0 fe ff ff 	mov    -0x150(%rbp),%rax
  4031ab:	48 83 c0 38          	add    $0x38,%rax
  4031af:	48 89 c7             	mov    %rax,%rdi
  4031b2:	e8 c9 f4 ff ff       	callq  402680 <pthread_cond_signal@plt>
  4031b7:	48 8b 85 b0 fe ff ff 	mov    -0x150(%rbp),%rax
  4031be:	48 83 c0 10          	add    $0x10,%rax
  4031c2:	48 89 c7             	mov    %rax,%rdi
  4031c5:	e8 66 f5 ff ff       	callq  402730 <pthread_mutex_unlock@plt>
  4031ca:	8b 05 fc a0 00 00    	mov    0xa0fc(%rip),%eax        # 40d2cc <threads_keepalive>
  4031d0:	85 c0                	test   %eax,%eax
  4031d2:	0f 85 c9 fe ff ff    	jne    4030a1 <thread_do+0x1a5>
  4031d8:	48 8b 85 b0 fe ff ff 	mov    -0x150(%rbp),%rax
  4031df:	48 83 c0 10          	add    $0x10,%rax
  4031e3:	48 89 c7             	mov    %rax,%rdi
  4031e6:	e8 95 f6 ff ff       	callq  402880 <pthread_mutex_lock@plt>
  4031eb:	48 8b 85 b0 fe ff ff 	mov    -0x150(%rbp),%rax
  4031f2:	8b 40 08             	mov    0x8(%rax),%eax
  4031f5:	8d 50 ff             	lea    -0x1(%rax),%edx
  4031f8:	48 8b 85 b0 fe ff ff 	mov    -0x150(%rbp),%rax
  4031ff:	89 50 08             	mov    %edx,0x8(%rax)
  403202:	48 8b 85 b0 fe ff ff 	mov    -0x150(%rbp),%rax
  403209:	48 83 c0 10          	add    $0x10,%rax
  40320d:	48 89 c7             	mov    %rax,%rdi
  403210:	e8 1b f5 ff ff       	callq  402730 <pthread_mutex_unlock@plt>
  403215:	b8 00 00 00 00       	mov    $0x0,%eax
  40321a:	48 8b 4d f8          	mov    -0x8(%rbp),%rcx
  40321e:	64 48 33 0c 25 28 00 	xor    %fs:0x28,%rcx
  403225:	00 00 
  403227:	74 05                	je     40322e <thread_do+0x332>
  403229:	e8 52 f3 ff ff       	callq  402580 <__stack_chk_fail@plt>
  40322e:	c9                   	leaveq 
  40322f:	c3                   	retq   

0000000000403230 <thread_destroy>:
  403230:	f3 0f 1e fa          	endbr64 
  403234:	55                   	push   %rbp
  403235:	48 89 e5             	mov    %rsp,%rbp
  403238:	48 83 ec 10          	sub    $0x10,%rsp
  40323c:	48 89 7d f8          	mov    %rdi,-0x8(%rbp)
  403240:	48 8b 45 f8          	mov    -0x8(%rbp),%rax
  403244:	48 89 c7             	mov    %rax,%rdi
  403247:	e8 24 f2 ff ff       	callq  402470 <free@plt>
  40324c:	90                   	nop
  40324d:	c9                   	leaveq 
  40324e:	c3                   	retq   

000000000040324f <jobqueue_init>:
  40324f:	f3 0f 1e fa          	endbr64 
  403253:	55                   	push   %rbp
  403254:	48 89 e5             	mov    %rsp,%rbp
  403257:	48 83 ec 10          	sub    $0x10,%rsp
  40325b:	48 89 7d f8          	mov    %rdi,-0x8(%rbp)
  40325f:	48 8b 45 f8          	mov    -0x8(%rbp),%rax
  403263:	c7 40 40 00 00 00 00 	movl   $0x0,0x40(%rax)
  40326a:	48 8b 45 f8          	mov    -0x8(%rbp),%rax
  40326e:	48 c7 40 28 00 00 00 	movq   $0x0,0x28(%rax)
  403275:	00 
  403276:	48 8b 45 f8          	mov    -0x8(%rbp),%rax
  40327a:	48 c7 40 30 00 00 00 	movq   $0x0,0x30(%rax)
  403281:	00 
  403282:	bf 60 00 00 00       	mov    $0x60,%edi
  403287:	e8 b4 f4 ff ff       	callq  402740 <malloc@plt>
  40328c:	48 89 c2             	mov    %rax,%rdx
  40328f:	48 8b 45 f8          	mov    -0x8(%rbp),%rax
  403293:	48 89 50 38          	mov    %rdx,0x38(%rax)
  403297:	48 8b 45 f8          	mov    -0x8(%rbp),%rax
  40329b:	48 8b 40 38          	mov    0x38(%rax),%rax
  40329f:	48 85 c0             	test   %rax,%rax
  4032a2:	75 07                	jne    4032ab <jobqueue_init+0x5c>
  4032a4:	b8 ff ff ff ff       	mov    $0xffffffff,%eax
  4032a9:	eb 2b                	jmp    4032d6 <jobqueue_init+0x87>
  4032ab:	48 8b 45 f8          	mov    -0x8(%rbp),%rax
  4032af:	be 00 00 00 00       	mov    $0x0,%esi
  4032b4:	48 89 c7             	mov    %rax,%rdi
  4032b7:	e8 a4 f5 ff ff       	callq  402860 <pthread_mutex_init@plt>
  4032bc:	48 8b 45 f8          	mov    -0x8(%rbp),%rax
  4032c0:	48 8b 40 38          	mov    0x38(%rax),%rax
  4032c4:	be 00 00 00 00       	mov    $0x0,%esi
  4032c9:	48 89 c7             	mov    %rax,%rdi
  4032cc:	e8 da 01 00 00       	callq  4034ab <bsem_init>
  4032d1:	b8 00 00 00 00       	mov    $0x0,%eax
  4032d6:	c9                   	leaveq 
  4032d7:	c3                   	retq   

00000000004032d8 <jobqueue_clear>:
  4032d8:	f3 0f 1e fa          	endbr64 
  4032dc:	55                   	push   %rbp
  4032dd:	48 89 e5             	mov    %rsp,%rbp
  4032e0:	48 83 ec 10          	sub    $0x10,%rsp
  4032e4:	48 89 7d f8          	mov    %rdi,-0x8(%rbp)
  4032e8:	eb 14                	jmp    4032fe <jobqueue_clear+0x26>
  4032ea:	48 8b 45 f8          	mov    -0x8(%rbp),%rax
  4032ee:	48 89 c7             	mov    %rax,%rdi
  4032f1:	e8 e4 00 00 00       	callq  4033da <jobqueue_pull>
  4032f6:	48 89 c7             	mov    %rax,%rdi
  4032f9:	e8 72 f1 ff ff       	callq  402470 <free@plt>
  4032fe:	48 8b 45 f8          	mov    -0x8(%rbp),%rax
  403302:	8b 40 40             	mov    0x40(%rax),%eax
  403305:	85 c0                	test   %eax,%eax
  403307:	75 e1                	jne    4032ea <jobqueue_clear+0x12>
  403309:	48 8b 45 f8          	mov    -0x8(%rbp),%rax
  40330d:	48 c7 40 28 00 00 00 	movq   $0x0,0x28(%rax)
  403314:	00 
  403315:	48 8b 45 f8          	mov    -0x8(%rbp),%rax
  403319:	48 c7 40 30 00 00 00 	movq   $0x0,0x30(%rax)
  403320:	00 
  403321:	48 8b 45 f8          	mov    -0x8(%rbp),%rax
  403325:	48 8b 40 38          	mov    0x38(%rax),%rax
  403329:	48 89 c7             	mov    %rax,%rdi
  40332c:	e8 f6 01 00 00       	callq  403527 <bsem_reset>
  403331:	48 8b 45 f8          	mov    -0x8(%rbp),%rax
  403335:	c7 40 40 00 00 00 00 	movl   $0x0,0x40(%rax)
  40333c:	90                   	nop
  40333d:	c9                   	leaveq 
  40333e:	c3                   	retq   

000000000040333f <jobqueue_push>:
  40333f:	f3 0f 1e fa          	endbr64 
  403343:	55                   	push   %rbp
  403344:	48 89 e5             	mov    %rsp,%rbp
  403347:	48 83 ec 10          	sub    $0x10,%rsp
  40334b:	48 89 7d f8          	mov    %rdi,-0x8(%rbp)
  40334f:	48 89 75 f0          	mov    %rsi,-0x10(%rbp)
  403353:	48 8b 45 f8          	mov    -0x8(%rbp),%rax
  403357:	48 89 c7             	mov    %rax,%rdi
  40335a:	e8 21 f5 ff ff       	callq  402880 <pthread_mutex_lock@plt>
  40335f:	48 8b 45 f0          	mov    -0x10(%rbp),%rax
  403363:	48 c7 00 00 00 00 00 	movq   $0x0,(%rax)
  40336a:	48 8b 45 f8          	mov    -0x8(%rbp),%rax
  40336e:	8b 40 40             	mov    0x40(%rax),%eax
  403371:	85 c0                	test   %eax,%eax
  403373:	75 1a                	jne    40338f <jobqueue_push+0x50>
  403375:	48 8b 45 f8          	mov    -0x8(%rbp),%rax
  403379:	48 8b 55 f0          	mov    -0x10(%rbp),%rdx
  40337d:	48 89 50 28          	mov    %rdx,0x28(%rax)
  403381:	48 8b 45 f8          	mov    -0x8(%rbp),%rax
  403385:	48 8b 55 f0          	mov    -0x10(%rbp),%rdx
  403389:	48 89 50 30          	mov    %rdx,0x30(%rax)
  40338d:	eb 1b                	jmp    4033aa <jobqueue_push+0x6b>
  40338f:	48 8b 45 f8          	mov    -0x8(%rbp),%rax
  403393:	48 8b 40 30          	mov    0x30(%rax),%rax
  403397:	48 8b 55 f0          	mov    -0x10(%rbp),%rdx
  40339b:	48 89 10             	mov    %rdx,(%rax)
  40339e:	48 8b 45 f8          	mov    -0x8(%rbp),%rax
  4033a2:	48 8b 55 f0          	mov    -0x10(%rbp),%rdx
  4033a6:	48 89 50 30          	mov    %rdx,0x30(%rax)
  4033aa:	48 8b 45 f8          	mov    -0x8(%rbp),%rax
  4033ae:	8b 40 40             	mov    0x40(%rax),%eax
  4033b1:	8d 50 01             	lea    0x1(%rax),%edx
  4033b4:	48 8b 45 f8          	mov    -0x8(%rbp),%rax
  4033b8:	89 50 40             	mov    %edx,0x40(%rax)
  4033bb:	48 8b 45 f8          	mov    -0x8(%rbp),%rax
  4033bf:	48 8b 40 38          	mov    0x38(%rax),%rax
  4033c3:	48 89 c7             	mov    %rax,%rdi
  4033c6:	e8 80 01 00 00       	callq  40354b <bsem_post>
  4033cb:	48 8b 45 f8          	mov    -0x8(%rbp),%rax
  4033cf:	48 89 c7             	mov    %rax,%rdi
  4033d2:	e8 59 f3 ff ff       	callq  402730 <pthread_mutex_unlock@plt>
  4033d7:	90                   	nop
  4033d8:	c9                   	leaveq 
  4033d9:	c3                   	retq   

00000000004033da <jobqueue_pull>:
  4033da:	f3 0f 1e fa          	endbr64 
  4033de:	55                   	push   %rbp
  4033df:	48 89 e5             	mov    %rsp,%rbp
  4033e2:	48 83 ec 20          	sub    $0x20,%rsp
  4033e6:	48 89 7d e8          	mov    %rdi,-0x18(%rbp)
  4033ea:	48 8b 45 e8          	mov    -0x18(%rbp),%rax
  4033ee:	48 89 c7             	mov    %rax,%rdi
  4033f1:	e8 8a f4 ff ff       	callq  402880 <pthread_mutex_lock@plt>
  4033f6:	48 8b 45 e8          	mov    -0x18(%rbp),%rax
  4033fa:	48 8b 40 28          	mov    0x28(%rax),%rax
  4033fe:	48 89 45 f8          	mov    %rax,-0x8(%rbp)
  403402:	48 8b 45 e8          	mov    -0x18(%rbp),%rax
  403406:	8b 40 40             	mov    0x40(%rax),%eax
  403409:	85 c0                	test   %eax,%eax
  40340b:	74 5c                	je     403469 <jobqueue_pull+0x8f>
  40340d:	83 f8 01             	cmp    $0x1,%eax
  403410:	75 25                	jne    403437 <jobqueue_pull+0x5d>
  403412:	48 8b 45 e8          	mov    -0x18(%rbp),%rax
  403416:	48 c7 40 28 00 00 00 	movq   $0x0,0x28(%rax)
  40341d:	00 
  40341e:	48 8b 45 e8          	mov    -0x18(%rbp),%rax
  403422:	48 c7 40 30 00 00 00 	movq   $0x0,0x30(%rax)
  403429:	00 
  40342a:	48 8b 45 e8          	mov    -0x18(%rbp),%rax
  40342e:	c7 40 40 00 00 00 00 	movl   $0x0,0x40(%rax)
  403435:	eb 33                	jmp    40346a <jobqueue_pull+0x90>
  403437:	48 8b 45 f8          	mov    -0x8(%rbp),%rax
  40343b:	48 8b 10             	mov    (%rax),%rdx
  40343e:	48 8b 45 e8          	mov    -0x18(%rbp),%rax
  403442:	48 89 50 28          	mov    %rdx,0x28(%rax)
  403446:	48 8b 45 e8          	mov    -0x18(%rbp),%rax
  40344a:	8b 40 40             	mov    0x40(%rax),%eax
  40344d:	8d 50 ff             	lea    -0x1(%rax),%edx
  403450:	48 8b 45 e8          	mov    -0x18(%rbp),%rax
  403454:	89 50 40             	mov    %edx,0x40(%rax)
  403457:	48 8b 45 e8          	mov    -0x18(%rbp),%rax
  40345b:	48 8b 40 38          	mov    0x38(%rax),%rax
  40345f:	48 89 c7             	mov    %rax,%rdi
  403462:	e8 e4 00 00 00       	callq  40354b <bsem_post>
  403467:	eb 01                	jmp    40346a <jobqueue_pull+0x90>
  403469:	90                   	nop
  40346a:	48 8b 45 e8          	mov    -0x18(%rbp),%rax
  40346e:	48 89 c7             	mov    %rax,%rdi
  403471:	e8 ba f2 ff ff       	callq  402730 <pthread_mutex_unlock@plt>
  403476:	48 8b 45 f8          	mov    -0x8(%rbp),%rax
  40347a:	c9                   	leaveq 
  40347b:	c3                   	retq   

000000000040347c <jobqueue_destroy>:
  40347c:	f3 0f 1e fa          	endbr64 
  403480:	55                   	push   %rbp
  403481:	48 89 e5             	mov    %rsp,%rbp
  403484:	48 83 ec 10          	sub    $0x10,%rsp
  403488:	48 89 7d f8          	mov    %rdi,-0x8(%rbp)
  40348c:	48 8b 45 f8          	mov    -0x8(%rbp),%rax
  403490:	48 89 c7             	mov    %rax,%rdi
  403493:	e8 40 fe ff ff       	callq  4032d8 <jobqueue_clear>
  403498:	48 8b 45 f8          	mov    -0x8(%rbp),%rax
  40349c:	48 8b 40 38          	mov    0x38(%rax),%rax
  4034a0:	48 89 c7             	mov    %rax,%rdi
  4034a3:	e8 c8 ef ff ff       	callq  402470 <free@plt>
  4034a8:	90                   	nop
  4034a9:	c9                   	leaveq 
  4034aa:	c3                   	retq   

00000000004034ab <bsem_init>:
  4034ab:	f3 0f 1e fa          	endbr64 
  4034af:	55                   	push   %rbp
  4034b0:	48 89 e5             	mov    %rsp,%rbp
  4034b3:	48 83 ec 10          	sub    $0x10,%rsp
  4034b7:	48 89 7d f8          	mov    %rdi,-0x8(%rbp)
  4034bb:	89 75 f4             	mov    %esi,-0xc(%rbp)
  4034be:	83 7d f4 00          	cmpl   $0x0,-0xc(%rbp)
  4034c2:	78 06                	js     4034ca <bsem_init+0x1f>
  4034c4:	83 7d f4 01          	cmpl   $0x1,-0xc(%rbp)
  4034c8:	7e 2a                	jle    4034f4 <bsem_init+0x49>
  4034ca:	48 8b 05 ef 9d 00 00 	mov    0x9def(%rip),%rax        # 40d2c0 <stderr@@GLIBC_2.2.5>
  4034d1:	48 89 c1             	mov    %rax,%rcx
  4034d4:	ba 39 00 00 00       	mov    $0x39,%edx
  4034d9:	be 01 00 00 00       	mov    $0x1,%esi
  4034de:	48 8d 3d 83 5c 00 00 	lea    0x5c83(%rip),%rdi        # 409168 <_IO_stdin_used+0x168>
  4034e5:	e8 56 f3 ff ff       	callq  402840 <fwrite@plt>
  4034ea:	bf 01 00 00 00       	mov    $0x1,%edi
  4034ef:	e8 2c f3 ff ff       	callq  402820 <exit@plt>
  4034f4:	48 8b 45 f8          	mov    -0x8(%rbp),%rax
  4034f8:	be 00 00 00 00       	mov    $0x0,%esi
  4034fd:	48 89 c7             	mov    %rax,%rdi
  403500:	e8 5b f3 ff ff       	callq  402860 <pthread_mutex_init@plt>
  403505:	48 8b 45 f8          	mov    -0x8(%rbp),%rax
  403509:	48 83 c0 28          	add    $0x28,%rax
  40350d:	be 00 00 00 00       	mov    $0x0,%esi
  403512:	48 89 c7             	mov    %rax,%rdi
  403515:	e8 06 f2 ff ff       	callq  402720 <pthread_cond_init@plt>
  40351a:	48 8b 45 f8          	mov    -0x8(%rbp),%rax
  40351e:	8b 55 f4             	mov    -0xc(%rbp),%edx
  403521:	89 50 58             	mov    %edx,0x58(%rax)
  403524:	90                   	nop
  403525:	c9                   	leaveq 
  403526:	c3                   	retq   

0000000000403527 <bsem_reset>:
  403527:	f3 0f 1e fa          	endbr64 
  40352b:	55                   	push   %rbp
  40352c:	48 89 e5             	mov    %rsp,%rbp
  40352f:	48 83 ec 10          	sub    $0x10,%rsp
  403533:	48 89 7d f8          	mov    %rdi,-0x8(%rbp)
  403537:	48 8b 45 f8          	mov    -0x8(%rbp),%rax
  40353b:	be 00 00 00 00       	mov    $0x0,%esi
  403540:	48 89 c7             	mov    %rax,%rdi
  403543:	e8 63 ff ff ff       	callq  4034ab <bsem_init>
  403548:	90                   	nop
  403549:	c9                   	leaveq 
  40354a:	c3                   	retq   

000000000040354b <bsem_post>:
  40354b:	f3 0f 1e fa          	endbr64 
  40354f:	55                   	push   %rbp
  403550:	48 89 e5             	mov    %rsp,%rbp
  403553:	48 83 ec 10          	sub    $0x10,%rsp
  403557:	48 89 7d f8          	mov    %rdi,-0x8(%rbp)
  40355b:	48 8b 45 f8          	mov    -0x8(%rbp),%rax
  40355f:	48 89 c7             	mov    %rax,%rdi
  403562:	e8 19 f3 ff ff       	callq  402880 <pthread_mutex_lock@plt>
  403567:	48 8b 45 f8          	mov    -0x8(%rbp),%rax
  40356b:	c7 40 58 01 00 00 00 	movl   $0x1,0x58(%rax)
  403572:	48 8b 45 f8          	mov    -0x8(%rbp),%rax
  403576:	48 83 c0 28          	add    $0x28,%rax
  40357a:	48 89 c7             	mov    %rax,%rdi
  40357d:	e8 fe f0 ff ff       	callq  402680 <pthread_cond_signal@plt>
  403582:	48 8b 45 f8          	mov    -0x8(%rbp),%rax
  403586:	48 89 c7             	mov    %rax,%rdi
  403589:	e8 a2 f1 ff ff       	callq  402730 <pthread_mutex_unlock@plt>
  40358e:	90                   	nop
  40358f:	c9                   	leaveq 
  403590:	c3                   	retq   

0000000000403591 <bsem_post_all>:
  403591:	f3 0f 1e fa          	endbr64 
  403595:	55                   	push   %rbp
  403596:	48 89 e5             	mov    %rsp,%rbp
  403599:	48 83 ec 10          	sub    $0x10,%rsp
  40359d:	48 89 7d f8          	mov    %rdi,-0x8(%rbp)
  4035a1:	48 8b 45 f8          	mov    -0x8(%rbp),%rax
  4035a5:	48 89 c7             	mov    %rax,%rdi
  4035a8:	e8 d3 f2 ff ff       	callq  402880 <pthread_mutex_lock@plt>
  4035ad:	48 8b 45 f8          	mov    -0x8(%rbp),%rax
  4035b1:	c7 40 58 01 00 00 00 	movl   $0x1,0x58(%rax)
  4035b8:	48 8b 45 f8          	mov    -0x8(%rbp),%rax
  4035bc:	48 83 c0 28          	add    $0x28,%rax
  4035c0:	48 89 c7             	mov    %rax,%rdi
  4035c3:	e8 18 ef ff ff       	callq  4024e0 <pthread_cond_broadcast@plt>
  4035c8:	48 8b 45 f8          	mov    -0x8(%rbp),%rax
  4035cc:	48 89 c7             	mov    %rax,%rdi
  4035cf:	e8 5c f1 ff ff       	callq  402730 <pthread_mutex_unlock@plt>
  4035d4:	90                   	nop
  4035d5:	c9                   	leaveq 
  4035d6:	c3                   	retq   

00000000004035d7 <bsem_wait>:
  4035d7:	f3 0f 1e fa          	endbr64 
  4035db:	55                   	push   %rbp
  4035dc:	48 89 e5             	mov    %rsp,%rbp
  4035df:	48 83 ec 10          	sub    $0x10,%rsp
  4035e3:	48 89 7d f8          	mov    %rdi,-0x8(%rbp)
  4035e7:	48 8b 45 f8          	mov    -0x8(%rbp),%rax
  4035eb:	48 89 c7             	mov    %rax,%rdi
  4035ee:	e8 8d f2 ff ff       	callq  402880 <pthread_mutex_lock@plt>
  4035f3:	eb 17                	jmp    40360c <bsem_wait+0x35>
  4035f5:	48 8b 45 f8          	mov    -0x8(%rbp),%rax
  4035f9:	48 8b 55 f8          	mov    -0x8(%rbp),%rdx
  4035fd:	48 83 c2 28          	add    $0x28,%rdx
  403601:	48 89 c6             	mov    %rax,%rsi
  403604:	48 89 d7             	mov    %rdx,%rdi
  403607:	e8 44 ef ff ff       	callq  402550 <pthread_cond_wait@plt>
  40360c:	48 8b 45 f8          	mov    -0x8(%rbp),%rax
  403610:	8b 40 58             	mov    0x58(%rax),%eax
  403613:	83 f8 01             	cmp    $0x1,%eax
  403616:	75 dd                	jne    4035f5 <bsem_wait+0x1e>
  403618:	48 8b 45 f8          	mov    -0x8(%rbp),%rax
  40361c:	c7 40 58 00 00 00 00 	movl   $0x0,0x58(%rax)
  403623:	48 8b 45 f8          	mov    -0x8(%rbp),%rax
  403627:	48 89 c7             	mov    %rax,%rdi
  40362a:	e8 01 f1 ff ff       	callq  402730 <pthread_mutex_unlock@plt>
  40362f:	90                   	nop
  403630:	c9                   	leaveq 
  403631:	c3                   	retq   

0000000000403632 <escapeshellarg>:
  403632:	f3 0f 1e fa          	endbr64 
  403636:	55                   	push   %rbp
  403637:	48 89 e5             	mov    %rsp,%rbp
  40363a:	48 83 ec 30          	sub    $0x30,%rsp
  40363e:	48 89 7d d8          	mov    %rdi,-0x28(%rbp)
  403642:	48 c7 45 e8 00 00 00 	movq   $0x0,-0x18(%rbp)
  403649:	00 
  40364a:	48 8b 45 d8          	mov    -0x28(%rbp),%rax
  40364e:	48 89 c7             	mov    %rax,%rdi
  403651:	e8 1a ef ff ff       	callq  402570 <strlen@plt>
  403656:	48 89 45 f0          	mov    %rax,-0x10(%rbp)
  40365a:	48 8b 45 f0          	mov    -0x10(%rbp),%rax
  40365e:	48 c1 e0 02          	shl    $0x2,%rax
  403662:	48 89 c7             	mov    %rax,%rdi
  403665:	e8 d6 f0 ff ff       	callq  402740 <malloc@plt>
  40366a:	48 89 45 f8          	mov    %rax,-0x8(%rbp)
  40366e:	48 8b 45 e8          	mov    -0x18(%rbp),%rax
  403672:	48 8d 50 01          	lea    0x1(%rax),%rdx
  403676:	48 89 55 e8          	mov    %rdx,-0x18(%rbp)
  40367a:	48 8b 55 f8          	mov    -0x8(%rbp),%rdx
  40367e:	48 01 d0             	add    %rdx,%rax
  403681:	c6 00 27             	movb   $0x27,(%rax)
  403684:	48 c7 45 e0 00 00 00 	movq   $0x0,-0x20(%rbp)
  40368b:	00 
  40368c:	e9 81 00 00 00       	jmpq   403712 <escapeshellarg+0xe0>
  403691:	48 8b 55 d8          	mov    -0x28(%rbp),%rdx
  403695:	48 8b 45 e0          	mov    -0x20(%rbp),%rax
  403699:	48 01 d0             	add    %rdx,%rax
  40369c:	0f b6 00             	movzbl (%rax),%eax
  40369f:	0f be c0             	movsbl %al,%eax
  4036a2:	83 f8 27             	cmp    $0x27,%eax
  4036a5:	75 42                	jne    4036e9 <escapeshellarg+0xb7>
  4036a7:	48 8b 45 e8          	mov    -0x18(%rbp),%rax
  4036ab:	48 8d 50 01          	lea    0x1(%rax),%rdx
  4036af:	48 89 55 e8          	mov    %rdx,-0x18(%rbp)
  4036b3:	48 8b 55 f8          	mov    -0x8(%rbp),%rdx
  4036b7:	48 01 d0             	add    %rdx,%rax
  4036ba:	c6 00 27             	movb   $0x27,(%rax)
  4036bd:	48 8b 45 e8          	mov    -0x18(%rbp),%rax
  4036c1:	48 8d 50 01          	lea    0x1(%rax),%rdx
  4036c5:	48 89 55 e8          	mov    %rdx,-0x18(%rbp)
  4036c9:	48 8b 55 f8          	mov    -0x8(%rbp),%rdx
  4036cd:	48 01 d0             	add    %rdx,%rax
  4036d0:	c6 00 5c             	movb   $0x5c,(%rax)
  4036d3:	48 8b 45 e8          	mov    -0x18(%rbp),%rax
  4036d7:	48 8d 50 01          	lea    0x1(%rax),%rdx
  4036db:	48 89 55 e8          	mov    %rdx,-0x18(%rbp)
  4036df:	48 8b 55 f8          	mov    -0x8(%rbp),%rdx
  4036e3:	48 01 d0             	add    %rdx,%rax
  4036e6:	c6 00 27             	movb   $0x27,(%rax)
  4036e9:	48 8b 55 d8          	mov    -0x28(%rbp),%rdx
  4036ed:	48 8b 45 e0          	mov    -0x20(%rbp),%rax
  4036f1:	48 8d 0c 02          	lea    (%rdx,%rax,1),%rcx
  4036f5:	48 8b 45 e8          	mov    -0x18(%rbp),%rax
  4036f9:	48 8d 50 01          	lea    0x1(%rax),%rdx
  4036fd:	48 89 55 e8          	mov    %rdx,-0x18(%rbp)
  403701:	48 8b 55 f8          	mov    -0x8(%rbp),%rdx
  403705:	48 01 c2             	add    %rax,%rdx
  403708:	0f b6 01             	movzbl (%rcx),%eax
  40370b:	88 02                	mov    %al,(%rdx)
  40370d:	48 83 45 e0 01       	addq   $0x1,-0x20(%rbp)
  403712:	48 8b 45 e0          	mov    -0x20(%rbp),%rax
  403716:	48 3b 45 f0          	cmp    -0x10(%rbp),%rax
  40371a:	0f 82 71 ff ff ff    	jb     403691 <escapeshellarg+0x5f>
  403720:	48 8b 45 e8          	mov    -0x18(%rbp),%rax
  403724:	48 8d 50 01          	lea    0x1(%rax),%rdx
  403728:	48 89 55 e8          	mov    %rdx,-0x18(%rbp)
  40372c:	48 8b 55 f8          	mov    -0x8(%rbp),%rdx
  403730:	48 01 d0             	add    %rdx,%rax
  403733:	c6 00 27             	movb   $0x27,(%rax)
  403736:	48 8b 55 f8          	mov    -0x8(%rbp),%rdx
  40373a:	48 8b 45 e8          	mov    -0x18(%rbp),%rax
  40373e:	48 01 d0             	add    %rdx,%rax
  403741:	c6 00 00             	movb   $0x0,(%rax)
  403744:	48 8b 45 f8          	mov    -0x8(%rbp),%rax
  403748:	c9                   	leaveq 
  403749:	c3                   	retq   

000000000040374a <ip_read_conv>:
  40374a:	f3 0f 1e fa          	endbr64 
  40374e:	55                   	push   %rbp
  40374f:	48 89 e5             	mov    %rsp,%rbp
  403752:	48 83 ec 30          	sub    $0x30,%rsp
  403756:	48 89 7d d8          	mov    %rdi,-0x28(%rbp)
  40375a:	64 48 8b 04 25 28 00 	mov    %fs:0x28,%rax
  403761:	00 00 
  403763:	48 89 45 f8          	mov    %rax,-0x8(%rbp)
  403767:	31 c0                	xor    %eax,%eax
  403769:	c7 45 f0 00 00 00 00 	movl   $0x0,-0x10(%rbp)
  403770:	c6 45 ee 00          	movb   $0x0,-0x12(%rbp)
  403774:	c6 45 ef 00          	movb   $0x0,-0x11(%rbp)
  403778:	c7 45 f4 00 00 00 00 	movl   $0x0,-0xc(%rbp)
  40377f:	eb 5a                	jmp    4037db <ip_read_conv+0x91>
  403781:	0f b6 4d ee          	movzbl -0x12(%rbp),%ecx
  403785:	48 8b 45 d8          	mov    -0x28(%rbp),%rax
  403789:	0f b6 10             	movzbl (%rax),%edx
  40378c:	48 63 c1             	movslq %ecx,%rax
  40378f:	88 54 05 f4          	mov    %dl,-0xc(%rbp,%rax,1)
  403793:	48 83 45 d8 01       	addq   $0x1,-0x28(%rbp)
  403798:	0f b6 45 ee          	movzbl -0x12(%rbp),%eax
  40379c:	83 c0 01             	add    $0x1,%eax
  40379f:	88 45 ee             	mov    %al,-0x12(%rbp)
  4037a2:	80 7d ee 03          	cmpb   $0x3,-0x12(%rbp)
  4037a6:	74 0b                	je     4037b3 <ip_read_conv+0x69>
  4037a8:	48 8b 45 d8          	mov    -0x28(%rbp),%rax
  4037ac:	0f b6 00             	movzbl (%rax),%eax
  4037af:	3c 2e                	cmp    $0x2e,%al
  4037b1:	75 28                	jne    4037db <ip_read_conv+0x91>
  4037b3:	c6 45 ee 00          	movb   $0x0,-0x12(%rbp)
  4037b7:	48 8d 45 f4          	lea    -0xc(%rbp),%rax
  4037bb:	48 89 c7             	mov    %rax,%rdi
  4037be:	e8 3d f0 ff ff       	callq  402800 <atoi@plt>
  4037c3:	89 c2                	mov    %eax,%edx
  4037c5:	0f b6 45 ef          	movzbl -0x11(%rbp),%eax
  4037c9:	89 c1                	mov    %eax,%ecx
  4037cb:	d3 e2                	shl    %cl,%edx
  4037cd:	89 d0                	mov    %edx,%eax
  4037cf:	09 45 f0             	or     %eax,-0x10(%rbp)
  4037d2:	80 45 ef 08          	addb   $0x8,-0x11(%rbp)
  4037d6:	48 83 45 d8 01       	addq   $0x1,-0x28(%rbp)
  4037db:	48 8b 45 d8          	mov    -0x28(%rbp),%rax
  4037df:	0f b6 00             	movzbl (%rax),%eax
  4037e2:	84 c0                	test   %al,%al
  4037e4:	74 0b                	je     4037f1 <ip_read_conv+0xa7>
  4037e6:	48 8b 45 d8          	mov    -0x28(%rbp),%rax
  4037ea:	0f b6 00             	movzbl (%rax),%eax
  4037ed:	3c 2f                	cmp    $0x2f,%al
  4037ef:	75 90                	jne    403781 <ip_read_conv+0x37>
  4037f1:	80 7d ef 1f          	cmpb   $0x1f,-0x11(%rbp)
  4037f5:	77 1b                	ja     403812 <ip_read_conv+0xc8>
  4037f7:	48 8d 45 f4          	lea    -0xc(%rbp),%rax
  4037fb:	48 89 c7             	mov    %rax,%rdi
  4037fe:	e8 fd ef ff ff       	callq  402800 <atoi@plt>
  403803:	89 c2                	mov    %eax,%edx
  403805:	0f b6 45 ef          	movzbl -0x11(%rbp),%eax
  403809:	89 c1                	mov    %eax,%ecx
  40380b:	d3 e2                	shl    %cl,%edx
  40380d:	89 d0                	mov    %edx,%eax
  40380f:	09 45 f0             	or     %eax,-0x10(%rbp)
  403812:	8b 45 f0             	mov    -0x10(%rbp),%eax
  403815:	48 8b 75 f8          	mov    -0x8(%rbp),%rsi
  403819:	64 48 33 34 25 28 00 	xor    %fs:0x28,%rsi
  403820:	00 00 
  403822:	74 05                	je     403829 <ip_read_conv+0xdf>
  403824:	e8 57 ed ff ff       	callq  402580 <__stack_chk_fail@plt>
  403829:	c9                   	leaveq 
  40382a:	c3                   	retq   

000000000040382b <argv_parser>:
  40382b:	f3 0f 1e fa          	endbr64 
  40382f:	55                   	push   %rbp
  403830:	48 89 e5             	mov    %rsp,%rbp
  403833:	48 83 ec 20          	sub    $0x20,%rsp
  403837:	48 89 7d f8          	mov    %rdi,-0x8(%rbp)
  40383b:	89 75 f4             	mov    %esi,-0xc(%rbp)
  40383e:	48 89 55 e8          	mov    %rdx,-0x18(%rbp)
  403842:	48 89 4d e0          	mov    %rcx,-0x20(%rbp)
  403846:	83 7d f4 01          	cmpl   $0x1,-0xc(%rbp)
  40384a:	75 19                	jne    403865 <argv_parser+0x3a>
  40384c:	48 8b 45 e8          	mov    -0x18(%rbp),%rax
  403850:	48 8b 00             	mov    (%rax),%rax
  403853:	48 89 c7             	mov    %rax,%rdi
  403856:	e8 d8 07 00 00       	callq  404033 <show_help_command>
  40385b:	b8 00 00 00 00       	mov    $0x0,%eax
  403860:	e9 42 01 00 00       	jmpq   4039a7 <argv_parser+0x17c>
  403865:	48 8b 45 e8          	mov    -0x18(%rbp),%rax
  403869:	48 83 c0 08          	add    $0x8,%rax
  40386d:	48 8b 00             	mov    (%rax),%rax
  403870:	48 8d 35 a9 59 00 00 	lea    0x59a9(%rip),%rsi        # 409220 <_IO_stdin_used+0x220>
  403877:	48 89 c7             	mov    %rax,%rdi
  40387a:	e8 21 ee ff ff       	callq  4026a0 <strcmp@plt>
  40387f:	85 c0                	test   %eax,%eax
  403881:	75 38                	jne    4038bb <argv_parser+0x90>
  403883:	48 8b 45 f8          	mov    -0x8(%rbp),%rax
  403887:	c7 40 40 00 00 00 00 	movl   $0x0,0x40(%rax)
  40388e:	48 8b 45 e8          	mov    -0x18(%rbp),%rax
  403892:	48 8d 48 08          	lea    0x8(%rax),%rcx
  403896:	8b 45 f4             	mov    -0xc(%rbp),%eax
  403899:	8d 50 ff             	lea    -0x1(%rax),%edx
  40389c:	48 8b 75 f8          	mov    -0x8(%rbp),%rsi
  4038a0:	48 8b 45 e8          	mov    -0x18(%rbp),%rax
  4038a4:	48 8b 00             	mov    (%rax),%rax
  4038a7:	48 8b 7d e0          	mov    -0x20(%rbp),%rdi
  4038ab:	49 89 f8             	mov    %rdi,%r8
  4038ae:	48 89 c7             	mov    %rax,%rdi
  4038b1:	e8 f3 00 00 00       	callq  4039a9 <server_argv_parser>
  4038b6:	e9 ec 00 00 00       	jmpq   4039a7 <argv_parser+0x17c>
  4038bb:	48 8b 45 e8          	mov    -0x18(%rbp),%rax
  4038bf:	48 83 c0 08          	add    $0x8,%rax
  4038c3:	48 8b 00             	mov    (%rax),%rax
  4038c6:	48 8d 35 5a 59 00 00 	lea    0x595a(%rip),%rsi        # 409227 <_IO_stdin_used+0x227>
  4038cd:	48 89 c7             	mov    %rax,%rdi
  4038d0:	e8 cb ed ff ff       	callq  4026a0 <strcmp@plt>
  4038d5:	85 c0                	test   %eax,%eax
  4038d7:	75 38                	jne    403911 <argv_parser+0xe6>
  4038d9:	48 8b 45 f8          	mov    -0x8(%rbp),%rax
  4038dd:	c7 40 40 01 00 00 00 	movl   $0x1,0x40(%rax)
  4038e4:	48 8b 45 e8          	mov    -0x18(%rbp),%rax
  4038e8:	48 8d 48 08          	lea    0x8(%rax),%rcx
  4038ec:	8b 45 f4             	mov    -0xc(%rbp),%eax
  4038ef:	8d 50 ff             	lea    -0x1(%rax),%edx
  4038f2:	48 8b 75 f8          	mov    -0x8(%rbp),%rsi
  4038f6:	48 8b 45 e8          	mov    -0x18(%rbp),%rax
  4038fa:	48 8b 00             	mov    (%rax),%rax
  4038fd:	48 8b 7d e0          	mov    -0x20(%rbp),%rdi
  403901:	49 89 f8             	mov    %rdi,%r8
  403904:	48 89 c7             	mov    %rax,%rdi
  403907:	e8 ed 03 00 00       	callq  403cf9 <client_argv_parser>
  40390c:	e9 96 00 00 00       	jmpq   4039a7 <argv_parser+0x17c>
  403911:	48 8b 45 e8          	mov    -0x18(%rbp),%rax
  403915:	48 83 c0 08          	add    $0x8,%rax
  403919:	48 8b 00             	mov    (%rax),%rax
  40391c:	48 8d 35 0c 59 00 00 	lea    0x590c(%rip),%rsi        # 40922f <_IO_stdin_used+0x22f>
  403923:	48 89 c7             	mov    %rax,%rdi
  403926:	e8 75 ed ff ff       	callq  4026a0 <strcmp@plt>
  40392b:	85 c0                	test   %eax,%eax
  40392d:	74 3c                	je     40396b <argv_parser+0x140>
  40392f:	48 8b 45 e8          	mov    -0x18(%rbp),%rax
  403933:	48 83 c0 08          	add    $0x8,%rax
  403937:	48 8b 00             	mov    (%rax),%rax
  40393a:	48 8d 35 f5 58 00 00 	lea    0x58f5(%rip),%rsi        # 409236 <_IO_stdin_used+0x236>
  403941:	48 89 c7             	mov    %rax,%rdi
  403944:	e8 57 ed ff ff       	callq  4026a0 <strcmp@plt>
  403949:	85 c0                	test   %eax,%eax
  40394b:	74 1e                	je     40396b <argv_parser+0x140>
  40394d:	48 8b 45 e8          	mov    -0x18(%rbp),%rax
  403951:	48 83 c0 08          	add    $0x8,%rax
  403955:	48 8b 00             	mov    (%rax),%rax
  403958:	48 8d 35 a1 58 00 00 	lea    0x58a1(%rip),%rsi        # 409200 <_IO_stdin_used+0x200>
  40395f:	48 89 c7             	mov    %rax,%rdi
  403962:	e8 39 ed ff ff       	callq  4026a0 <strcmp@plt>
  403967:	85 c0                	test   %eax,%eax
  403969:	75 11                	jne    40397c <argv_parser+0x151>
  40396b:	48 8b 45 e8          	mov    -0x18(%rbp),%rax
  40396f:	48 8b 00             	mov    (%rax),%rax
  403972:	48 89 c7             	mov    %rax,%rdi
  403975:	e8 b9 06 00 00       	callq  404033 <show_help_command>
  40397a:	eb 26                	jmp    4039a2 <argv_parser+0x177>
  40397c:	48 8b 45 e8          	mov    -0x18(%rbp),%rax
  403980:	48 8b 10             	mov    (%rax),%rdx
  403983:	48 8b 45 e8          	mov    -0x18(%rbp),%rax
  403987:	48 83 c0 08          	add    $0x8,%rax
  40398b:	48 8b 00             	mov    (%rax),%rax
  40398e:	48 89 c6             	mov    %rax,%rsi
  403991:	48 8d 3d a8 58 00 00 	lea    0x58a8(%rip),%rdi        # 409240 <_IO_stdin_used+0x240>
  403998:	b8 00 00 00 00       	mov    $0x0,%eax
  40399d:	e8 2e ec ff ff       	callq  4025d0 <printf@plt>
  4039a2:	b8 00 00 00 00       	mov    $0x0,%eax
  4039a7:	c9                   	leaveq 
  4039a8:	c3                   	retq   

00000000004039a9 <server_argv_parser>:
  4039a9:	f3 0f 1e fa          	endbr64 
  4039ad:	55                   	push   %rbp
  4039ae:	48 89 e5             	mov    %rsp,%rbp
  4039b1:	48 83 ec 40          	sub    $0x40,%rsp
  4039b5:	48 89 7d e8          	mov    %rdi,-0x18(%rbp)
  4039b9:	48 89 75 e0          	mov    %rsi,-0x20(%rbp)
  4039bd:	89 55 dc             	mov    %edx,-0x24(%rbp)
  4039c0:	48 89 4d d0          	mov    %rcx,-0x30(%rbp)
  4039c4:	4c 89 45 c8          	mov    %r8,-0x38(%rbp)
  4039c8:	64 48 8b 04 25 28 00 	mov    %fs:0x28,%rax
  4039cf:	00 00 
  4039d1:	48 89 45 f8          	mov    %rax,-0x8(%rbp)
  4039d5:	31 c0                	xor    %eax,%eax
  4039d7:	48 8b 45 e0          	mov    -0x20(%rbp),%rax
  4039db:	48 8d 15 66 98 00 00 	lea    0x9866(%rip),%rdx        # 40d248 <bind_any_addr>
  4039e2:	48 89 10             	mov    %rdx,(%rax)
  4039e5:	48 8b 45 e0          	mov    -0x20(%rbp),%rax
  4039e9:	66 c7 40 3a 03 d9    	movw   $0xd903,0x3a(%rax)
  4039ef:	48 8b 45 e0          	mov    -0x20(%rbp),%rax
  4039f3:	c6 40 3d 08          	movb   $0x8,0x3d(%rax)
  4039f7:	48 8b 45 e0          	mov    -0x20(%rbp),%rax
  4039fb:	c6 40 3c 00          	movb   $0x0,0x3c(%rax)
  4039ff:	48 8b 45 e0          	mov    -0x20(%rbp),%rax
  403a03:	48 c7 40 10 00 00 00 	movq   $0x0,0x10(%rax)
  403a0a:	00 
  403a0b:	48 8b 45 e0          	mov    -0x20(%rbp),%rax
  403a0f:	48 c7 40 08 00 00 00 	movq   $0x0,0x8(%rax)
  403a16:	00 
  403a17:	48 8b 45 e0          	mov    -0x20(%rbp),%rax
  403a1b:	66 c7 40 38 dc 05    	movw   $0x5dc,0x38(%rax)
  403a21:	48 8b 45 e0          	mov    -0x20(%rbp),%rax
  403a25:	48 c7 40 18 00 00 00 	movq   $0x0,0x18(%rax)
  403a2c:	00 
  403a2d:	48 8b 45 e0          	mov    -0x20(%rbp),%rax
  403a31:	48 8d 15 20 98 00 00 	lea    0x9820(%rip),%rdx        # 40d258 <default_inet4>
  403a38:	48 89 50 28          	mov    %rdx,0x28(%rax)
  403a3c:	48 8b 45 e0          	mov    -0x20(%rbp),%rax
  403a40:	48 8d 15 21 98 00 00 	lea    0x9821(%rip),%rdx        # 40d268 <default_inet4_broadcast>
  403a47:	48 89 50 30          	mov    %rdx,0x30(%rax)
  403a4b:	48 8b 45 e0          	mov    -0x20(%rbp),%rax
  403a4f:	48 8d 15 fa 97 00 00 	lea    0x97fa(%rip),%rdx        # 40d250 <default_dev_name>
  403a56:	48 89 50 20          	mov    %rdx,0x20(%rax)
  403a5a:	c7 45 f0 00 00 00 00 	movl   $0x0,-0x10(%rbp)
  403a61:	48 8d 55 f0          	lea    -0x10(%rbp),%rdx
  403a65:	48 8b 75 d0          	mov    -0x30(%rbp),%rsi
  403a69:	8b 45 dc             	mov    -0x24(%rbp),%eax
  403a6c:	49 89 d0             	mov    %rdx,%r8
  403a6f:	48 8d 0d 8a 90 00 00 	lea    0x908a(%rip),%rcx        # 40cb00 <server_options>
  403a76:	48 8d 15 f1 57 00 00 	lea    0x57f1(%rip),%rdx        # 40926e <_IO_stdin_used+0x26e>
  403a7d:	89 c7                	mov    %eax,%edi
  403a7f:	e8 0c eb ff ff       	callq  402590 <getopt_long@plt>
  403a84:	89 45 f4             	mov    %eax,-0xc(%rbp)
  403a87:	83 7d f4 ff          	cmpl   $0xffffffff,-0xc(%rbp)
  403a8b:	0f 84 86 01 00 00    	je     403c17 <server_argv_parser+0x26e>
  403a91:	83 7d f4 76          	cmpl   $0x76,-0xc(%rbp)
  403a95:	0f 8f 4d 01 00 00    	jg     403be8 <server_argv_parser+0x23f>
  403a9b:	83 7d f4 63          	cmpl   $0x63,-0xc(%rbp)
  403a9f:	7d 41                	jge    403ae2 <server_argv_parser+0x139>
  403aa1:	83 7d f4 0a          	cmpl   $0xa,-0xc(%rbp)
  403aa5:	0f 84 2f 01 00 00    	je     403bda <server_argv_parser+0x231>
  403aab:	83 7d f4 0a          	cmpl   $0xa,-0xc(%rbp)
  403aaf:	0f 8f 33 01 00 00    	jg     403be8 <server_argv_parser+0x23f>
  403ab5:	83 7d f4 03          	cmpl   $0x3,-0xc(%rbp)
  403ab9:	0f 84 0a 01 00 00    	je     403bc9 <server_argv_parser+0x220>
  403abf:	83 7d f4 03          	cmpl   $0x3,-0xc(%rbp)
  403ac3:	0f 8f 1f 01 00 00    	jg     403be8 <server_argv_parser+0x23f>
  403ac9:	83 7d f4 01          	cmpl   $0x1,-0xc(%rbp)
  403acd:	0f 84 cb 00 00 00    	je     403b9e <server_argv_parser+0x1f5>
  403ad3:	83 7d f4 02          	cmpl   $0x2,-0xc(%rbp)
  403ad7:	0f 84 d2 00 00 00    	je     403baf <server_argv_parser+0x206>
  403add:	e9 06 01 00 00       	jmpq   403be8 <server_argv_parser+0x23f>
  403ae2:	8b 45 f4             	mov    -0xc(%rbp),%eax
  403ae5:	83 e8 63             	sub    $0x63,%eax
  403ae8:	83 f8 13             	cmp    $0x13,%eax
  403aeb:	0f 87 f7 00 00 00    	ja     403be8 <server_argv_parser+0x23f>
  403af1:	89 c0                	mov    %eax,%eax
  403af3:	48 8d 14 85 00 00 00 	lea    0x0(,%rax,4),%rdx
  403afa:	00 
  403afb:	48 8d 05 22 58 00 00 	lea    0x5822(%rip),%rax        # 409324 <_IO_stdin_used+0x324>
  403b02:	8b 04 02             	mov    (%rdx,%rax,1),%eax
  403b05:	48 98                	cltq   
  403b07:	48 8d 15 16 58 00 00 	lea    0x5816(%rip),%rdx        # 409324 <_IO_stdin_used+0x324>
  403b0e:	48 01 d0             	add    %rdx,%rax
  403b11:	3e ff e0             	notrack jmpq *%rax
  403b14:	48 8b 15 8d 97 00 00 	mov    0x978d(%rip),%rdx        # 40d2a8 <optarg@@GLIBC_2.2.5>
  403b1b:	48 8b 45 e0          	mov    -0x20(%rbp),%rax
  403b1f:	48 89 10             	mov    %rdx,(%rax)
  403b22:	e9 eb 00 00 00       	jmpq   403c12 <server_argv_parser+0x269>
  403b27:	48 8b 05 7a 97 00 00 	mov    0x977a(%rip),%rax        # 40d2a8 <optarg@@GLIBC_2.2.5>
  403b2e:	48 89 c7             	mov    %rax,%rdi
  403b31:	e8 ca ec ff ff       	callq  402800 <atoi@plt>
  403b36:	89 c2                	mov    %eax,%edx
  403b38:	48 8b 45 e0          	mov    -0x20(%rbp),%rax
  403b3c:	66 89 50 3a          	mov    %dx,0x3a(%rax)
  403b40:	e9 cd 00 00 00       	jmpq   403c12 <server_argv_parser+0x269>
  403b45:	48 8b 05 5c 97 00 00 	mov    0x975c(%rip),%rax        # 40d2a8 <optarg@@GLIBC_2.2.5>
  403b4c:	48 89 c7             	mov    %rax,%rdi
  403b4f:	e8 ac ec ff ff       	callq  402800 <atoi@plt>
  403b54:	89 c2                	mov    %eax,%edx
  403b56:	48 8b 45 e0          	mov    -0x20(%rbp),%rax
  403b5a:	88 50 3d             	mov    %dl,0x3d(%rax)
  403b5d:	e9 b0 00 00 00       	jmpq   403c12 <server_argv_parser+0x269>
  403b62:	48 8b 45 e0          	mov    -0x20(%rbp),%rax
  403b66:	0f b6 40 3c          	movzbl 0x3c(%rax),%eax
  403b6a:	8d 50 01             	lea    0x1(%rax),%edx
  403b6d:	48 8b 45 e0          	mov    -0x20(%rbp),%rax
  403b71:	88 50 3c             	mov    %dl,0x3c(%rax)
  403b74:	e9 99 00 00 00       	jmpq   403c12 <server_argv_parser+0x269>
  403b79:	48 8b 15 28 97 00 00 	mov    0x9728(%rip),%rdx        # 40d2a8 <optarg@@GLIBC_2.2.5>
  403b80:	48 8b 45 e0          	mov    -0x20(%rbp),%rax
  403b84:	48 89 50 08          	mov    %rdx,0x8(%rax)
  403b88:	e9 85 00 00 00       	jmpq   403c12 <server_argv_parser+0x269>
  403b8d:	48 8b 15 14 97 00 00 	mov    0x9714(%rip),%rdx        # 40d2a8 <optarg@@GLIBC_2.2.5>
  403b94:	48 8b 45 e0          	mov    -0x20(%rbp),%rax
  403b98:	48 89 50 18          	mov    %rdx,0x18(%rax)
  403b9c:	eb 74                	jmp    403c12 <server_argv_parser+0x269>
  403b9e:	48 8b 15 03 97 00 00 	mov    0x9703(%rip),%rdx        # 40d2a8 <optarg@@GLIBC_2.2.5>
  403ba5:	48 8b 45 e0          	mov    -0x20(%rbp),%rax
  403ba9:	48 89 50 10          	mov    %rdx,0x10(%rax)
  403bad:	eb 63                	jmp    403c12 <server_argv_parser+0x269>
  403baf:	48 8b 05 f2 96 00 00 	mov    0x96f2(%rip),%rax        # 40d2a8 <optarg@@GLIBC_2.2.5>
  403bb6:	48 89 c7             	mov    %rax,%rdi
  403bb9:	e8 42 ec ff ff       	callq  402800 <atoi@plt>
  403bbe:	89 c2                	mov    %eax,%edx
  403bc0:	48 8b 45 e0          	mov    -0x20(%rbp),%rax
  403bc4:	88 50 3c             	mov    %dl,0x3c(%rax)
  403bc7:	eb 49                	jmp    403c12 <server_argv_parser+0x269>
  403bc9:	48 8b 15 d8 96 00 00 	mov    0x96d8(%rip),%rdx        # 40d2a8 <optarg@@GLIBC_2.2.5>
  403bd0:	48 8b 45 e0          	mov    -0x20(%rbp),%rax
  403bd4:	48 89 50 20          	mov    %rdx,0x20(%rax)
  403bd8:	eb 38                	jmp    403c12 <server_argv_parser+0x269>
  403bda:	48 8b 45 e8          	mov    -0x18(%rbp),%rax
  403bde:	48 89 c7             	mov    %rax,%rdi
  403be1:	e8 c3 04 00 00       	callq  4040a9 <show_help_server>
  403be6:	eb 2a                	jmp    403c12 <server_argv_parser+0x269>
  403be8:	48 8b 05 d1 96 00 00 	mov    0x96d1(%rip),%rax        # 40d2c0 <stderr@@GLIBC_2.2.5>
  403bef:	48 89 c1             	mov    %rax,%rcx
  403bf2:	ba 31 00 00 00       	mov    $0x31,%edx
  403bf7:	be 01 00 00 00       	mov    $0x1,%esi
  403bfc:	48 8d 3d 7d 56 00 00 	lea    0x567d(%rip),%rdi        # 409280 <_IO_stdin_used+0x280>
  403c03:	e8 38 ec ff ff       	callq  402840 <fwrite@plt>
  403c08:	b8 00 00 00 00       	mov    $0x0,%eax
  403c0d:	e9 d1 00 00 00       	jmpq   403ce3 <server_argv_parser+0x33a>
  403c12:	e9 43 fe ff ff       	jmpq   403a5a <server_argv_parser+0xb1>
  403c17:	90                   	nop
  403c18:	48 8d 3d 93 56 00 00 	lea    0x5693(%rip),%rdi        # 4092b2 <_IO_stdin_used+0x2b2>
  403c1f:	e8 cc e8 ff ff       	callq  4024f0 <puts@plt>
  403c24:	48 8b 45 e0          	mov    -0x20(%rbp),%rax
  403c28:	48 8b 00             	mov    (%rax),%rax
  403c2b:	48 89 c6             	mov    %rax,%rsi
  403c2e:	48 8d 3d 8e 56 00 00 	lea    0x568e(%rip),%rdi        # 4092c3 <_IO_stdin_used+0x2c3>
  403c35:	b8 00 00 00 00       	mov    $0x0,%eax
  403c3a:	e8 91 e9 ff ff       	callq  4025d0 <printf@plt>
  403c3f:	48 8b 45 e0          	mov    -0x20(%rbp),%rax
  403c43:	0f b7 40 3a          	movzwl 0x3a(%rax),%eax
  403c47:	0f b7 c0             	movzwl %ax,%eax
  403c4a:	89 c6                	mov    %eax,%esi
  403c4c:	48 8d 3d 7f 56 00 00 	lea    0x567f(%rip),%rdi        # 4092d2 <_IO_stdin_used+0x2d2>
  403c53:	b8 00 00 00 00       	mov    $0x0,%eax
  403c58:	e8 73 e9 ff ff       	callq  4025d0 <printf@plt>
  403c5d:	48 8b 45 e0          	mov    -0x20(%rbp),%rax
  403c61:	0f b6 40 3d          	movzbl 0x3d(%rax),%eax
  403c65:	0f b6 c0             	movzbl %al,%eax
  403c68:	89 c6                	mov    %eax,%esi
  403c6a:	48 8d 3d 70 56 00 00 	lea    0x5670(%rip),%rdi        # 4092e1 <_IO_stdin_used+0x2e1>
  403c71:	b8 00 00 00 00       	mov    $0x0,%eax
  403c76:	e8 55 e9 ff ff       	callq  4025d0 <printf@plt>
  403c7b:	48 8b 45 e0          	mov    -0x20(%rbp),%rax
  403c7f:	48 8b 40 10          	mov    0x10(%rax),%rax
  403c83:	48 89 c6             	mov    %rax,%rsi
  403c86:	48 8d 3d 61 56 00 00 	lea    0x5661(%rip),%rdi        # 4092ee <_IO_stdin_used+0x2ee>
  403c8d:	b8 00 00 00 00       	mov    $0x0,%eax
  403c92:	e8 39 e9 ff ff       	callq  4025d0 <printf@plt>
  403c97:	48 8b 45 e0          	mov    -0x20(%rbp),%rax
  403c9b:	48 8b 40 20          	mov    0x20(%rax),%rax
  403c9f:	48 89 c6             	mov    %rax,%rsi
  403ca2:	48 8d 3d 59 56 00 00 	lea    0x5659(%rip),%rdi        # 409302 <_IO_stdin_used+0x302>
  403ca9:	b8 00 00 00 00       	mov    $0x0,%eax
  403cae:	e8 1d e9 ff ff       	callq  4025d0 <printf@plt>
  403cb3:	48 8b 45 e0          	mov    -0x20(%rbp),%rax
  403cb7:	48 8b 40 08          	mov    0x8(%rax),%rax
  403cbb:	48 89 c6             	mov    %rax,%rsi
  403cbe:	48 8d 3d 4b 56 00 00 	lea    0x564b(%rip),%rdi        # 409310 <_IO_stdin_used+0x310>
  403cc5:	b8 00 00 00 00       	mov    $0x0,%eax
  403cca:	e8 01 e9 ff ff       	callq  4025d0 <printf@plt>
  403ccf:	48 8b 05 ca 95 00 00 	mov    0x95ca(%rip),%rax        # 40d2a0 <stdout@@GLIBC_2.2.5>
  403cd6:	48 89 c7             	mov    %rax,%rdi
  403cd9:	e8 72 ea ff ff       	callq  402750 <fflush@plt>
  403cde:	b8 01 00 00 00       	mov    $0x1,%eax
  403ce3:	48 8b 4d f8          	mov    -0x8(%rbp),%rcx
  403ce7:	64 48 33 0c 25 28 00 	xor    %fs:0x28,%rcx
  403cee:	00 00 
  403cf0:	74 05                	je     403cf7 <server_argv_parser+0x34e>
  403cf2:	e8 89 e8 ff ff       	callq  402580 <__stack_chk_fail@plt>
  403cf7:	c9                   	leaveq 
  403cf8:	c3                   	retq   

0000000000403cf9 <client_argv_parser>:
  403cf9:	f3 0f 1e fa          	endbr64 
  403cfd:	55                   	push   %rbp
  403cfe:	48 89 e5             	mov    %rsp,%rbp
  403d01:	48 83 ec 40          	sub    $0x40,%rsp
  403d05:	48 89 7d e8          	mov    %rdi,-0x18(%rbp)
  403d09:	48 89 75 e0          	mov    %rsi,-0x20(%rbp)
  403d0d:	89 55 dc             	mov    %edx,-0x24(%rbp)
  403d10:	48 89 4d d0          	mov    %rcx,-0x30(%rbp)
  403d14:	4c 89 45 c8          	mov    %r8,-0x38(%rbp)
  403d18:	64 48 8b 04 25 28 00 	mov    %fs:0x28,%rax
  403d1f:	00 00 
  403d21:	48 89 45 f8          	mov    %rax,-0x8(%rbp)
  403d25:	31 c0                	xor    %eax,%eax
  403d27:	48 8b 45 e0          	mov    -0x20(%rbp),%rax
  403d2b:	48 c7 00 00 00 00 00 	movq   $0x0,(%rax)
  403d32:	48 8b 45 e0          	mov    -0x20(%rbp),%rax
  403d36:	66 c7 40 3a 03 d9    	movw   $0xd903,0x3a(%rax)
  403d3c:	48 8b 45 e0          	mov    -0x20(%rbp),%rax
  403d40:	c6 40 3c 00          	movb   $0x0,0x3c(%rax)
  403d44:	48 8b 45 e0          	mov    -0x20(%rbp),%rax
  403d48:	48 c7 40 10 00 00 00 	movq   $0x0,0x10(%rax)
  403d4f:	00 
  403d50:	48 8b 45 e0          	mov    -0x20(%rbp),%rax
  403d54:	48 c7 40 08 00 00 00 	movq   $0x0,0x8(%rax)
  403d5b:	00 
  403d5c:	48 8b 45 e0          	mov    -0x20(%rbp),%rax
  403d60:	66 c7 40 20 dc 05    	movw   $0x5dc,0x20(%rax)
  403d66:	48 8b 45 e0          	mov    -0x20(%rbp),%rax
  403d6a:	48 8d 15 df 94 00 00 	lea    0x94df(%rip),%rdx        # 40d250 <default_dev_name>
  403d71:	48 89 50 18          	mov    %rdx,0x18(%rax)
  403d75:	c7 45 f0 00 00 00 00 	movl   $0x0,-0x10(%rbp)
  403d7c:	48 8d 55 f0          	lea    -0x10(%rbp),%rdx
  403d80:	48 8b 75 d0          	mov    -0x30(%rbp),%rsi
  403d84:	8b 45 dc             	mov    -0x24(%rbp),%eax
  403d87:	49 89 d0             	mov    %rdx,%r8
  403d8a:	48 8d 0d ef 8e 00 00 	lea    0x8eef(%rip),%rcx        # 40cc80 <client_options>
  403d91:	48 8d 15 dc 55 00 00 	lea    0x55dc(%rip),%rdx        # 409374 <_IO_stdin_used+0x374>
  403d98:	89 c7                	mov    %eax,%edi
  403d9a:	e8 f1 e7 ff ff       	callq  402590 <getopt_long@plt>
  403d9f:	89 45 f4             	mov    %eax,-0xc(%rbp)
  403da2:	83 7d f4 ff          	cmpl   $0xffffffff,-0xc(%rbp)
  403da6:	0f 84 c3 01 00 00    	je     403f6f <client_argv_parser+0x276>
  403dac:	83 7d f4 76          	cmpl   $0x76,-0xc(%rbp)
  403db0:	0f 8f 8a 01 00 00    	jg     403f40 <client_argv_parser+0x247>
  403db6:	83 7d f4 50          	cmpl   $0x50,-0xc(%rbp)
  403dba:	7d 41                	jge    403dfd <client_argv_parser+0x104>
  403dbc:	83 7d f4 0a          	cmpl   $0xa,-0xc(%rbp)
  403dc0:	0f 84 6c 01 00 00    	je     403f32 <client_argv_parser+0x239>
  403dc6:	83 7d f4 0a          	cmpl   $0xa,-0xc(%rbp)
  403dca:	0f 8f 70 01 00 00    	jg     403f40 <client_argv_parser+0x247>
  403dd0:	83 7d f4 03          	cmpl   $0x3,-0xc(%rbp)
  403dd4:	0f 84 47 01 00 00    	je     403f21 <client_argv_parser+0x228>
  403dda:	83 7d f4 03          	cmpl   $0x3,-0xc(%rbp)
  403dde:	0f 8f 5c 01 00 00    	jg     403f40 <client_argv_parser+0x247>
  403de4:	83 7d f4 01          	cmpl   $0x1,-0xc(%rbp)
  403de8:	0f 84 08 01 00 00    	je     403ef6 <client_argv_parser+0x1fd>
  403dee:	83 7d f4 02          	cmpl   $0x2,-0xc(%rbp)
  403df2:	0f 84 0f 01 00 00    	je     403f07 <client_argv_parser+0x20e>
  403df8:	e9 43 01 00 00       	jmpq   403f40 <client_argv_parser+0x247>
  403dfd:	8b 45 f4             	mov    -0xc(%rbp),%eax
  403e00:	83 e8 50             	sub    $0x50,%eax
  403e03:	83 f8 26             	cmp    $0x26,%eax
  403e06:	0f 87 34 01 00 00    	ja     403f40 <client_argv_parser+0x247>
  403e0c:	89 c0                	mov    %eax,%eax
  403e0e:	48 8d 14 85 00 00 00 	lea    0x0(,%rax,4),%rdx
  403e15:	00 
  403e16:	48 8d 05 5f 55 00 00 	lea    0x555f(%rip),%rax        # 40937c <_IO_stdin_used+0x37c>
  403e1d:	8b 04 02             	mov    (%rdx,%rax,1),%eax
  403e20:	48 98                	cltq   
  403e22:	48 8d 15 53 55 00 00 	lea    0x5553(%rip),%rdx        # 40937c <_IO_stdin_used+0x37c>
  403e29:	48 01 d0             	add    %rdx,%rax
  403e2c:	3e ff e0             	notrack jmpq *%rax
  403e2f:	48 8b 15 72 94 00 00 	mov    0x9472(%rip),%rdx        # 40d2a8 <optarg@@GLIBC_2.2.5>
  403e36:	48 8b 45 e0          	mov    -0x20(%rbp),%rax
  403e3a:	48 89 10             	mov    %rdx,(%rax)
  403e3d:	e9 28 01 00 00       	jmpq   403f6a <client_argv_parser+0x271>
  403e42:	48 8b 05 5f 94 00 00 	mov    0x945f(%rip),%rax        # 40d2a8 <optarg@@GLIBC_2.2.5>
  403e49:	48 89 c7             	mov    %rax,%rdi
  403e4c:	e8 af e9 ff ff       	callq  402800 <atoi@plt>
  403e51:	89 c2                	mov    %eax,%edx
  403e53:	48 8b 45 e0          	mov    -0x20(%rbp),%rax
  403e57:	66 89 50 3a          	mov    %dx,0x3a(%rax)
  403e5b:	e9 0a 01 00 00       	jmpq   403f6a <client_argv_parser+0x271>
  403e60:	48 8b 45 e0          	mov    -0x20(%rbp),%rax
  403e64:	0f b6 40 3c          	movzbl 0x3c(%rax),%eax
  403e68:	8d 50 01             	lea    0x1(%rax),%edx
  403e6b:	48 8b 45 e0          	mov    -0x20(%rbp),%rax
  403e6f:	88 50 3c             	mov    %dl,0x3c(%rax)
  403e72:	e9 f3 00 00 00       	jmpq   403f6a <client_argv_parser+0x271>
  403e77:	48 8b 15 2a 94 00 00 	mov    0x942a(%rip),%rdx        # 40d2a8 <optarg@@GLIBC_2.2.5>
  403e7e:	48 8b 45 e0          	mov    -0x20(%rbp),%rax
  403e82:	48 89 50 08          	mov    %rdx,0x8(%rax)
  403e86:	e9 df 00 00 00       	jmpq   403f6a <client_argv_parser+0x271>
  403e8b:	48 8b 15 16 94 00 00 	mov    0x9416(%rip),%rdx        # 40d2a8 <optarg@@GLIBC_2.2.5>
  403e92:	48 8b 45 e0          	mov    -0x20(%rbp),%rax
  403e96:	48 89 50 28          	mov    %rdx,0x28(%rax)
  403e9a:	48 8b 05 07 94 00 00 	mov    0x9407(%rip),%rax        # 40d2a8 <optarg@@GLIBC_2.2.5>
  403ea1:	48 89 c7             	mov    %rax,%rdi
  403ea4:	e8 c7 e6 ff ff       	callq  402570 <strlen@plt>
  403ea9:	89 c2                	mov    %eax,%edx
  403eab:	48 8b 45 e0          	mov    -0x20(%rbp),%rax
  403eaf:	88 50 38             	mov    %dl,0x38(%rax)
  403eb2:	e9 b3 00 00 00       	jmpq   403f6a <client_argv_parser+0x271>
  403eb7:	48 8b 05 ea 93 00 00 	mov    0x93ea(%rip),%rax        # 40d2a8 <optarg@@GLIBC_2.2.5>
  403ebe:	48 89 c6             	mov    %rax,%rsi
  403ec1:	48 8d 3d 18 94 00 00 	lea    0x9418(%rip),%rdi        # 40d2e0 <_password.4178>
  403ec8:	e8 03 e6 ff ff       	callq  4024d0 <strcpy@plt>
  403ecd:	48 8b 45 e0          	mov    -0x20(%rbp),%rax
  403ed1:	48 8d 15 08 94 00 00 	lea    0x9408(%rip),%rdx        # 40d2e0 <_password.4178>
  403ed8:	48 89 50 30          	mov    %rdx,0x30(%rax)
  403edc:	48 8b 05 c5 93 00 00 	mov    0x93c5(%rip),%rax        # 40d2a8 <optarg@@GLIBC_2.2.5>
  403ee3:	48 89 c7             	mov    %rax,%rdi
  403ee6:	e8 85 e6 ff ff       	callq  402570 <strlen@plt>
  403eeb:	89 c2                	mov    %eax,%edx
  403eed:	48 8b 45 e0          	mov    -0x20(%rbp),%rax
  403ef1:	88 50 39             	mov    %dl,0x39(%rax)
  403ef4:	eb 74                	jmp    403f6a <client_argv_parser+0x271>
  403ef6:	48 8b 15 ab 93 00 00 	mov    0x93ab(%rip),%rdx        # 40d2a8 <optarg@@GLIBC_2.2.5>
  403efd:	48 8b 45 e0          	mov    -0x20(%rbp),%rax
  403f01:	48 89 50 10          	mov    %rdx,0x10(%rax)
  403f05:	eb 63                	jmp    403f6a <client_argv_parser+0x271>
  403f07:	48 8b 05 9a 93 00 00 	mov    0x939a(%rip),%rax        # 40d2a8 <optarg@@GLIBC_2.2.5>
  403f0e:	48 89 c7             	mov    %rax,%rdi
  403f11:	e8 ea e8 ff ff       	callq  402800 <atoi@plt>
  403f16:	89 c2                	mov    %eax,%edx
  403f18:	48 8b 45 e0          	mov    -0x20(%rbp),%rax
  403f1c:	88 50 3c             	mov    %dl,0x3c(%rax)
  403f1f:	eb 49                	jmp    403f6a <client_argv_parser+0x271>
  403f21:	48 8b 15 80 93 00 00 	mov    0x9380(%rip),%rdx        # 40d2a8 <optarg@@GLIBC_2.2.5>
  403f28:	48 8b 45 e0          	mov    -0x20(%rbp),%rax
  403f2c:	48 89 50 18          	mov    %rdx,0x18(%rax)
  403f30:	eb 38                	jmp    403f6a <client_argv_parser+0x271>
  403f32:	48 8b 45 e8          	mov    -0x18(%rbp),%rax
  403f36:	48 89 c7             	mov    %rax,%rdi
  403f39:	e8 d5 01 00 00       	callq  404113 <show_help_client>
  403f3e:	eb 2a                	jmp    403f6a <client_argv_parser+0x271>
  403f40:	48 8b 05 79 93 00 00 	mov    0x9379(%rip),%rax        # 40d2c0 <stderr@@GLIBC_2.2.5>
  403f47:	48 89 c1             	mov    %rax,%rcx
  403f4a:	ba 31 00 00 00       	mov    $0x31,%edx
  403f4f:	be 01 00 00 00       	mov    $0x1,%esi
  403f54:	48 8d 3d 25 53 00 00 	lea    0x5325(%rip),%rdi        # 409280 <_IO_stdin_used+0x280>
  403f5b:	e8 e0 e8 ff ff       	callq  402840 <fwrite@plt>
  403f60:	b8 00 00 00 00       	mov    $0x0,%eax
  403f65:	e9 b3 00 00 00       	jmpq   40401d <client_argv_parser+0x324>
  403f6a:	e9 06 fe ff ff       	jmpq   403d75 <client_argv_parser+0x7c>
  403f6f:	90                   	nop
  403f70:	48 8d 3d 3b 53 00 00 	lea    0x533b(%rip),%rdi        # 4092b2 <_IO_stdin_used+0x2b2>
  403f77:	e8 74 e5 ff ff       	callq  4024f0 <puts@plt>
  403f7c:	48 8b 45 e0          	mov    -0x20(%rbp),%rax
  403f80:	48 8b 00             	mov    (%rax),%rax
  403f83:	48 89 c6             	mov    %rax,%rsi
  403f86:	48 8d 3d 36 53 00 00 	lea    0x5336(%rip),%rdi        # 4092c3 <_IO_stdin_used+0x2c3>
  403f8d:	b8 00 00 00 00       	mov    $0x0,%eax
  403f92:	e8 39 e6 ff ff       	callq  4025d0 <printf@plt>
  403f97:	48 8b 45 e0          	mov    -0x20(%rbp),%rax
  403f9b:	0f b7 40 3a          	movzwl 0x3a(%rax),%eax
  403f9f:	0f b7 c0             	movzwl %ax,%eax
  403fa2:	89 c6                	mov    %eax,%esi
  403fa4:	48 8d 3d 27 53 00 00 	lea    0x5327(%rip),%rdi        # 4092d2 <_IO_stdin_used+0x2d2>
  403fab:	b8 00 00 00 00       	mov    $0x0,%eax
  403fb0:	e8 1b e6 ff ff       	callq  4025d0 <printf@plt>
  403fb5:	48 8b 45 e0          	mov    -0x20(%rbp),%rax
  403fb9:	48 8b 40 10          	mov    0x10(%rax),%rax
  403fbd:	48 89 c6             	mov    %rax,%rsi
  403fc0:	48 8d 3d 27 53 00 00 	lea    0x5327(%rip),%rdi        # 4092ee <_IO_stdin_used+0x2ee>
  403fc7:	b8 00 00 00 00       	mov    $0x0,%eax
  403fcc:	e8 ff e5 ff ff       	callq  4025d0 <printf@plt>
  403fd1:	48 8b 45 e0          	mov    -0x20(%rbp),%rax
  403fd5:	48 8b 40 18          	mov    0x18(%rax),%rax
  403fd9:	48 89 c6             	mov    %rax,%rsi
  403fdc:	48 8d 3d 1f 53 00 00 	lea    0x531f(%rip),%rdi        # 409302 <_IO_stdin_used+0x302>
  403fe3:	b8 00 00 00 00       	mov    $0x0,%eax
  403fe8:	e8 e3 e5 ff ff       	callq  4025d0 <printf@plt>
  403fed:	48 8b 45 e0          	mov    -0x20(%rbp),%rax
  403ff1:	48 8b 40 08          	mov    0x8(%rax),%rax
  403ff5:	48 89 c6             	mov    %rax,%rsi
  403ff8:	48 8d 3d 11 53 00 00 	lea    0x5311(%rip),%rdi        # 409310 <_IO_stdin_used+0x310>
  403fff:	b8 00 00 00 00       	mov    $0x0,%eax
  404004:	e8 c7 e5 ff ff       	callq  4025d0 <printf@plt>
  404009:	48 8b 05 90 92 00 00 	mov    0x9290(%rip),%rax        # 40d2a0 <stdout@@GLIBC_2.2.5>
  404010:	48 89 c7             	mov    %rax,%rdi
  404013:	e8 38 e7 ff ff       	callq  402750 <fflush@plt>
  404018:	b8 01 00 00 00       	mov    $0x1,%eax
  40401d:	48 8b 4d f8          	mov    -0x8(%rbp),%rcx
  404021:	64 48 33 0c 25 28 00 	xor    %fs:0x28,%rcx
  404028:	00 00 
  40402a:	74 05                	je     404031 <client_argv_parser+0x338>
  40402c:	e8 4f e5 ff ff       	callq  402580 <__stack_chk_fail@plt>
  404031:	c9                   	leaveq 
  404032:	c3                   	retq   

0000000000404033 <show_help_command>:
  404033:	f3 0f 1e fa          	endbr64 
  404037:	55                   	push   %rbp
  404038:	48 89 e5             	mov    %rsp,%rbp
  40403b:	48 83 ec 10          	sub    $0x10,%rsp
  40403f:	48 89 7d f8          	mov    %rdi,-0x8(%rbp)
  404043:	48 8b 45 f8          	mov    -0x8(%rbp),%rax
  404047:	48 89 c6             	mov    %rax,%rsi
  40404a:	48 8d 3d c7 53 00 00 	lea    0x53c7(%rip),%rdi        # 409418 <_IO_stdin_used+0x418>
  404051:	b8 00 00 00 00       	mov    $0x0,%eax
  404056:	e8 75 e5 ff ff       	callq  4025d0 <printf@plt>
  40405b:	48 8d 3d d6 53 00 00 	lea    0x53d6(%rip),%rdi        # 409438 <_IO_stdin_used+0x438>
  404062:	e8 89 e4 ff ff       	callq  4024f0 <puts@plt>
  404067:	48 8d 3d de 53 00 00 	lea    0x53de(%rip),%rdi        # 40944c <_IO_stdin_used+0x44c>
  40406e:	e8 7d e4 ff ff       	callq  4024f0 <puts@plt>
  404073:	48 8d 3d f6 53 00 00 	lea    0x53f6(%rip),%rdi        # 409470 <_IO_stdin_used+0x470>
  40407a:	e8 71 e4 ff ff       	callq  4024f0 <puts@plt>
  40407f:	48 8b 45 f8          	mov    -0x8(%rbp),%rax
  404083:	48 89 c6             	mov    %rax,%rsi
  404086:	48 8d 3d 0b 54 00 00 	lea    0x540b(%rip),%rdi        # 409498 <_IO_stdin_used+0x498>
  40408d:	b8 00 00 00 00       	mov    $0x0,%eax
  404092:	e8 39 e5 ff ff       	callq  4025d0 <printf@plt>
  404097:	48 8b 05 02 92 00 00 	mov    0x9202(%rip),%rax        # 40d2a0 <stdout@@GLIBC_2.2.5>
  40409e:	48 89 c7             	mov    %rax,%rdi
  4040a1:	e8 aa e6 ff ff       	callq  402750 <fflush@plt>
  4040a6:	90                   	nop
  4040a7:	c9                   	leaveq 
  4040a8:	c3                   	retq   

00000000004040a9 <show_help_server>:
  4040a9:	f3 0f 1e fa          	endbr64 
  4040ad:	55                   	push   %rbp
  4040ae:	48 89 e5             	mov    %rsp,%rbp
  4040b1:	48 83 ec 10          	sub    $0x10,%rsp
  4040b5:	48 89 7d f8          	mov    %rdi,-0x8(%rbp)
  4040b9:	48 8b 45 f8          	mov    -0x8(%rbp),%rax
  4040bd:	48 89 c6             	mov    %rax,%rsi
  4040c0:	48 8d 3d fd 53 00 00 	lea    0x53fd(%rip),%rdi        # 4094c4 <_IO_stdin_used+0x4c4>
  4040c7:	b8 00 00 00 00       	mov    $0x0,%eax
  4040cc:	e8 ff e4 ff ff       	callq  4025d0 <printf@plt>
  4040d1:	48 8d 3d 09 54 00 00 	lea    0x5409(%rip),%rdi        # 4094e1 <_IO_stdin_used+0x4e1>
  4040d8:	e8 13 e4 ff ff       	callq  4024f0 <puts@plt>
  4040dd:	48 8d 3d 14 54 00 00 	lea    0x5414(%rip),%rdi        # 4094f8 <_IO_stdin_used+0x4f8>
  4040e4:	e8 07 e4 ff ff       	callq  4024f0 <puts@plt>
  4040e9:	48 8d 3d 40 54 00 00 	lea    0x5440(%rip),%rdi        # 409530 <_IO_stdin_used+0x530>
  4040f0:	e8 fb e3 ff ff       	callq  4024f0 <puts@plt>
  4040f5:	48 8d 3d 64 54 00 00 	lea    0x5464(%rip),%rdi        # 409560 <_IO_stdin_used+0x560>
  4040fc:	e8 ef e3 ff ff       	callq  4024f0 <puts@plt>
  404101:	48 8b 05 98 91 00 00 	mov    0x9198(%rip),%rax        # 40d2a0 <stdout@@GLIBC_2.2.5>
  404108:	48 89 c7             	mov    %rax,%rdi
  40410b:	e8 40 e6 ff ff       	callq  402750 <fflush@plt>
  404110:	90                   	nop
  404111:	c9                   	leaveq 
  404112:	c3                   	retq   

0000000000404113 <show_help_client>:
  404113:	f3 0f 1e fa          	endbr64 
  404117:	55                   	push   %rbp
  404118:	48 89 e5             	mov    %rsp,%rbp
  40411b:	48 83 ec 10          	sub    $0x10,%rsp
  40411f:	48 89 7d f8          	mov    %rdi,-0x8(%rbp)
  404123:	48 8b 45 f8          	mov    -0x8(%rbp),%rax
  404127:	48 89 c6             	mov    %rax,%rsi
  40412a:	48 8d 3d 5f 54 00 00 	lea    0x545f(%rip),%rdi        # 409590 <_IO_stdin_used+0x590>
  404131:	b8 00 00 00 00       	mov    $0x0,%eax
  404136:	e8 95 e4 ff ff       	callq  4025d0 <printf@plt>
  40413b:	48 8d 3d 9f 53 00 00 	lea    0x539f(%rip),%rdi        # 4094e1 <_IO_stdin_used+0x4e1>
  404142:	e8 a9 e3 ff ff       	callq  4024f0 <puts@plt>
  404147:	48 8d 3d 62 54 00 00 	lea    0x5462(%rip),%rdi        # 4095b0 <_IO_stdin_used+0x5b0>
  40414e:	e8 9d e3 ff ff       	callq  4024f0 <puts@plt>
  404153:	48 8d 3d d6 53 00 00 	lea    0x53d6(%rip),%rdi        # 409530 <_IO_stdin_used+0x530>
  40415a:	e8 91 e3 ff ff       	callq  4024f0 <puts@plt>
  40415f:	48 8b 05 3a 91 00 00 	mov    0x913a(%rip),%rax        # 40d2a0 <stdout@@GLIBC_2.2.5>
  404166:	48 89 c7             	mov    %rax,%rdi
  404169:	e8 e2 e5 ff ff       	callq  402750 <fflush@plt>
  40416e:	90                   	nop
  40416f:	c9                   	leaveq 
  404170:	c3                   	retq   

0000000000404171 <_teavpn_send_handshake>:
  404171:	f3 0f 1e fa          	endbr64 
  404175:	55                   	push   %rbp
  404176:	48 89 e5             	mov    %rsp,%rbp
  404179:	48 83 ec 10          	sub    $0x10,%rsp
  40417d:	89 7d fc             	mov    %edi,-0x4(%rbp)
  404180:	89 f0                	mov    %esi,%eax
  404182:	48 89 55 f0          	mov    %rdx,-0x10(%rbp)
  404186:	66 89 45 f8          	mov    %ax,-0x8(%rbp)
  40418a:	48 8b 55 f0          	mov    -0x10(%rbp),%rdx
  40418e:	48 8d 75 f8          	lea    -0x8(%rbp),%rsi
  404192:	8b 45 fc             	mov    -0x4(%rbp),%eax
  404195:	41 b9 10 00 00 00    	mov    $0x10,%r9d
  40419b:	49 89 d0             	mov    %rdx,%r8
  40419e:	b9 00 08 00 00       	mov    $0x800,%ecx
  4041a3:	ba 02 00 00 00       	mov    $0x2,%edx
  4041a8:	89 c7                	mov    %eax,%edi
  4041aa:	e8 71 e4 ff ff       	callq  402620 <sendto@plt>
  4041af:	48 83 f8 02          	cmp    $0x2,%rax
  4041b3:	0f 94 c0             	sete   %al
  4041b6:	c9                   	leaveq 
  4041b7:	c3                   	retq   

00000000004041b8 <teavpn_syn>:
  4041b8:	f3 0f 1e fa          	endbr64 
  4041bc:	55                   	push   %rbp
  4041bd:	48 89 e5             	mov    %rsp,%rbp
  4041c0:	48 83 ec 10          	sub    $0x10,%rsp
  4041c4:	89 7d fc             	mov    %edi,-0x4(%rbp)
  4041c7:	48 89 75 f0          	mov    %rsi,-0x10(%rbp)
  4041cb:	48 8b 55 f0          	mov    -0x10(%rbp),%rdx
  4041cf:	8b 45 fc             	mov    -0x4(%rbp),%eax
  4041d2:	be 22 22 00 00       	mov    $0x2222,%esi
  4041d7:	89 c7                	mov    %eax,%edi
  4041d9:	e8 93 ff ff ff       	callq  404171 <_teavpn_send_handshake>
  4041de:	c9                   	leaveq 
  4041df:	c3                   	retq   

00000000004041e0 <teavpn_ack>:
  4041e0:	f3 0f 1e fa          	endbr64 
  4041e4:	55                   	push   %rbp
  4041e5:	48 89 e5             	mov    %rsp,%rbp
  4041e8:	48 83 ec 10          	sub    $0x10,%rsp
  4041ec:	89 7d fc             	mov    %edi,-0x4(%rbp)
  4041ef:	48 89 75 f0          	mov    %rsi,-0x10(%rbp)
  4041f3:	48 8b 55 f0          	mov    -0x10(%rbp),%rdx
  4041f7:	8b 45 fc             	mov    -0x4(%rbp),%eax
  4041fa:	be 11 11 00 00       	mov    $0x1111,%esi
  4041ff:	89 c7                	mov    %eax,%edi
  404201:	e8 6b ff ff ff       	callq  404171 <_teavpn_send_handshake>
  404206:	c9                   	leaveq 
  404207:	c3                   	retq   

0000000000404208 <teavpn_nak>:
  404208:	f3 0f 1e fa          	endbr64 
  40420c:	55                   	push   %rbp
  40420d:	48 89 e5             	mov    %rsp,%rbp
  404210:	48 83 ec 10          	sub    $0x10,%rsp
  404214:	89 7d fc             	mov    %edi,-0x4(%rbp)
  404217:	48 89 75 f0          	mov    %rsi,-0x10(%rbp)
  40421b:	48 8b 55 f0          	mov    -0x10(%rbp),%rdx
  40421f:	8b 45 fc             	mov    -0x4(%rbp),%eax
  404222:	be 33 33 00 00       	mov    $0x3333,%esi
  404227:	89 c7                	mov    %eax,%edi
  404229:	e8 43 ff ff ff       	callq  404171 <_teavpn_send_handshake>
  40422e:	c9                   	leaveq 
  40422f:	c3                   	retq   

0000000000404230 <teavpn_synack>:
  404230:	f3 0f 1e fa          	endbr64 
  404234:	55                   	push   %rbp
  404235:	48 89 e5             	mov    %rsp,%rbp
  404238:	48 83 ec 10          	sub    $0x10,%rsp
  40423c:	89 7d fc             	mov    %edi,-0x4(%rbp)
  40423f:	48 89 75 f0          	mov    %rsi,-0x10(%rbp)
  404243:	48 8b 55 f0          	mov    -0x10(%rbp),%rdx
  404247:	8b 45 fc             	mov    -0x4(%rbp),%eax
  40424a:	be 44 44 00 00       	mov    $0x4444,%esi
  40424f:	89 c7                	mov    %eax,%edi
  404251:	e8 1b ff ff ff       	callq  404171 <_teavpn_send_handshake>
  404256:	c9                   	leaveq 
  404257:	c3                   	retq   

0000000000404258 <get_handshake>:
  404258:	f3 0f 1e fa          	endbr64 
  40425c:	55                   	push   %rbp
  40425d:	48 89 e5             	mov    %rsp,%rbp
  404260:	48 83 ec 30          	sub    $0x30,%rsp
  404264:	89 7d dc             	mov    %edi,-0x24(%rbp)
  404267:	48 89 75 d0          	mov    %rsi,-0x30(%rbp)
  40426b:	64 48 8b 04 25 28 00 	mov    %fs:0x28,%rax
  404272:	00 00 
  404274:	48 89 45 f8          	mov    %rax,-0x8(%rbp)
  404278:	31 c0                	xor    %eax,%eax
  40427a:	48 8b 55 d0          	mov    -0x30(%rbp),%rdx
  40427e:	48 8d 75 ee          	lea    -0x12(%rbp),%rsi
  404282:	8b 45 dc             	mov    -0x24(%rbp),%eax
  404285:	4c 8d 0d e8 8f 00 00 	lea    0x8fe8(%rip),%r9        # 40d274 <remote_len.3678>
  40428c:	49 89 d0             	mov    %rdx,%r8
  40428f:	b9 00 01 00 00       	mov    $0x100,%ecx
  404294:	ba 02 00 00 00       	mov    $0x2,%edx
  404299:	89 c7                	mov    %eax,%edi
  40429b:	e8 d0 e4 ff ff       	callq  402770 <recvfrom@plt>
  4042a0:	48 89 45 f0          	mov    %rax,-0x10(%rbp)
  4042a4:	48 83 7d f0 02       	cmpq   $0x2,-0x10(%rbp)
  4042a9:	74 13                	je     4042be <get_handshake+0x66>
  4042ab:	48 8d 3d 20 53 00 00 	lea    0x5320(%rip),%rdi        # 4095d2 <_IO_stdin_used+0x5d2>
  4042b2:	e8 19 e5 ff ff       	callq  4027d0 <perror@plt>
  4042b7:	b8 00 00 00 00       	mov    $0x0,%eax
  4042bc:	eb 04                	jmp    4042c2 <get_handshake+0x6a>
  4042be:	0f b7 45 ee          	movzwl -0x12(%rbp),%eax
  4042c2:	48 8b 4d f8          	mov    -0x8(%rbp),%rcx
  4042c6:	64 48 33 0c 25 28 00 	xor    %fs:0x28,%rcx
  4042cd:	00 00 
  4042cf:	74 05                	je     4042d6 <get_handshake+0x7e>
  4042d1:	e8 aa e2 ff ff       	callq  402580 <__stack_chk_fail@plt>
  4042d6:	c9                   	leaveq 
  4042d7:	c3                   	retq   

00000000004042d8 <main>:
  4042d8:	f3 0f 1e fa          	endbr64 
  4042dc:	55                   	push   %rbp
  4042dd:	48 89 e5             	mov    %rsp,%rbp
  4042e0:	48 83 c4 80          	add    $0xffffffffffffff80,%rsp
  4042e4:	89 7d 9c             	mov    %edi,-0x64(%rbp)
  4042e7:	48 89 75 90          	mov    %rsi,-0x70(%rbp)
  4042eb:	48 89 55 88          	mov    %rdx,-0x78(%rbp)
  4042ef:	64 48 8b 04 25 28 00 	mov    %fs:0x28,%rax
  4042f6:	00 00 
  4042f8:	48 89 45 f8          	mov    %rax,-0x8(%rbp)
  4042fc:	31 c0                	xor    %eax,%eax
  4042fe:	48 8b 45 90          	mov    -0x70(%rbp),%rax
  404302:	48 89 05 1f 91 00 00 	mov    %rax,0x911f(%rip)        # 40d428 <argv>
  404309:	48 8b 4d 88          	mov    -0x78(%rbp),%rcx
  40430d:	48 8b 55 90          	mov    -0x70(%rbp),%rdx
  404311:	8b 75 9c             	mov    -0x64(%rbp),%esi
  404314:	48 8d 45 b0          	lea    -0x50(%rbp),%rax
  404318:	48 89 c7             	mov    %rax,%rdi
  40431b:	e8 0b f5 ff ff       	callq  40382b <argv_parser>
  404320:	83 f0 01             	xor    $0x1,%eax
  404323:	84 c0                	test   %al,%al
  404325:	74 06                	je     40432d <main+0x55>
  404327:	c6 45 af 01          	movb   $0x1,-0x51(%rbp)
  40432b:	eb 41                	jmp    40436e <main+0x96>
  40432d:	8b 45 f0             	mov    -0x10(%rbp),%eax
  404330:	85 c0                	test   %eax,%eax
  404332:	74 07                	je     40433b <main+0x63>
  404334:	83 f8 01             	cmp    $0x1,%eax
  404337:	74 13                	je     40434c <main+0x74>
  404339:	eb 22                	jmp    40435d <main+0x85>
  40433b:	48 8d 45 b0          	lea    -0x50(%rbp),%rax
  40433f:	48 89 c7             	mov    %rax,%rdi
  404342:	e8 a8 01 00 00       	callq  4044ef <teavpn_tcp_server>
  404347:	88 45 af             	mov    %al,-0x51(%rbp)
  40434a:	eb 22                	jmp    40436e <main+0x96>
  40434c:	48 8d 45 b0          	lea    -0x50(%rbp),%rax
  404350:	48 89 c7             	mov    %rax,%rdi
  404353:	e8 4d 2e 00 00       	callq  4071a5 <teavpn_tcp_client>
  404358:	88 45 af             	mov    %al,-0x51(%rbp)
  40435b:	eb 11                	jmp    40436e <main+0x96>
  40435d:	48 8d 3d 88 52 00 00 	lea    0x5288(%rip),%rdi        # 4095ec <_IO_stdin_used+0x5ec>
  404364:	e8 87 e1 ff ff       	callq  4024f0 <puts@plt>
  404369:	c6 45 af 01          	movb   $0x1,-0x51(%rbp)
  40436d:	90                   	nop
  40436e:	0f b6 45 af          	movzbl -0x51(%rbp),%eax
  404372:	48 8b 4d f8          	mov    -0x8(%rbp),%rcx
  404376:	64 48 33 0c 25 28 00 	xor    %fs:0x28,%rcx
  40437d:	00 00 
  40437f:	74 05                	je     404386 <main+0xae>
  404381:	e8 fa e1 ff ff       	callq  402580 <__stack_chk_fail@plt>
  404386:	c9                   	leaveq 
  404387:	c3                   	retq   

0000000000404388 <_teavpn_send_handshake>:
  404388:	f3 0f 1e fa          	endbr64 
  40438c:	55                   	push   %rbp
  40438d:	48 89 e5             	mov    %rsp,%rbp
  404390:	48 83 ec 10          	sub    $0x10,%rsp
  404394:	89 7d fc             	mov    %edi,-0x4(%rbp)
  404397:	89 f0                	mov    %esi,%eax
  404399:	48 89 55 f0          	mov    %rdx,-0x10(%rbp)
  40439d:	66 89 45 f8          	mov    %ax,-0x8(%rbp)
  4043a1:	48 8b 55 f0          	mov    -0x10(%rbp),%rdx
  4043a5:	48 8d 75 f8          	lea    -0x8(%rbp),%rsi
  4043a9:	8b 45 fc             	mov    -0x4(%rbp),%eax
  4043ac:	41 b9 10 00 00 00    	mov    $0x10,%r9d
  4043b2:	49 89 d0             	mov    %rdx,%r8
  4043b5:	b9 00 08 00 00       	mov    $0x800,%ecx
  4043ba:	ba 02 00 00 00       	mov    $0x2,%edx
  4043bf:	89 c7                	mov    %eax,%edi
  4043c1:	e8 5a e2 ff ff       	callq  402620 <sendto@plt>
  4043c6:	48 83 f8 02          	cmp    $0x2,%rax
  4043ca:	0f 94 c0             	sete   %al
  4043cd:	c9                   	leaveq 
  4043ce:	c3                   	retq   

00000000004043cf <teavpn_syn>:
  4043cf:	f3 0f 1e fa          	endbr64 
  4043d3:	55                   	push   %rbp
  4043d4:	48 89 e5             	mov    %rsp,%rbp
  4043d7:	48 83 ec 10          	sub    $0x10,%rsp
  4043db:	89 7d fc             	mov    %edi,-0x4(%rbp)
  4043de:	48 89 75 f0          	mov    %rsi,-0x10(%rbp)
  4043e2:	48 8b 55 f0          	mov    -0x10(%rbp),%rdx
  4043e6:	8b 45 fc             	mov    -0x4(%rbp),%eax
  4043e9:	be 22 22 00 00       	mov    $0x2222,%esi
  4043ee:	89 c7                	mov    %eax,%edi
  4043f0:	e8 93 ff ff ff       	callq  404388 <_teavpn_send_handshake>
  4043f5:	c9                   	leaveq 
  4043f6:	c3                   	retq   

00000000004043f7 <teavpn_ack>:
  4043f7:	f3 0f 1e fa          	endbr64 
  4043fb:	55                   	push   %rbp
  4043fc:	48 89 e5             	mov    %rsp,%rbp
  4043ff:	48 83 ec 10          	sub    $0x10,%rsp
  404403:	89 7d fc             	mov    %edi,-0x4(%rbp)
  404406:	48 89 75 f0          	mov    %rsi,-0x10(%rbp)
  40440a:	48 8b 55 f0          	mov    -0x10(%rbp),%rdx
  40440e:	8b 45 fc             	mov    -0x4(%rbp),%eax
  404411:	be 11 11 00 00       	mov    $0x1111,%esi
  404416:	89 c7                	mov    %eax,%edi
  404418:	e8 6b ff ff ff       	callq  404388 <_teavpn_send_handshake>
  40441d:	c9                   	leaveq 
  40441e:	c3                   	retq   

000000000040441f <teavpn_nak>:
  40441f:	f3 0f 1e fa          	endbr64 
  404423:	55                   	push   %rbp
  404424:	48 89 e5             	mov    %rsp,%rbp
  404427:	48 83 ec 10          	sub    $0x10,%rsp
  40442b:	89 7d fc             	mov    %edi,-0x4(%rbp)
  40442e:	48 89 75 f0          	mov    %rsi,-0x10(%rbp)
  404432:	48 8b 55 f0          	mov    -0x10(%rbp),%rdx
  404436:	8b 45 fc             	mov    -0x4(%rbp),%eax
  404439:	be 33 33 00 00       	mov    $0x3333,%esi
  40443e:	89 c7                	mov    %eax,%edi
  404440:	e8 43 ff ff ff       	callq  404388 <_teavpn_send_handshake>
  404445:	c9                   	leaveq 
  404446:	c3                   	retq   

0000000000404447 <teavpn_synack>:
  404447:	f3 0f 1e fa          	endbr64 
  40444b:	55                   	push   %rbp
  40444c:	48 89 e5             	mov    %rsp,%rbp
  40444f:	48 83 ec 10          	sub    $0x10,%rsp
  404453:	89 7d fc             	mov    %edi,-0x4(%rbp)
  404456:	48 89 75 f0          	mov    %rsi,-0x10(%rbp)
  40445a:	48 8b 55 f0          	mov    -0x10(%rbp),%rdx
  40445e:	8b 45 fc             	mov    -0x4(%rbp),%eax
  404461:	be 44 44 00 00       	mov    $0x4444,%esi
  404466:	89 c7                	mov    %eax,%edi
  404468:	e8 1b ff ff ff       	callq  404388 <_teavpn_send_handshake>
  40446d:	c9                   	leaveq 
  40446e:	c3                   	retq   

000000000040446f <get_handshake>:
  40446f:	f3 0f 1e fa          	endbr64 
  404473:	55                   	push   %rbp
  404474:	48 89 e5             	mov    %rsp,%rbp
  404477:	48 83 ec 30          	sub    $0x30,%rsp
  40447b:	89 7d dc             	mov    %edi,-0x24(%rbp)
  40447e:	48 89 75 d0          	mov    %rsi,-0x30(%rbp)
  404482:	64 48 8b 04 25 28 00 	mov    %fs:0x28,%rax
  404489:	00 00 
  40448b:	48 89 45 f8          	mov    %rax,-0x8(%rbp)
  40448f:	31 c0                	xor    %eax,%eax
  404491:	48 8b 55 d0          	mov    -0x30(%rbp),%rdx
  404495:	48 8d 75 ee          	lea    -0x12(%rbp),%rsi
  404499:	8b 45 dc             	mov    -0x24(%rbp),%eax
  40449c:	4c 8d 0d d5 8d 00 00 	lea    0x8dd5(%rip),%r9        # 40d278 <remote_len.6427>
  4044a3:	49 89 d0             	mov    %rdx,%r8
  4044a6:	b9 00 01 00 00       	mov    $0x100,%ecx
  4044ab:	ba 02 00 00 00       	mov    $0x2,%edx
  4044b0:	89 c7                	mov    %eax,%edi
  4044b2:	e8 b9 e2 ff ff       	callq  402770 <recvfrom@plt>
  4044b7:	48 89 45 f0          	mov    %rax,-0x10(%rbp)
  4044bb:	48 83 7d f0 02       	cmpq   $0x2,-0x10(%rbp)
  4044c0:	74 13                	je     4044d5 <get_handshake+0x66>
  4044c2:	48 8d 3d 37 51 00 00 	lea    0x5137(%rip),%rdi        # 409600 <_IO_stdin_used+0x600>
  4044c9:	e8 02 e3 ff ff       	callq  4027d0 <perror@plt>
  4044ce:	b8 00 00 00 00       	mov    $0x0,%eax
  4044d3:	eb 04                	jmp    4044d9 <get_handshake+0x6a>
  4044d5:	0f b7 45 ee          	movzwl -0x12(%rbp),%eax
  4044d9:	48 8b 4d f8          	mov    -0x8(%rbp),%rcx
  4044dd:	64 48 33 0c 25 28 00 	xor    %fs:0x28,%rcx
  4044e4:	00 00 
  4044e6:	74 05                	je     4044ed <get_handshake+0x7e>
  4044e8:	e8 93 e0 ff ff       	callq  402580 <__stack_chk_fail@plt>
  4044ed:	c9                   	leaveq 
  4044ee:	c3                   	retq   

00000000004044ef <teavpn_tcp_server>:
  4044ef:	f3 0f 1e fa          	endbr64 
  4044f3:	4c 8d 54 24 08       	lea    0x8(%rsp),%r10
  4044f8:	48 83 e4 f0          	and    $0xfffffffffffffff0,%rsp
  4044fc:	41 ff 72 f8          	pushq  -0x8(%r10)
  404500:	55                   	push   %rbp
  404501:	48 89 e5             	mov    %rsp,%rbp
  404504:	41 57                	push   %r15
  404506:	41 56                	push   %r14
  404508:	41 55                	push   %r13
  40450a:	41 54                	push   %r12
  40450c:	41 52                	push   %r10
  40450e:	53                   	push   %rbx
  40450f:	4c 8d 9c 24 00 60 fe 	lea    -0x1a000(%rsp),%r11
  404516:	ff 
  404517:	48 81 ec 00 10 00 00 	sub    $0x1000,%rsp
  40451e:	48 83 0c 24 00       	orq    $0x0,(%rsp)
  404523:	4c 39 dc             	cmp    %r11,%rsp
  404526:	75 ef                	jne    404517 <teavpn_tcp_server+0x28>
  404528:	48 81 ec 10 03 00 00 	sub    $0x310,%rsp
  40452f:	48 89 bd c8 5c fe ff 	mov    %rdi,-0x1a338(%rbp)
  404536:	64 48 8b 04 25 28 00 	mov    %fs:0x28,%rax
  40453d:	00 00 
  40453f:	48 89 45 c8          	mov    %rax,-0x38(%rbp)
  404543:	31 c0                	xor    %eax,%eax
  404545:	48 89 e0             	mov    %rsp,%rax
  404548:	48 89 85 c0 5c fe ff 	mov    %rax,-0x1a340(%rbp)
  40454f:	48 8d 85 a0 5d fe ff 	lea    -0x1a260(%rbp),%rax
  404556:	48 89 05 9b 8e 00 00 	mov    %rax,0x8e9b(%rip)        # 40d3f8 <queues>
  40455d:	48 8d 85 20 6b fe ff 	lea    -0x194e0(%rbp),%rax
  404564:	48 89 05 95 8e 00 00 	mov    %rax,0x8e95(%rip)        # 40d400 <bufchan>
  40456b:	48 8d 85 a0 63 fe ff 	lea    -0x19c60(%rbp),%rax
  404572:	48 89 05 8f 8e 00 00 	mov    %rax,0x8e8f(%rip)        # 40d408 <connections>
  404579:	48 8b 95 c8 5c fe ff 	mov    -0x1a338(%rbp),%rdx
  404580:	48 8d 85 c0 ef ff ff 	lea    -0x1040(%rbp),%rax
  404587:	48 89 d6             	mov    %rdx,%rsi
  40458a:	48 89 c7             	mov    %rax,%rdi
  40458d:	e8 a4 0e 00 00       	callq  405436 <teavpn_tcp_server_init>
  404592:	84 c0                	test   %al,%al
  404594:	74 0a                	je     4045a0 <teavpn_tcp_server+0xb1>
  404596:	b8 01 00 00 00       	mov    $0x1,%eax
  40459b:	e9 78 0d 00 00       	jmpq   405318 <teavpn_tcp_server+0xe29>
  4045a0:	48 8b 85 c8 5c fe ff 	mov    -0x1a338(%rbp),%rax
  4045a7:	0f b6 40 3d          	movzbl 0x3d(%rax),%eax
  4045ab:	88 05 3f 8e 00 00    	mov    %al,0x8e3f(%rip)        # 40d3f0 <thread_amount>
  4045b1:	0f b6 0d 38 8e 00 00 	movzbl 0x8e38(%rip),%ecx        # 40d3f0 <thread_amount>
  4045b8:	0f b6 c1             	movzbl %cl,%eax
  4045bb:	48 83 e8 01          	sub    $0x1,%rax
  4045bf:	48 89 85 f0 5c fe ff 	mov    %rax,-0x1a310(%rbp)
  4045c6:	0f b6 c1             	movzbl %cl,%eax
  4045c9:	49 89 c6             	mov    %rax,%r14
  4045cc:	41 bf 00 00 00 00    	mov    $0x0,%r15d
  4045d2:	49 69 d7 40 03 00 00 	imul   $0x340,%r15,%rdx
  4045d9:	49 6b c6 00          	imul   $0x0,%r14,%rax
  4045dd:	48 8d 34 02          	lea    (%rdx,%rax,1),%rsi
  4045e1:	b8 40 03 00 00       	mov    $0x340,%eax
  4045e6:	49 f7 e6             	mul    %r14
  4045e9:	48 01 d6             	add    %rdx,%rsi
  4045ec:	48 89 f2             	mov    %rsi,%rdx
  4045ef:	0f b6 d1             	movzbl %cl,%edx
  4045f2:	48 89 d0             	mov    %rdx,%rax
  4045f5:	48 01 c0             	add    %rax,%rax
  4045f8:	48 01 d0             	add    %rdx,%rax
  4045fb:	48 c1 e0 02          	shl    $0x2,%rax
  4045ff:	48 01 d0             	add    %rdx,%rax
  404602:	48 c1 e0 03          	shl    $0x3,%rax
  404606:	0f b6 c1             	movzbl %cl,%eax
  404609:	49 89 c4             	mov    %rax,%r12
  40460c:	41 bd 00 00 00 00    	mov    $0x0,%r13d
  404612:	49 69 d5 40 03 00 00 	imul   $0x340,%r13,%rdx
  404619:	49 6b c4 00          	imul   $0x0,%r12,%rax
  40461d:	48 8d 34 02          	lea    (%rdx,%rax,1),%rsi
  404621:	b8 40 03 00 00       	mov    $0x340,%eax
  404626:	49 f7 e4             	mul    %r12
  404629:	48 01 d6             	add    %rdx,%rsi
  40462c:	48 89 f2             	mov    %rsi,%rdx
  40462f:	0f b6 d1             	movzbl %cl,%edx
  404632:	48 89 d0             	mov    %rdx,%rax
  404635:	48 01 c0             	add    %rax,%rax
  404638:	48 01 d0             	add    %rdx,%rax
  40463b:	48 c1 e0 02          	shl    $0x2,%rax
  40463f:	48 01 d0             	add    %rdx,%rax
  404642:	48 c1 e0 03          	shl    $0x3,%rax
  404646:	48 89 c2             	mov    %rax,%rdx
  404649:	b8 10 00 00 00       	mov    $0x10,%eax
  40464e:	48 83 e8 01          	sub    $0x1,%rax
  404652:	48 01 d0             	add    %rdx,%rax
  404655:	bb 10 00 00 00       	mov    $0x10,%ebx
  40465a:	ba 00 00 00 00       	mov    $0x0,%edx
  40465f:	48 f7 f3             	div    %rbx
  404662:	48 6b c0 10          	imul   $0x10,%rax,%rax
  404666:	48 89 c2             	mov    %rax,%rdx
  404669:	48 81 e2 00 f0 ff ff 	and    $0xfffffffffffff000,%rdx
  404670:	48 89 e3             	mov    %rsp,%rbx
  404673:	48 29 d3             	sub    %rdx,%rbx
  404676:	48 89 da             	mov    %rbx,%rdx
  404679:	48 39 d4             	cmp    %rdx,%rsp
  40467c:	74 12                	je     404690 <teavpn_tcp_server+0x1a1>
  40467e:	48 81 ec 00 10 00 00 	sub    $0x1000,%rsp
  404685:	48 83 8c 24 f8 0f 00 	orq    $0x0,0xff8(%rsp)
  40468c:	00 00 
  40468e:	eb e9                	jmp    404679 <teavpn_tcp_server+0x18a>
  404690:	48 89 c2             	mov    %rax,%rdx
  404693:	81 e2 ff 0f 00 00    	and    $0xfff,%edx
  404699:	48 29 d4             	sub    %rdx,%rsp
  40469c:	48 89 c2             	mov    %rax,%rdx
  40469f:	81 e2 ff 0f 00 00    	and    $0xfff,%edx
  4046a5:	48 85 d2             	test   %rdx,%rdx
  4046a8:	74 10                	je     4046ba <teavpn_tcp_server+0x1cb>
  4046aa:	25 ff 0f 00 00       	and    $0xfff,%eax
  4046af:	48 83 e8 08          	sub    $0x8,%rax
  4046b3:	48 01 e0             	add    %rsp,%rax
  4046b6:	48 83 08 00          	orq    $0x0,(%rax)
  4046ba:	48 89 e0             	mov    %rsp,%rax
  4046bd:	48 83 c0 07          	add    $0x7,%rax
  4046c1:	48 c1 e8 03          	shr    $0x3,%rax
  4046c5:	48 c1 e0 03          	shl    $0x3,%rax
  4046c9:	48 89 85 f8 5c fe ff 	mov    %rax,-0x1a308(%rbp)
  4046d0:	48 8b 85 f8 5c fe ff 	mov    -0x1a308(%rbp),%rax
  4046d7:	48 89 05 32 8d 00 00 	mov    %rax,0x8d32(%rip)        # 40d410 <workers>
  4046de:	0f b6 05 0b 8d 00 00 	movzbl 0x8d0b(%rip),%eax        # 40d3f0 <thread_amount>
  4046e5:	3c 02                	cmp    $0x2,%al
  4046e7:	77 22                	ja     40470b <teavpn_tcp_server+0x21c>
  4046e9:	0f b6 05 00 8d 00 00 	movzbl 0x8d00(%rip),%eax        # 40d3f0 <thread_amount>
  4046f0:	0f b6 c0             	movzbl %al,%eax
  4046f3:	89 c6                	mov    %eax,%esi
  4046f5:	48 8d 3d 24 4f 00 00 	lea    0x4f24(%rip),%rdi        # 409620 <_IO_stdin_used+0x620>
  4046fc:	b8 00 00 00 00       	mov    $0x0,%eax
  404701:	e8 fe 3a 00 00       	callq  408204 <__internal_debug_log>
  404706:	e9 d4 0b 00 00       	jmpq   4052df <teavpn_tcp_server+0xdf0>
  40470b:	bb 00 00 00 00       	mov    $0x0,%ebx
  404710:	e9 b6 01 00 00       	jmpq   4048cb <teavpn_tcp_server+0x3dc>
  404715:	48 b8 74 65 61 76 70 	movabs $0x772d6e7076616574,%rax
  40471c:	6e 2d 77 
  40471f:	48 ba 6f 72 6b 65 72 	movabs $0x78785f72656b726f,%rdx
  404726:	5f 78 78 
  404729:	48 89 85 a0 ef ff ff 	mov    %rax,-0x1060(%rbp)
  404730:	48 89 95 a8 ef ff ff 	mov    %rdx,-0x1058(%rbp)
  404737:	66 c7 85 b0 ef ff ff 	movw   $0x78,-0x1050(%rbp)
  40473e:	78 00 
  404740:	48 8b 0d c9 8c 00 00 	mov    0x8cc9(%rip),%rcx        # 40d410 <workers>
  404747:	0f b6 d3             	movzbl %bl,%edx
  40474a:	48 89 d0             	mov    %rdx,%rax
  40474d:	48 01 c0             	add    %rax,%rax
  404750:	48 01 d0             	add    %rdx,%rax
  404753:	48 c1 e0 02          	shl    $0x2,%rax
  404757:	48 01 d0             	add    %rdx,%rax
  40475a:	48 c1 e0 03          	shl    $0x3,%rax
  40475e:	48 01 c8             	add    %rcx,%rax
  404761:	c6 00 00             	movb   $0x0,(%rax)
  404764:	48 8b 0d a5 8c 00 00 	mov    0x8ca5(%rip),%rcx        # 40d410 <workers>
  40476b:	0f b6 d3             	movzbl %bl,%edx
  40476e:	48 89 d0             	mov    %rdx,%rax
  404771:	48 01 c0             	add    %rax,%rax
  404774:	48 01 d0             	add    %rdx,%rax
  404777:	48 c1 e0 02          	shl    $0x2,%rax
  40477b:	48 01 d0             	add    %rdx,%rax
  40477e:	48 c1 e0 03          	shl    $0x3,%rax
  404782:	48 01 c8             	add    %rcx,%rax
  404785:	88 58 01             	mov    %bl,0x1(%rax)
  404788:	48 8b 0d 81 8c 00 00 	mov    0x8c81(%rip),%rcx        # 40d410 <workers>
  40478f:	0f b6 d3             	movzbl %bl,%edx
  404792:	48 89 d0             	mov    %rdx,%rax
  404795:	48 01 c0             	add    %rax,%rax
  404798:	48 01 d0             	add    %rdx,%rax
  40479b:	48 c1 e0 02          	shl    $0x2,%rax
  40479f:	48 01 d0             	add    %rdx,%rax
  4047a2:	48 c1 e0 03          	shl    $0x3,%rax
  4047a6:	48 01 c8             	add    %rcx,%rax
  4047a9:	48 83 c0 38          	add    $0x38,%rax
  4047ad:	be 00 00 00 00       	mov    $0x0,%esi
  4047b2:	48 89 c7             	mov    %rax,%rdi
  4047b5:	e8 66 df ff ff       	callq  402720 <pthread_cond_init@plt>
  4047ba:	48 8b 0d 4f 8c 00 00 	mov    0x8c4f(%rip),%rcx        # 40d410 <workers>
  4047c1:	0f b6 d3             	movzbl %bl,%edx
  4047c4:	48 89 d0             	mov    %rdx,%rax
  4047c7:	48 01 c0             	add    %rax,%rax
  4047ca:	48 01 d0             	add    %rdx,%rax
  4047cd:	48 c1 e0 02          	shl    $0x2,%rax
  4047d1:	48 01 d0             	add    %rdx,%rax
  4047d4:	48 c1 e0 03          	shl    $0x3,%rax
  4047d8:	48 01 c8             	add    %rcx,%rax
  4047db:	48 83 c0 10          	add    $0x10,%rax
  4047df:	be 00 00 00 00       	mov    $0x0,%esi
  4047e4:	48 89 c7             	mov    %rax,%rdi
  4047e7:	e8 74 e0 ff ff       	callq  402860 <pthread_mutex_init@plt>
  4047ec:	48 8b 0d 1d 8c 00 00 	mov    0x8c1d(%rip),%rcx        # 40d410 <workers>
  4047f3:	0f b6 d3             	movzbl %bl,%edx
  4047f6:	48 89 d0             	mov    %rdx,%rax
  4047f9:	48 01 c0             	add    %rax,%rax
  4047fc:	48 01 d0             	add    %rdx,%rax
  4047ff:	48 c1 e0 02          	shl    $0x2,%rax
  404803:	48 01 d0             	add    %rdx,%rax
  404806:	48 c1 e0 03          	shl    $0x3,%rax
  40480a:	48 01 c1             	add    %rax,%rcx
  40480d:	48 8b 35 fc 8b 00 00 	mov    0x8bfc(%rip),%rsi        # 40d410 <workers>
  404814:	0f b6 d3             	movzbl %bl,%edx
  404817:	48 89 d0             	mov    %rdx,%rax
  40481a:	48 01 c0             	add    %rax,%rax
  40481d:	48 01 d0             	add    %rdx,%rax
  404820:	48 c1 e0 02          	shl    $0x2,%rax
  404824:	48 01 d0             	add    %rdx,%rax
  404827:	48 c1 e0 03          	shl    $0x3,%rax
  40482b:	48 01 f0             	add    %rsi,%rax
  40482e:	48 83 c0 08          	add    $0x8,%rax
  404832:	48 8d 15 0f 0b 00 00 	lea    0xb0f(%rip),%rdx        # 405348 <teavpn_tcp_worker_thread>
  404839:	be 00 00 00 00       	mov    $0x0,%esi
  40483e:	48 89 c7             	mov    %rax,%rdi
  404841:	e8 3a dc ff ff       	callq  402480 <pthread_create@plt>
  404846:	48 8b 0d c3 8b 00 00 	mov    0x8bc3(%rip),%rcx        # 40d410 <workers>
  40484d:	0f b6 d3             	movzbl %bl,%edx
  404850:	48 89 d0             	mov    %rdx,%rax
  404853:	48 01 c0             	add    %rax,%rax
  404856:	48 01 d0             	add    %rdx,%rax
  404859:	48 c1 e0 02          	shl    $0x2,%rax
  40485d:	48 01 d0             	add    %rdx,%rax
  404860:	48 c1 e0 03          	shl    $0x3,%rax
  404864:	48 01 c8             	add    %rcx,%rax
  404867:	48 8b 40 08          	mov    0x8(%rax),%rax
  40486b:	48 89 c7             	mov    %rax,%rdi
  40486e:	e8 1d dc ff ff       	callq  402490 <pthread_detach@plt>
  404873:	0f b6 d3             	movzbl %bl,%edx
  404876:	48 8d 85 a0 ef ff ff 	lea    -0x1060(%rbp),%rax
  40487d:	48 8d 35 c6 4d 00 00 	lea    0x4dc6(%rip),%rsi        # 40964a <_IO_stdin_used+0x64a>
  404884:	48 89 c7             	mov    %rax,%rdi
  404887:	b8 00 00 00 00       	mov    $0x0,%eax
  40488c:	e8 7f df ff ff       	callq  402810 <sprintf@plt>
  404891:	48 8b 0d 78 8b 00 00 	mov    0x8b78(%rip),%rcx        # 40d410 <workers>
  404898:	0f b6 d3             	movzbl %bl,%edx
  40489b:	48 89 d0             	mov    %rdx,%rax
  40489e:	48 01 c0             	add    %rax,%rax
  4048a1:	48 01 d0             	add    %rdx,%rax
  4048a4:	48 c1 e0 02          	shl    $0x2,%rax
  4048a8:	48 01 d0             	add    %rdx,%rax
  4048ab:	48 c1 e0 03          	shl    $0x3,%rax
  4048af:	48 01 c8             	add    %rcx,%rax
  4048b2:	48 8b 40 08          	mov    0x8(%rax),%rax
  4048b6:	48 8d 95 a0 ef ff ff 	lea    -0x1060(%rbp),%rdx
  4048bd:	48 89 d6             	mov    %rdx,%rsi
  4048c0:	48 89 c7             	mov    %rax,%rdi
  4048c3:	e8 28 de ff ff       	callq  4026f0 <pthread_setname_np@plt>
  4048c8:	83 c3 01             	add    $0x1,%ebx
  4048cb:	48 8b 85 c8 5c fe ff 	mov    -0x1a338(%rbp),%rax
  4048d2:	0f b6 40 3d          	movzbl 0x3d(%rax),%eax
  4048d6:	38 c3                	cmp    %al,%bl
  4048d8:	0f 82 37 fe ff ff    	jb     404715 <teavpn_tcp_server+0x226>
  4048de:	48 8d 85 10 5d fe ff 	lea    -0x1a2f0(%rbp),%rax
  4048e5:	ba 10 00 00 00       	mov    $0x10,%edx
  4048ea:	be 00 00 00 00       	mov    $0x0,%esi
  4048ef:	48 89 c7             	mov    %rax,%rdi
  4048f2:	e8 09 dd ff ff       	callq  402600 <memset@plt>
  4048f7:	66 c7 85 10 5d fe ff 	movw   $0x2,-0x1a2f0(%rbp)
  4048fe:	02 00 
  404900:	48 8b 85 c8 5c fe ff 	mov    -0x1a338(%rbp),%rax
  404907:	0f b7 40 3a          	movzwl 0x3a(%rax),%eax
  40490b:	0f b7 c0             	movzwl %ax,%eax
  40490e:	89 c7                	mov    %eax,%edi
  404910:	e8 ab dc ff ff       	callq  4025c0 <htons@plt>
  404915:	66 89 85 12 5d fe ff 	mov    %ax,-0x1a2ee(%rbp)
  40491c:	48 8b 85 c8 5c fe ff 	mov    -0x1a338(%rbp),%rax
  404923:	48 8b 00             	mov    (%rax),%rax
  404926:	48 89 c7             	mov    %rax,%rdi
  404929:	e8 62 dd ff ff       	callq  402690 <inet_addr@plt>
  40492e:	89 85 14 5d fe ff    	mov    %eax,-0x1a2ec(%rbp)
  404934:	48 8d 85 10 5d fe ff 	lea    -0x1a2f0(%rbp),%rax
  40493b:	48 89 c1             	mov    %rax,%rcx
  40493e:	8b 05 a0 8a 00 00    	mov    0x8aa0(%rip),%eax        # 40d3e4 <net_fd>
  404944:	ba 10 00 00 00       	mov    $0x10,%edx
  404949:	48 89 ce             	mov    %rcx,%rsi
  40494c:	89 c7                	mov    %eax,%edi
  40494e:	e8 3d de ff ff       	callq  402790 <bind@plt>
  404953:	85 c0                	test   %eax,%eax
  404955:	79 22                	jns    404979 <teavpn_tcp_server+0x48a>
  404957:	48 8d 3d fd 4c 00 00 	lea    0x4cfd(%rip),%rdi        # 40965b <_IO_stdin_used+0x65b>
  40495e:	b8 00 00 00 00       	mov    $0x0,%eax
  404963:	e8 9c 38 00 00       	callq  408204 <__internal_debug_log>
  404968:	48 8d 3d ff 4c 00 00 	lea    0x4cff(%rip),%rdi        # 40966e <_IO_stdin_used+0x66e>
  40496f:	e8 5c de ff ff       	callq  4027d0 <perror@plt>
  404974:	e9 66 09 00 00       	jmpq   4052df <teavpn_tcp_server+0xdf0>
  404979:	8b 05 65 8a 00 00    	mov    0x8a65(%rip),%eax        # 40d3e4 <net_fd>
  40497f:	be 03 00 00 00       	mov    $0x3,%esi
  404984:	89 c7                	mov    %eax,%edi
  404986:	e8 d5 dd ff ff       	callq  402760 <listen@plt>
  40498b:	85 c0                	test   %eax,%eax
  40498d:	79 22                	jns    4049b1 <teavpn_tcp_server+0x4c2>
  40498f:	48 8d 3d e4 4c 00 00 	lea    0x4ce4(%rip),%rdi        # 40967a <_IO_stdin_used+0x67a>
  404996:	b8 00 00 00 00       	mov    $0x0,%eax
  40499b:	e8 64 38 00 00       	callq  408204 <__internal_debug_log>
  4049a0:	48 8d 3d e8 4c 00 00 	lea    0x4ce8(%rip),%rdi        # 40968f <_IO_stdin_used+0x68f>
  4049a7:	e8 24 de ff ff       	callq  4027d0 <perror@plt>
  4049ac:	e9 2e 09 00 00       	jmpq   4052df <teavpn_tcp_server+0xdf0>
  4049b1:	be 01 00 00 00       	mov    $0x1,%esi
  4049b6:	bf 0d 00 00 00       	mov    $0xd,%edi
  4049bb:	e8 f0 dc ff ff       	callq  4026b0 <signal@plt>
  4049c0:	48 8b 95 c8 5c fe ff 	mov    -0x1a338(%rbp),%rdx
  4049c7:	48 8d 85 e8 5c fe ff 	lea    -0x1a318(%rbp),%rax
  4049ce:	48 89 d1             	mov    %rdx,%rcx
  4049d1:	48 8d 15 bd 09 00 00 	lea    0x9bd(%rip),%rdx        # 405395 <teavpn_tcp_accept_worker_thread>
  4049d8:	be 00 00 00 00       	mov    $0x0,%esi
  4049dd:	48 89 c7             	mov    %rax,%rdi
  4049e0:	e8 9b da ff ff       	callq  402480 <pthread_create@plt>
  4049e5:	48 8b 85 e8 5c fe ff 	mov    -0x1a318(%rbp),%rax
  4049ec:	48 8d 35 aa 4c 00 00 	lea    0x4caa(%rip),%rsi        # 40969d <_IO_stdin_used+0x69d>
  4049f3:	48 89 c7             	mov    %rax,%rdi
  4049f6:	e8 f5 dc ff ff       	callq  4026f0 <pthread_setname_np@plt>
  4049fb:	48 8b 85 e8 5c fe ff 	mov    -0x1a318(%rbp),%rax
  404a02:	48 89 c7             	mov    %rax,%rdi
  404a05:	e8 86 da ff ff       	callq  402490 <pthread_detach@plt>
  404a0a:	48 8b 85 c8 5c fe ff 	mov    -0x1a338(%rbp),%rax
  404a11:	0f b7 40 3a          	movzwl 0x3a(%rax),%eax
  404a15:	0f b7 d0             	movzwl %ax,%edx
  404a18:	48 8b 85 c8 5c fe ff 	mov    -0x1a338(%rbp),%rax
  404a1f:	48 8b 00             	mov    (%rax),%rax
  404a22:	48 89 c6             	mov    %rax,%rsi
  404a25:	48 8d 3d 7f 4c 00 00 	lea    0x4c7f(%rip),%rdi        # 4096ab <_IO_stdin_used+0x6ab>
  404a2c:	b8 00 00 00 00       	mov    $0x0,%eax
  404a31:	e8 ce 37 00 00       	callq  408204 <__internal_debug_log>
  404a36:	8b 15 a4 89 00 00    	mov    0x89a4(%rip),%edx        # 40d3e0 <tap_fd>
  404a3c:	8b 05 a2 89 00 00    	mov    0x89a2(%rip),%eax        # 40d3e4 <net_fd>
  404a42:	39 c2                	cmp    %eax,%edx
  404a44:	7e 10                	jle    404a56 <teavpn_tcp_server+0x567>
  404a46:	8b 15 9c 89 00 00    	mov    0x899c(%rip),%edx        # 40d3e8 <m_pipe_fd>
  404a4c:	8b 05 8e 89 00 00    	mov    0x898e(%rip),%eax        # 40d3e0 <tap_fd>
  404a52:	39 c2                	cmp    %eax,%edx
  404a54:	7c 13                	jl     404a69 <teavpn_tcp_server+0x57a>
  404a56:	8b 15 8c 89 00 00    	mov    0x898c(%rip),%edx        # 40d3e8 <m_pipe_fd>
  404a5c:	8b 05 82 89 00 00    	mov    0x8982(%rip),%eax        # 40d3e4 <net_fd>
  404a62:	39 c2                	cmp    %eax,%edx
  404a64:	0f 4d c2             	cmovge %edx,%eax
  404a67:	eb 06                	jmp    404a6f <teavpn_tcp_server+0x580>
  404a69:	8b 05 71 89 00 00    	mov    0x8971(%rip),%eax        # 40d3e0 <tap_fd>
  404a6f:	89 85 d8 5c fe ff    	mov    %eax,-0x1a328(%rbp)
  404a75:	b8 00 00 00 00       	mov    $0x0,%eax
  404a7a:	b9 10 00 00 00       	mov    $0x10,%ecx
  404a7f:	48 8d 95 20 5d fe ff 	lea    -0x1a2e0(%rbp),%rdx
  404a86:	48 89 d7             	mov    %rdx,%rdi
  404a89:	fc                   	cld    
  404a8a:	f3 48 ab             	rep stos %rax,%es:(%rdi)
  404a8d:	89 f8                	mov    %edi,%eax
  404a8f:	89 ca                	mov    %ecx,%edx
  404a91:	89 95 dc 5c fe ff    	mov    %edx,-0x1a324(%rbp)
  404a97:	89 85 e0 5c fe ff    	mov    %eax,-0x1a320(%rbp)
  404a9d:	8b 05 41 89 00 00    	mov    0x8941(%rip),%eax        # 40d3e4 <net_fd>
  404aa3:	8d 50 3f             	lea    0x3f(%rax),%edx
  404aa6:	85 c0                	test   %eax,%eax
  404aa8:	0f 48 c2             	cmovs  %edx,%eax
  404aab:	c1 f8 06             	sar    $0x6,%eax
  404aae:	89 c6                	mov    %eax,%esi
  404ab0:	48 63 c6             	movslq %esi,%rax
  404ab3:	48 8b bc c5 20 5d fe 	mov    -0x1a2e0(%rbp,%rax,8),%rdi
  404aba:	ff 
  404abb:	8b 05 23 89 00 00    	mov    0x8923(%rip),%eax        # 40d3e4 <net_fd>
  404ac1:	99                   	cltd   
  404ac2:	c1 ea 1a             	shr    $0x1a,%edx
  404ac5:	01 d0                	add    %edx,%eax
  404ac7:	83 e0 3f             	and    $0x3f,%eax
  404aca:	29 d0                	sub    %edx,%eax
  404acc:	ba 01 00 00 00       	mov    $0x1,%edx
  404ad1:	89 c1                	mov    %eax,%ecx
  404ad3:	48 d3 e2             	shl    %cl,%rdx
  404ad6:	48 89 d0             	mov    %rdx,%rax
  404ad9:	48 09 c7             	or     %rax,%rdi
  404adc:	48 89 fa             	mov    %rdi,%rdx
  404adf:	48 63 c6             	movslq %esi,%rax
  404ae2:	48 89 94 c5 20 5d fe 	mov    %rdx,-0x1a2e0(%rbp,%rax,8)
  404ae9:	ff 
  404aea:	8b 05 f0 88 00 00    	mov    0x88f0(%rip),%eax        # 40d3e0 <tap_fd>
  404af0:	8d 50 3f             	lea    0x3f(%rax),%edx
  404af3:	85 c0                	test   %eax,%eax
  404af5:	0f 48 c2             	cmovs  %edx,%eax
  404af8:	c1 f8 06             	sar    $0x6,%eax
  404afb:	89 c6                	mov    %eax,%esi
  404afd:	48 63 c6             	movslq %esi,%rax
  404b00:	48 8b bc c5 20 5d fe 	mov    -0x1a2e0(%rbp,%rax,8),%rdi
  404b07:	ff 
  404b08:	8b 05 d2 88 00 00    	mov    0x88d2(%rip),%eax        # 40d3e0 <tap_fd>
  404b0e:	99                   	cltd   
  404b0f:	c1 ea 1a             	shr    $0x1a,%edx
  404b12:	01 d0                	add    %edx,%eax
  404b14:	83 e0 3f             	and    $0x3f,%eax
  404b17:	29 d0                	sub    %edx,%eax
  404b19:	ba 01 00 00 00       	mov    $0x1,%edx
  404b1e:	89 c1                	mov    %eax,%ecx
  404b20:	48 d3 e2             	shl    %cl,%rdx
  404b23:	48 89 d0             	mov    %rdx,%rax
  404b26:	48 09 c7             	or     %rax,%rdi
  404b29:	48 89 fa             	mov    %rdi,%rdx
  404b2c:	48 63 c6             	movslq %esi,%rax
  404b2f:	48 89 94 c5 20 5d fe 	mov    %rdx,-0x1a2e0(%rbp,%rax,8)
  404b36:	ff 
  404b37:	8b 05 ab 88 00 00    	mov    0x88ab(%rip),%eax        # 40d3e8 <m_pipe_fd>
  404b3d:	8d 50 3f             	lea    0x3f(%rax),%edx
  404b40:	85 c0                	test   %eax,%eax
  404b42:	0f 48 c2             	cmovs  %edx,%eax
  404b45:	c1 f8 06             	sar    $0x6,%eax
  404b48:	89 c6                	mov    %eax,%esi
  404b4a:	48 63 c6             	movslq %esi,%rax
  404b4d:	48 8b bc c5 20 5d fe 	mov    -0x1a2e0(%rbp,%rax,8),%rdi
  404b54:	ff 
  404b55:	8b 05 8d 88 00 00    	mov    0x888d(%rip),%eax        # 40d3e8 <m_pipe_fd>
  404b5b:	99                   	cltd   
  404b5c:	c1 ea 1a             	shr    $0x1a,%edx
  404b5f:	01 d0                	add    %edx,%eax
  404b61:	83 e0 3f             	and    $0x3f,%eax
  404b64:	29 d0                	sub    %edx,%eax
  404b66:	ba 01 00 00 00       	mov    $0x1,%edx
  404b6b:	89 c1                	mov    %eax,%ecx
  404b6d:	48 d3 e2             	shl    %cl,%rdx
  404b70:	48 89 d0             	mov    %rdx,%rax
  404b73:	48 09 c7             	or     %rax,%rdi
  404b76:	48 89 fa             	mov    %rdi,%rdx
  404b79:	48 63 c6             	movslq %esi,%rax
  404b7c:	48 89 94 c5 20 5d fe 	mov    %rdx,-0x1a2e0(%rbp,%rax,8)
  404b83:	ff 
  404b84:	bb 00 00 00 00       	mov    $0x0,%ebx
  404b89:	e9 ef 00 00 00       	jmpq   404c7d <teavpn_tcp_server+0x78e>
  404b8e:	48 8b 0d 73 88 00 00 	mov    0x8873(%rip),%rcx        # 40d408 <connections>
  404b95:	0f b7 d3             	movzwl %bx,%edx
  404b98:	48 89 d0             	mov    %rdx,%rax
  404b9b:	48 c1 e0 02          	shl    $0x2,%rax
  404b9f:	48 01 d0             	add    %rdx,%rax
  404ba2:	48 c1 e0 04          	shl    $0x4,%rax
  404ba6:	48 01 c8             	add    %rcx,%rax
  404ba9:	0f b6 40 04          	movzbl 0x4(%rax),%eax
  404bad:	84 c0                	test   %al,%al
  404baf:	0f 84 c3 00 00 00    	je     404c78 <teavpn_tcp_server+0x789>
  404bb5:	48 8b 0d 4c 88 00 00 	mov    0x884c(%rip),%rcx        # 40d408 <connections>
  404bbc:	0f b7 d3             	movzwl %bx,%edx
  404bbf:	48 89 d0             	mov    %rdx,%rax
  404bc2:	48 c1 e0 02          	shl    $0x2,%rax
  404bc6:	48 01 d0             	add    %rdx,%rax
  404bc9:	48 c1 e0 04          	shl    $0x4,%rax
  404bcd:	48 01 c8             	add    %rcx,%rax
  404bd0:	8b 00                	mov    (%rax),%eax
  404bd2:	39 85 d8 5c fe ff    	cmp    %eax,-0x1a328(%rbp)
  404bd8:	7d 23                	jge    404bfd <teavpn_tcp_server+0x70e>
  404bda:	48 8b 0d 27 88 00 00 	mov    0x8827(%rip),%rcx        # 40d408 <connections>
  404be1:	0f b7 d3             	movzwl %bx,%edx
  404be4:	48 89 d0             	mov    %rdx,%rax
  404be7:	48 c1 e0 02          	shl    $0x2,%rax
  404beb:	48 01 d0             	add    %rdx,%rax
  404bee:	48 c1 e0 04          	shl    $0x4,%rax
  404bf2:	48 01 c8             	add    %rcx,%rax
  404bf5:	8b 00                	mov    (%rax),%eax
  404bf7:	89 85 d8 5c fe ff    	mov    %eax,-0x1a328(%rbp)
  404bfd:	48 8b 0d 04 88 00 00 	mov    0x8804(%rip),%rcx        # 40d408 <connections>
  404c04:	0f b7 d3             	movzwl %bx,%edx
  404c07:	48 89 d0             	mov    %rdx,%rax
  404c0a:	48 c1 e0 02          	shl    $0x2,%rax
  404c0e:	48 01 d0             	add    %rdx,%rax
  404c11:	48 c1 e0 04          	shl    $0x4,%rax
  404c15:	48 01 c8             	add    %rcx,%rax
  404c18:	8b 00                	mov    (%rax),%eax
  404c1a:	8d 50 3f             	lea    0x3f(%rax),%edx
  404c1d:	85 c0                	test   %eax,%eax
  404c1f:	0f 48 c2             	cmovs  %edx,%eax
  404c22:	c1 f8 06             	sar    $0x6,%eax
  404c25:	89 c6                	mov    %eax,%esi
  404c27:	48 63 c6             	movslq %esi,%rax
  404c2a:	48 8b bc c5 20 5d fe 	mov    -0x1a2e0(%rbp,%rax,8),%rdi
  404c31:	ff 
  404c32:	48 8b 0d cf 87 00 00 	mov    0x87cf(%rip),%rcx        # 40d408 <connections>
  404c39:	0f b7 d3             	movzwl %bx,%edx
  404c3c:	48 89 d0             	mov    %rdx,%rax
  404c3f:	48 c1 e0 02          	shl    $0x2,%rax
  404c43:	48 01 d0             	add    %rdx,%rax
  404c46:	48 c1 e0 04          	shl    $0x4,%rax
  404c4a:	48 01 c8             	add    %rcx,%rax
  404c4d:	8b 00                	mov    (%rax),%eax
  404c4f:	99                   	cltd   
  404c50:	c1 ea 1a             	shr    $0x1a,%edx
  404c53:	01 d0                	add    %edx,%eax
  404c55:	83 e0 3f             	and    $0x3f,%eax
  404c58:	29 d0                	sub    %edx,%eax
  404c5a:	ba 01 00 00 00       	mov    $0x1,%edx
  404c5f:	89 c1                	mov    %eax,%ecx
  404c61:	48 d3 e2             	shl    %cl,%rdx
  404c64:	48 89 d0             	mov    %rdx,%rax
  404c67:	48 09 c7             	or     %rax,%rdi
  404c6a:	48 89 fa             	mov    %rdi,%rdx
  404c6d:	48 63 c6             	movslq %esi,%rax
  404c70:	48 89 94 c5 20 5d fe 	mov    %rdx,-0x1a2e0(%rbp,%rax,8)
  404c77:	ff 
  404c78:	89 d8                	mov    %ebx,%eax
  404c7a:	8d 58 01             	lea    0x1(%rax),%ebx
  404c7d:	66 83 fb 17          	cmp    $0x17,%bx
  404c81:	0f 86 07 ff ff ff    	jbe    404b8e <teavpn_tcp_server+0x69f>
  404c87:	8b 85 d8 5c fe ff    	mov    -0x1a328(%rbp),%eax
  404c8d:	8d 78 01             	lea    0x1(%rax),%edi
  404c90:	48 8d 85 20 5d fe ff 	lea    -0x1a2e0(%rbp),%rax
  404c97:	41 b8 00 00 00 00    	mov    $0x0,%r8d
  404c9d:	b9 00 00 00 00       	mov    $0x0,%ecx
  404ca2:	ba 00 00 00 00       	mov    $0x0,%edx
  404ca7:	48 89 c6             	mov    %rax,%rsi
  404caa:	e8 61 da ff ff       	callq  402710 <select@plt>
  404caf:	89 85 e4 5c fe ff    	mov    %eax,-0x1a31c(%rbp)
  404cb5:	83 bd e4 5c fe ff 00 	cmpl   $0x0,-0x1a31c(%rbp)
  404cbc:	79 31                	jns    404cef <teavpn_tcp_server+0x800>
  404cbe:	e8 ed d7 ff ff       	callq  4024b0 <__errno_location@plt>
  404cc3:	8b 00                	mov    (%rax),%eax
  404cc5:	83 f8 04             	cmp    $0x4,%eax
  404cc8:	75 25                	jne    404cef <teavpn_tcp_server+0x800>
  404cca:	0f b6 05 53 87 00 00 	movzbl 0x8753(%rip),%eax        # 40d424 <verbose_level>
  404cd1:	3c 01                	cmp    $0x1,%al
  404cd3:	0f 86 00 06 00 00    	jbe    4052d9 <teavpn_tcp_server+0xdea>
  404cd9:	48 8d 3d e8 49 00 00 	lea    0x49e8(%rip),%rdi        # 4096c8 <_IO_stdin_used+0x6c8>
  404ce0:	b8 00 00 00 00       	mov    $0x0,%eax
  404ce5:	e8 1a 35 00 00       	callq  408204 <__internal_debug_log>
  404cea:	e9 ea 05 00 00       	jmpq   4052d9 <teavpn_tcp_server+0xdea>
  404cef:	83 bd e4 5c fe ff 00 	cmpl   $0x0,-0x1a31c(%rbp)
  404cf6:	79 22                	jns    404d1a <teavpn_tcp_server+0x82b>
  404cf8:	48 8d 3d e8 49 00 00 	lea    0x49e8(%rip),%rdi        # 4096e7 <_IO_stdin_used+0x6e7>
  404cff:	b8 00 00 00 00       	mov    $0x0,%eax
  404d04:	e8 fb 34 00 00       	callq  408204 <__internal_debug_log>
  404d09:	48 8d 3d ee 49 00 00 	lea    0x49ee(%rip),%rdi        # 4096fe <_IO_stdin_used+0x6fe>
  404d10:	e8 bb da ff ff       	callq  4027d0 <perror@plt>
  404d15:	e9 c0 05 00 00       	jmpq   4052da <teavpn_tcp_server+0xdeb>
  404d1a:	8b 05 c0 86 00 00    	mov    0x86c0(%rip),%eax        # 40d3e0 <tap_fd>
  404d20:	8d 50 3f             	lea    0x3f(%rax),%edx
  404d23:	85 c0                	test   %eax,%eax
  404d25:	0f 48 c2             	cmovs  %edx,%eax
  404d28:	c1 f8 06             	sar    $0x6,%eax
  404d2b:	48 98                	cltq   
  404d2d:	48 8b b4 c5 20 5d fe 	mov    -0x1a2e0(%rbp,%rax,8),%rsi
  404d34:	ff 
  404d35:	8b 05 a5 86 00 00    	mov    0x86a5(%rip),%eax        # 40d3e0 <tap_fd>
  404d3b:	99                   	cltd   
  404d3c:	c1 ea 1a             	shr    $0x1a,%edx
  404d3f:	01 d0                	add    %edx,%eax
  404d41:	83 e0 3f             	and    $0x3f,%eax
  404d44:	29 d0                	sub    %edx,%eax
  404d46:	ba 01 00 00 00       	mov    $0x1,%edx
  404d4b:	89 c1                	mov    %eax,%ecx
  404d4d:	48 d3 e2             	shl    %cl,%rdx
  404d50:	48 89 d0             	mov    %rdx,%rax
  404d53:	48 21 f0             	and    %rsi,%rax
  404d56:	48 85 c0             	test   %rax,%rax
  404d59:	0f 84 d3 00 00 00    	je     404e32 <teavpn_tcp_server+0x943>
  404d5f:	b8 00 00 00 00       	mov    $0x0,%eax
  404d64:	e8 2e 0a 00 00       	callq  405797 <get_bufchan_index>
  404d69:	66 89 85 d4 5c fe ff 	mov    %ax,-0x1a32c(%rbp)
  404d70:	66 83 bd d4 5c fe ff 	cmpw   $0xffff,-0x1a32c(%rbp)
  404d77:	ff 
  404d78:	74 e5                	je     404d5f <teavpn_tcp_server+0x870>
  404d7a:	48 8b 15 7f 86 00 00 	mov    0x867f(%rip),%rdx        # 40d400 <bufchan>
  404d81:	48 0f bf 85 d4 5c fe 	movswq -0x1a32c(%rbp),%rax
  404d88:	ff 
  404d89:	48 69 c0 30 10 00 00 	imul   $0x1030,%rax,%rax
  404d90:	48 01 d0             	add    %rdx,%rax
  404d93:	48 83 c0 10          	add    $0x10,%rax
  404d97:	48 8d 48 10          	lea    0x10(%rax),%rcx
  404d9b:	8b 05 3f 86 00 00    	mov    0x863f(%rip),%eax        # 40d3e0 <tap_fd>
  404da1:	ba b8 0b 00 00       	mov    $0xbb8,%edx
  404da6:	48 89 ce             	mov    %rcx,%rsi
  404da9:	89 c7                	mov    %eax,%edi
  404dab:	e8 b0 d8 ff ff       	callq  402660 <read@plt>
  404db0:	48 89 85 00 5d fe ff 	mov    %rax,-0x1a300(%rbp)
  404db7:	48 83 bd 00 5d fe ff 	cmpq   $0x0,-0x1a300(%rbp)
  404dbe:	00 
  404dbf:	79 1f                	jns    404de0 <teavpn_tcp_server+0x8f1>
  404dc1:	48 8d 3d 3f 49 00 00 	lea    0x493f(%rip),%rdi        # 409707 <_IO_stdin_used+0x707>
  404dc8:	b8 00 00 00 00       	mov    $0x0,%eax
  404dcd:	e8 32 34 00 00       	callq  408204 <__internal_debug_log>
  404dd2:	48 8d 3d 2e 49 00 00 	lea    0x492e(%rip),%rdi        # 409707 <_IO_stdin_used+0x707>
  404dd9:	e8 f2 d9 ff ff       	callq  4027d0 <perror@plt>
  404dde:	eb 53                	jmp    404e33 <teavpn_tcp_server+0x944>
  404de0:	48 8b 15 19 86 00 00 	mov    0x8619(%rip),%rdx        # 40d400 <bufchan>
  404de7:	48 0f bf 85 d4 5c fe 	movswq -0x1a32c(%rbp),%rax
  404dee:	ff 
  404def:	48 69 c0 30 10 00 00 	imul   $0x1030,%rax,%rax
  404df6:	48 01 d0             	add    %rdx,%rax
  404df9:	48 83 c0 10          	add    $0x10,%rax
  404dfd:	c7 00 02 00 00 00    	movl   $0x2,(%rax)
  404e03:	48 8b 85 00 5d fe ff 	mov    -0x1a300(%rbp),%rax
  404e0a:	89 c1                	mov    %eax,%ecx
  404e0c:	48 8b 15 ed 85 00 00 	mov    0x85ed(%rip),%rdx        # 40d400 <bufchan>
  404e13:	48 0f bf 85 d4 5c fe 	movswq -0x1a32c(%rbp),%rax
  404e1a:	ff 
  404e1b:	48 69 c0 30 10 00 00 	imul   $0x1030,%rax,%rax
  404e22:	48 01 d0             	add    %rdx,%rax
  404e25:	48 83 c0 10          	add    $0x10,%rax
  404e29:	8d 51 10             	lea    0x10(%rcx),%edx
  404e2c:	66 89 50 04          	mov    %dx,0x4(%rax)
  404e30:	eb 01                	jmp    404e33 <teavpn_tcp_server+0x944>
  404e32:	90                   	nop
  404e33:	bb 00 00 00 00       	mov    $0x0,%ebx
  404e38:	e9 f4 03 00 00       	jmpq   405231 <teavpn_tcp_server+0xd42>
  404e3d:	48 8b 0d c4 85 00 00 	mov    0x85c4(%rip),%rcx        # 40d408 <connections>
  404e44:	0f b7 d3             	movzwl %bx,%edx
  404e47:	48 89 d0             	mov    %rdx,%rax
  404e4a:	48 c1 e0 02          	shl    $0x2,%rax
  404e4e:	48 01 d0             	add    %rdx,%rax
  404e51:	48 c1 e0 04          	shl    $0x4,%rax
  404e55:	48 01 c8             	add    %rcx,%rax
  404e58:	0f b6 40 04          	movzbl 0x4(%rax),%eax
  404e5c:	84 c0                	test   %al,%al
  404e5e:	0f 84 c8 03 00 00    	je     40522c <teavpn_tcp_server+0xd3d>
  404e64:	48 8b 0d 9d 85 00 00 	mov    0x859d(%rip),%rcx        # 40d408 <connections>
  404e6b:	0f b7 d3             	movzwl %bx,%edx
  404e6e:	48 89 d0             	mov    %rdx,%rax
  404e71:	48 c1 e0 02          	shl    $0x2,%rax
  404e75:	48 01 d0             	add    %rdx,%rax
  404e78:	48 c1 e0 04          	shl    $0x4,%rax
  404e7c:	48 01 c8             	add    %rcx,%rax
  404e7f:	8b 00                	mov    (%rax),%eax
  404e81:	8d 50 3f             	lea    0x3f(%rax),%edx
  404e84:	85 c0                	test   %eax,%eax
  404e86:	0f 48 c2             	cmovs  %edx,%eax
  404e89:	c1 f8 06             	sar    $0x6,%eax
  404e8c:	48 98                	cltq   
  404e8e:	48 8b b4 c5 20 5d fe 	mov    -0x1a2e0(%rbp,%rax,8),%rsi
  404e95:	ff 
  404e96:	48 8b 0d 6b 85 00 00 	mov    0x856b(%rip),%rcx        # 40d408 <connections>
  404e9d:	0f b7 d3             	movzwl %bx,%edx
  404ea0:	48 89 d0             	mov    %rdx,%rax
  404ea3:	48 c1 e0 02          	shl    $0x2,%rax
  404ea7:	48 01 d0             	add    %rdx,%rax
  404eaa:	48 c1 e0 04          	shl    $0x4,%rax
  404eae:	48 01 c8             	add    %rcx,%rax
  404eb1:	8b 00                	mov    (%rax),%eax
  404eb3:	99                   	cltd   
  404eb4:	c1 ea 1a             	shr    $0x1a,%edx
  404eb7:	01 d0                	add    %edx,%eax
  404eb9:	83 e0 3f             	and    $0x3f,%eax
  404ebc:	29 d0                	sub    %edx,%eax
  404ebe:	ba 01 00 00 00       	mov    $0x1,%edx
  404ec3:	89 c1                	mov    %eax,%ecx
  404ec5:	48 d3 e2             	shl    %cl,%rdx
  404ec8:	48 89 d0             	mov    %rdx,%rax
  404ecb:	48 21 f0             	and    %rsi,%rax
  404ece:	48 85 c0             	test   %rax,%rax
  404ed1:	0f 84 55 03 00 00    	je     40522c <teavpn_tcp_server+0xd3d>
  404ed7:	b8 00 00 00 00       	mov    $0x0,%eax
  404edc:	e8 b6 08 00 00       	callq  405797 <get_bufchan_index>
  404ee1:	66 89 85 d4 5c fe ff 	mov    %ax,-0x1a32c(%rbp)
  404ee8:	66 83 bd d4 5c fe ff 	cmpw   $0xffff,-0x1a32c(%rbp)
  404eef:	ff 
  404ef0:	74 e5                	je     404ed7 <teavpn_tcp_server+0x9e8>
  404ef2:	48 8b 15 07 85 00 00 	mov    0x8507(%rip),%rdx        # 40d400 <bufchan>
  404ef9:	48 0f bf 85 d4 5c fe 	movswq -0x1a32c(%rbp),%rax
  404f00:	ff 
  404f01:	48 69 c0 30 10 00 00 	imul   $0x1030,%rax,%rax
  404f08:	48 01 d0             	add    %rdx,%rax
  404f0b:	48 8d 48 10          	lea    0x10(%rax),%rcx
  404f0f:	48 8b 35 f2 84 00 00 	mov    0x84f2(%rip),%rsi        # 40d408 <connections>
  404f16:	0f b7 d3             	movzwl %bx,%edx
  404f19:	48 89 d0             	mov    %rdx,%rax
  404f1c:	48 c1 e0 02          	shl    $0x2,%rax
  404f20:	48 01 d0             	add    %rdx,%rax
  404f23:	48 c1 e0 04          	shl    $0x4,%rax
  404f27:	48 01 f0             	add    %rsi,%rax
  404f2a:	8b 00                	mov    (%rax),%eax
  404f2c:	ba a0 0f 00 00       	mov    $0xfa0,%edx
  404f31:	48 89 ce             	mov    %rcx,%rsi
  404f34:	89 c7                	mov    %eax,%edi
  404f36:	e8 25 d7 ff ff       	callq  402660 <read@plt>
  404f3b:	48 89 85 00 5d fe ff 	mov    %rax,-0x1a300(%rbp)
  404f42:	48 83 bd 00 5d fe ff 	cmpq   $0x0,-0x1a300(%rbp)
  404f49:	00 
  404f4a:	0f 85 29 01 00 00    	jne    405079 <teavpn_tcp_server+0xb8a>
  404f50:	48 8b 0d b1 84 00 00 	mov    0x84b1(%rip),%rcx        # 40d408 <connections>
  404f57:	0f b7 d3             	movzwl %bx,%edx
  404f5a:	48 89 d0             	mov    %rdx,%rax
  404f5d:	48 c1 e0 02          	shl    $0x2,%rax
  404f61:	48 01 d0             	add    %rdx,%rax
  404f64:	48 c1 e0 04          	shl    $0x4,%rax
  404f68:	48 01 c8             	add    %rcx,%rax
  404f6b:	8b 00                	mov    (%rax),%eax
  404f6d:	8d 50 3f             	lea    0x3f(%rax),%edx
  404f70:	85 c0                	test   %eax,%eax
  404f72:	0f 48 c2             	cmovs  %edx,%eax
  404f75:	c1 f8 06             	sar    $0x6,%eax
  404f78:	89 c6                	mov    %eax,%esi
  404f7a:	48 63 c6             	movslq %esi,%rax
  404f7d:	48 8b bc c5 20 5d fe 	mov    -0x1a2e0(%rbp,%rax,8),%rdi
  404f84:	ff 
  404f85:	48 8b 0d 7c 84 00 00 	mov    0x847c(%rip),%rcx        # 40d408 <connections>
  404f8c:	0f b7 d3             	movzwl %bx,%edx
  404f8f:	48 89 d0             	mov    %rdx,%rax
  404f92:	48 c1 e0 02          	shl    $0x2,%rax
  404f96:	48 01 d0             	add    %rdx,%rax
  404f99:	48 c1 e0 04          	shl    $0x4,%rax
  404f9d:	48 01 c8             	add    %rcx,%rax
  404fa0:	8b 00                	mov    (%rax),%eax
  404fa2:	99                   	cltd   
  404fa3:	c1 ea 1a             	shr    $0x1a,%edx
  404fa6:	01 d0                	add    %edx,%eax
  404fa8:	83 e0 3f             	and    $0x3f,%eax
  404fab:	29 d0                	sub    %edx,%eax
  404fad:	ba 01 00 00 00       	mov    $0x1,%edx
  404fb2:	89 c1                	mov    %eax,%ecx
  404fb4:	48 d3 e2             	shl    %cl,%rdx
  404fb7:	48 89 d0             	mov    %rdx,%rax
  404fba:	48 f7 d0             	not    %rax
  404fbd:	48 21 c7             	and    %rax,%rdi
  404fc0:	48 89 fa             	mov    %rdi,%rdx
  404fc3:	48 63 c6             	movslq %esi,%rax
  404fc6:	48 89 94 c5 20 5d fe 	mov    %rdx,-0x1a2e0(%rbp,%rax,8)
  404fcd:	ff 
  404fce:	48 8b 0d 33 84 00 00 	mov    0x8433(%rip),%rcx        # 40d408 <connections>
  404fd5:	0f b7 d3             	movzwl %bx,%edx
  404fd8:	48 89 d0             	mov    %rdx,%rax
  404fdb:	48 c1 e0 02          	shl    $0x2,%rax
  404fdf:	48 01 d0             	add    %rdx,%rax
  404fe2:	48 c1 e0 04          	shl    $0x4,%rax
  404fe6:	48 01 c8             	add    %rcx,%rax
  404fe9:	8b 00                	mov    (%rax),%eax
  404feb:	89 c7                	mov    %eax,%edi
  404fed:	e8 3e d6 ff ff       	callq  402630 <close@plt>
  404ff2:	0f b7 c3             	movzwl %bx,%eax
  404ff5:	89 c7                	mov    %eax,%edi
  404ff7:	e8 12 09 00 00       	callq  40590e <connection_zero>
  404ffc:	0f b6 05 21 84 00 00 	movzbl 0x8421(%rip),%eax        # 40d424 <verbose_level>
  405003:	84 c0                	test   %al,%al
  405005:	0f 84 32 02 00 00    	je     40523d <teavpn_tcp_server+0xd4e>
  40500b:	48 8b 0d f6 83 00 00 	mov    0x83f6(%rip),%rcx        # 40d408 <connections>
  405012:	0f b7 d3             	movzwl %bx,%edx
  405015:	48 89 d0             	mov    %rdx,%rax
  405018:	48 c1 e0 02          	shl    $0x2,%rax
  40501c:	48 01 d0             	add    %rdx,%rax
  40501f:	48 c1 e0 04          	shl    $0x4,%rax
  405023:	48 01 c8             	add    %rcx,%rax
  405026:	0f b7 40 42          	movzwl 0x42(%rax),%eax
  40502a:	0f b7 c0             	movzwl %ax,%eax
  40502d:	89 c7                	mov    %eax,%edi
  40502f:	e8 4c d7 ff ff       	callq  402780 <ntohs@plt>
  405034:	44 0f b7 e0          	movzwl %ax,%r12d
  405038:	48 8b 0d c9 83 00 00 	mov    0x83c9(%rip),%rcx        # 40d408 <connections>
  40503f:	0f b7 d3             	movzwl %bx,%edx
  405042:	48 89 d0             	mov    %rdx,%rax
  405045:	48 c1 e0 02          	shl    $0x2,%rax
  405049:	48 01 d0             	add    %rdx,%rax
  40504c:	48 c1 e0 04          	shl    $0x4,%rax
  405050:	48 01 c8             	add    %rcx,%rax
  405053:	8b 40 44             	mov    0x44(%rax),%eax
  405056:	89 c7                	mov    %eax,%edi
  405058:	e8 e3 d4 ff ff       	callq  402540 <inet_ntoa@plt>
  40505d:	44 89 e2             	mov    %r12d,%edx
  405060:	48 89 c6             	mov    %rax,%rsi
  405063:	48 8d 3d b4 46 00 00 	lea    0x46b4(%rip),%rdi        # 40971e <_IO_stdin_used+0x71e>
  40506a:	b8 00 00 00 00       	mov    $0x0,%eax
  40506f:	e8 90 31 00 00       	callq  408204 <__internal_debug_log>
  405074:	e9 c4 01 00 00       	jmpq   40523d <teavpn_tcp_server+0xd4e>
  405079:	48 83 bd 00 5d fe ff 	cmpq   $0x0,-0x1a300(%rbp)
  405080:	00 
  405081:	0f 89 a5 01 00 00    	jns    40522c <teavpn_tcp_server+0xd3d>
  405087:	48 8b 0d 7a 83 00 00 	mov    0x837a(%rip),%rcx        # 40d408 <connections>
  40508e:	0f b7 d3             	movzwl %bx,%edx
  405091:	48 89 d0             	mov    %rdx,%rax
  405094:	48 c1 e0 02          	shl    $0x2,%rax
  405098:	48 01 d0             	add    %rdx,%rax
  40509b:	48 c1 e0 04          	shl    $0x4,%rax
  40509f:	48 01 c8             	add    %rcx,%rax
  4050a2:	8b 40 44             	mov    0x44(%rax),%eax
  4050a5:	89 c7                	mov    %eax,%edi
  4050a7:	e8 94 d4 ff ff       	callq  402540 <inet_ntoa@plt>
  4050ac:	48 89 85 08 5d fe ff 	mov    %rax,-0x1a2f8(%rbp)
  4050b3:	48 8b 0d 4e 83 00 00 	mov    0x834e(%rip),%rcx        # 40d408 <connections>
  4050ba:	0f b7 d3             	movzwl %bx,%edx
  4050bd:	48 89 d0             	mov    %rdx,%rax
  4050c0:	48 c1 e0 02          	shl    $0x2,%rax
  4050c4:	48 01 d0             	add    %rdx,%rax
  4050c7:	48 c1 e0 04          	shl    $0x4,%rax
  4050cb:	48 01 c8             	add    %rcx,%rax
  4050ce:	0f b7 40 42          	movzwl 0x42(%rax),%eax
  4050d2:	0f b7 c0             	movzwl %ax,%eax
  4050d5:	89 c7                	mov    %eax,%edi
  4050d7:	e8 a4 d6 ff ff       	callq  402780 <ntohs@plt>
  4050dc:	66 89 85 d6 5c fe ff 	mov    %ax,-0x1a32a(%rbp)
  4050e3:	0f b7 95 d6 5c fe ff 	movzwl -0x1a32a(%rbp),%edx
  4050ea:	48 8b 85 08 5d fe ff 	mov    -0x1a2f8(%rbp),%rax
  4050f1:	48 89 c6             	mov    %rax,%rsi
  4050f4:	48 8d 3d 3d 46 00 00 	lea    0x463d(%rip),%rdi        # 409738 <_IO_stdin_used+0x738>
  4050fb:	b8 00 00 00 00       	mov    $0x0,%eax
  405100:	e8 ff 30 00 00       	callq  408204 <__internal_debug_log>
  405105:	48 8d 3d 44 46 00 00 	lea    0x4644(%rip),%rdi        # 409750 <_IO_stdin_used+0x750>
  40510c:	e8 bf d6 ff ff       	callq  4027d0 <perror@plt>
  405111:	48 8b 0d f0 82 00 00 	mov    0x82f0(%rip),%rcx        # 40d408 <connections>
  405118:	0f b7 d3             	movzwl %bx,%edx
  40511b:	48 89 d0             	mov    %rdx,%rax
  40511e:	48 c1 e0 02          	shl    $0x2,%rax
  405122:	48 01 d0             	add    %rdx,%rax
  405125:	48 c1 e0 04          	shl    $0x4,%rax
  405129:	48 01 c8             	add    %rcx,%rax
  40512c:	0f b6 50 05          	movzbl 0x5(%rax),%edx
  405130:	83 c2 01             	add    $0x1,%edx
  405133:	88 50 05             	mov    %dl,0x5(%rax)
  405136:	48 8b 0d cb 82 00 00 	mov    0x82cb(%rip),%rcx        # 40d408 <connections>
  40513d:	0f b7 d3             	movzwl %bx,%edx
  405140:	48 89 d0             	mov    %rdx,%rax
  405143:	48 c1 e0 02          	shl    $0x2,%rax
  405147:	48 01 d0             	add    %rdx,%rax
  40514a:	48 c1 e0 04          	shl    $0x4,%rax
  40514e:	48 01 c8             	add    %rcx,%rax
  405151:	0f b6 40 05          	movzbl 0x5(%rax),%eax
  405155:	3c 0f                	cmp    $0xf,%al
  405157:	0f 86 e3 00 00 00    	jbe    405240 <teavpn_tcp_server+0xd51>
  40515d:	0f b7 95 d6 5c fe ff 	movzwl -0x1a32a(%rbp),%edx
  405164:	0f b7 85 d6 5c fe ff 	movzwl -0x1a32a(%rbp),%eax
  40516b:	89 c6                	mov    %eax,%esi
  40516d:	48 8d 3d fc 45 00 00 	lea    0x45fc(%rip),%rdi        # 409770 <_IO_stdin_used+0x770>
  405174:	b8 00 00 00 00       	mov    $0x0,%eax
  405179:	e8 86 30 00 00       	callq  408204 <__internal_debug_log>
  40517e:	48 8b 0d 83 82 00 00 	mov    0x8283(%rip),%rcx        # 40d408 <connections>
  405185:	0f b7 d3             	movzwl %bx,%edx
  405188:	48 89 d0             	mov    %rdx,%rax
  40518b:	48 c1 e0 02          	shl    $0x2,%rax
  40518f:	48 01 d0             	add    %rdx,%rax
  405192:	48 c1 e0 04          	shl    $0x4,%rax
  405196:	48 01 c8             	add    %rcx,%rax
  405199:	8b 00                	mov    (%rax),%eax
  40519b:	8d 50 3f             	lea    0x3f(%rax),%edx
  40519e:	85 c0                	test   %eax,%eax
  4051a0:	0f 48 c2             	cmovs  %edx,%eax
  4051a3:	c1 f8 06             	sar    $0x6,%eax
  4051a6:	89 c6                	mov    %eax,%esi
  4051a8:	48 63 c6             	movslq %esi,%rax
  4051ab:	48 8b bc c5 20 5d fe 	mov    -0x1a2e0(%rbp,%rax,8),%rdi
  4051b2:	ff 
  4051b3:	48 8b 0d 4e 82 00 00 	mov    0x824e(%rip),%rcx        # 40d408 <connections>
  4051ba:	0f b7 d3             	movzwl %bx,%edx
  4051bd:	48 89 d0             	mov    %rdx,%rax
  4051c0:	48 c1 e0 02          	shl    $0x2,%rax
  4051c4:	48 01 d0             	add    %rdx,%rax
  4051c7:	48 c1 e0 04          	shl    $0x4,%rax
  4051cb:	48 01 c8             	add    %rcx,%rax
  4051ce:	8b 00                	mov    (%rax),%eax
  4051d0:	99                   	cltd   
  4051d1:	c1 ea 1a             	shr    $0x1a,%edx
  4051d4:	01 d0                	add    %edx,%eax
  4051d6:	83 e0 3f             	and    $0x3f,%eax
  4051d9:	29 d0                	sub    %edx,%eax
  4051db:	ba 01 00 00 00       	mov    $0x1,%edx
  4051e0:	89 c1                	mov    %eax,%ecx
  4051e2:	48 d3 e2             	shl    %cl,%rdx
  4051e5:	48 89 d0             	mov    %rdx,%rax
  4051e8:	48 f7 d0             	not    %rax
  4051eb:	48 21 c7             	and    %rax,%rdi
  4051ee:	48 89 fa             	mov    %rdi,%rdx
  4051f1:	48 63 c6             	movslq %esi,%rax
  4051f4:	48 89 94 c5 20 5d fe 	mov    %rdx,-0x1a2e0(%rbp,%rax,8)
  4051fb:	ff 
  4051fc:	48 8b 0d 05 82 00 00 	mov    0x8205(%rip),%rcx        # 40d408 <connections>
  405203:	0f b7 d3             	movzwl %bx,%edx
  405206:	48 89 d0             	mov    %rdx,%rax
  405209:	48 c1 e0 02          	shl    $0x2,%rax
  40520d:	48 01 d0             	add    %rdx,%rax
  405210:	48 c1 e0 04          	shl    $0x4,%rax
  405214:	48 01 c8             	add    %rcx,%rax
  405217:	8b 00                	mov    (%rax),%eax
  405219:	89 c7                	mov    %eax,%edi
  40521b:	e8 10 d4 ff ff       	callq  402630 <close@plt>
  405220:	0f b7 c3             	movzwl %bx,%eax
  405223:	89 c7                	mov    %eax,%edi
  405225:	e8 e4 06 00 00       	callq  40590e <connection_zero>
  40522a:	eb 14                	jmp    405240 <teavpn_tcp_server+0xd51>
  40522c:	89 d8                	mov    %ebx,%eax
  40522e:	8d 58 01             	lea    0x1(%rax),%ebx
  405231:	66 83 fb 17          	cmp    $0x17,%bx
  405235:	0f 86 02 fc ff ff    	jbe    404e3d <teavpn_tcp_server+0x94e>
  40523b:	eb 04                	jmp    405241 <teavpn_tcp_server+0xd52>
  40523d:	90                   	nop
  40523e:	eb 01                	jmp    405241 <teavpn_tcp_server+0xd52>
  405240:	90                   	nop
  405241:	8b 05 a1 81 00 00    	mov    0x81a1(%rip),%eax        # 40d3e8 <m_pipe_fd>
  405247:	8d 50 3f             	lea    0x3f(%rax),%edx
  40524a:	85 c0                	test   %eax,%eax
  40524c:	0f 48 c2             	cmovs  %edx,%eax
  40524f:	c1 f8 06             	sar    $0x6,%eax
  405252:	48 98                	cltq   
  405254:	48 8b b4 c5 20 5d fe 	mov    -0x1a2e0(%rbp,%rax,8),%rsi
  40525b:	ff 
  40525c:	8b 05 86 81 00 00    	mov    0x8186(%rip),%eax        # 40d3e8 <m_pipe_fd>
  405262:	99                   	cltd   
  405263:	c1 ea 1a             	shr    $0x1a,%edx
  405266:	01 d0                	add    %edx,%eax
  405268:	83 e0 3f             	and    $0x3f,%eax
  40526b:	29 d0                	sub    %edx,%eax
  40526d:	ba 01 00 00 00       	mov    $0x1,%edx
  405272:	89 c1                	mov    %eax,%ecx
  405274:	48 d3 e2             	shl    %cl,%rdx
  405277:	48 89 d0             	mov    %rdx,%rax
  40527a:	48 21 f0             	and    %rsi,%rax
  40527d:	48 85 c0             	test   %rax,%rax
  405280:	0f 84 b0 f7 ff ff    	je     404a36 <teavpn_tcp_server+0x547>
  405286:	8b 05 5c 81 00 00    	mov    0x815c(%rip),%eax        # 40d3e8 <m_pipe_fd>
  40528c:	48 8d 8d d3 5c fe ff 	lea    -0x1a32d(%rbp),%rcx
  405293:	ba 01 00 00 00       	mov    $0x1,%edx
  405298:	48 89 ce             	mov    %rcx,%rsi
  40529b:	89 c7                	mov    %eax,%edi
  40529d:	e8 be d3 ff ff       	callq  402660 <read@plt>
  4052a2:	48 89 85 00 5d fe ff 	mov    %rax,-0x1a300(%rbp)
  4052a9:	48 83 bd 00 5d fe ff 	cmpq   $0x0,-0x1a300(%rbp)
  4052b0:	00 
  4052b1:	0f 89 7f f7 ff ff    	jns    404a36 <teavpn_tcp_server+0x547>
  4052b7:	48 8d 3d 05 45 00 00 	lea    0x4505(%rip),%rdi        # 4097c3 <_IO_stdin_used+0x7c3>
  4052be:	b8 00 00 00 00       	mov    $0x0,%eax
  4052c3:	e8 3c 2f 00 00       	callq  408204 <__internal_debug_log>
  4052c8:	48 8d 3d f4 44 00 00 	lea    0x44f4(%rip),%rdi        # 4097c3 <_IO_stdin_used+0x7c3>
  4052cf:	e8 fc d4 ff ff       	callq  4027d0 <perror@plt>
  4052d4:	e9 5d f7 ff ff       	jmpq   404a36 <teavpn_tcp_server+0x547>
  4052d9:	90                   	nop
  4052da:	e9 57 f7 ff ff       	jmpq   404a36 <teavpn_tcp_server+0x547>
  4052df:	8b 05 03 81 00 00    	mov    0x8103(%rip),%eax        # 40d3e8 <m_pipe_fd>
  4052e5:	89 c7                	mov    %eax,%edi
  4052e7:	e8 44 d3 ff ff       	callq  402630 <close@plt>
  4052ec:	8b 05 fa 80 00 00    	mov    0x80fa(%rip),%eax        # 40d3ec <m_pipe_fd+0x4>
  4052f2:	89 c7                	mov    %eax,%edi
  4052f4:	e8 37 d3 ff ff       	callq  402630 <close@plt>
  4052f9:	8b 05 e5 80 00 00    	mov    0x80e5(%rip),%eax        # 40d3e4 <net_fd>
  4052ff:	89 c7                	mov    %eax,%edi
  405301:	e8 2a d3 ff ff       	callq  402630 <close@plt>
  405306:	8b 05 d4 80 00 00    	mov    0x80d4(%rip),%eax        # 40d3e0 <tap_fd>
  40530c:	89 c7                	mov    %eax,%edi
  40530e:	e8 1d d3 ff ff       	callq  402630 <close@plt>
  405313:	b8 01 00 00 00       	mov    $0x1,%eax
  405318:	48 8b a5 c0 5c fe ff 	mov    -0x1a340(%rbp),%rsp
  40531f:	48 8b 5d c8          	mov    -0x38(%rbp),%rbx
  405323:	64 48 33 1c 25 28 00 	xor    %fs:0x28,%rbx
  40532a:	00 00 
  40532c:	74 05                	je     405333 <teavpn_tcp_server+0xe44>
  40532e:	e8 4d d2 ff ff       	callq  402580 <__stack_chk_fail@plt>
  405333:	48 8d 65 d0          	lea    -0x30(%rbp),%rsp
  405337:	5b                   	pop    %rbx
  405338:	41 5a                	pop    %r10
  40533a:	41 5c                	pop    %r12
  40533c:	41 5d                	pop    %r13
  40533e:	41 5e                	pop    %r14
  405340:	41 5f                	pop    %r15
  405342:	5d                   	pop    %rbp
  405343:	49 8d 62 f8          	lea    -0x8(%r10),%rsp
  405347:	c3                   	retq   

0000000000405348 <teavpn_tcp_worker_thread>:
  405348:	f3 0f 1e fa          	endbr64 
  40534c:	55                   	push   %rbp
  40534d:	48 89 e5             	mov    %rsp,%rbp
  405350:	48 83 ec 10          	sub    $0x10,%rsp
  405354:	48 89 7d f8          	mov    %rdi,-0x8(%rbp)
  405358:	48 8b 45 f8          	mov    -0x8(%rbp),%rax
  40535c:	48 83 c0 10          	add    $0x10,%rax
  405360:	48 89 c7             	mov    %rax,%rdi
  405363:	e8 18 d5 ff ff       	callq  402880 <pthread_mutex_lock@plt>
  405368:	48 8b 45 f8          	mov    -0x8(%rbp),%rax
  40536c:	48 8d 50 10          	lea    0x10(%rax),%rdx
  405370:	48 8b 45 f8          	mov    -0x8(%rbp),%rax
  405374:	48 83 c0 38          	add    $0x38,%rax
  405378:	48 89 d6             	mov    %rdx,%rsi
  40537b:	48 89 c7             	mov    %rax,%rdi
  40537e:	e8 cd d1 ff ff       	callq  402550 <pthread_cond_wait@plt>
  405383:	48 8b 45 f8          	mov    -0x8(%rbp),%rax
  405387:	48 83 c0 10          	add    $0x10,%rax
  40538b:	48 89 c7             	mov    %rax,%rdi
  40538e:	e8 9d d3 ff ff       	callq  402730 <pthread_mutex_unlock@plt>
  405393:	eb c3                	jmp    405358 <teavpn_tcp_worker_thread+0x10>

0000000000405395 <teavpn_tcp_accept_worker_thread>:
  405395:	f3 0f 1e fa          	endbr64 
  405399:	55                   	push   %rbp
  40539a:	48 89 e5             	mov    %rsp,%rbp
  40539d:	48 83 ec 50          	sub    $0x50,%rsp
  4053a1:	48 89 7d b8          	mov    %rdi,-0x48(%rbp)
  4053a5:	64 48 8b 04 25 28 00 	mov    %fs:0x28,%rax
  4053ac:	00 00 
  4053ae:	48 89 45 f8          	mov    %rax,-0x8(%rbp)
  4053b2:	31 c0                	xor    %eax,%eax
  4053b4:	c7 45 d0 10 00 00 00 	movl   $0x10,-0x30(%rbp)
  4053bb:	48 8d 45 e0          	lea    -0x20(%rbp),%rax
  4053bf:	ba 10 00 00 00       	mov    $0x10,%edx
  4053c4:	be 00 00 00 00       	mov    $0x0,%esi
  4053c9:	48 89 c7             	mov    %rax,%rdi
  4053cc:	e8 2f d2 ff ff       	callq  402600 <memset@plt>
  4053d1:	48 8d 45 e0          	lea    -0x20(%rbp),%rax
  4053d5:	48 89 c1             	mov    %rax,%rcx
  4053d8:	8b 05 06 80 00 00    	mov    0x8006(%rip),%eax        # 40d3e4 <net_fd>
  4053de:	48 8d 55 d0          	lea    -0x30(%rbp),%rdx
  4053e2:	48 89 ce             	mov    %rcx,%rsi
  4053e5:	89 c7                	mov    %eax,%edi
  4053e7:	e8 04 d4 ff ff       	callq  4027f0 <accept@plt>
  4053ec:	89 45 d4             	mov    %eax,-0x2c(%rbp)
  4053ef:	83 7d d4 00          	cmpl   $0x0,-0x2c(%rbp)
  4053f3:	79 1f                	jns    405414 <teavpn_tcp_accept_worker_thread+0x7f>
  4053f5:	48 8d 3d e4 43 00 00 	lea    0x43e4(%rip),%rdi        # 4097e0 <_IO_stdin_used+0x7e0>
  4053fc:	b8 00 00 00 00       	mov    $0x0,%eax
  405401:	e8 fe 2d 00 00       	callq  408204 <__internal_debug_log>
  405406:	48 8d 3d d3 43 00 00 	lea    0x43d3(%rip),%rdi        # 4097e0 <_IO_stdin_used+0x7e0>
  40540d:	e8 be d3 ff ff       	callq  4027d0 <perror@plt>
  405412:	eb 20                	jmp    405434 <teavpn_tcp_accept_worker_thread+0x9f>
  405414:	8b 45 e4             	mov    -0x1c(%rbp),%eax
  405417:	89 c7                	mov    %eax,%edi
  405419:	e8 22 d1 ff ff       	callq  402540 <inet_ntoa@plt>
  40541e:	48 89 45 d8          	mov    %rax,-0x28(%rbp)
  405422:	0f b7 45 e2          	movzwl -0x1e(%rbp),%eax
  405426:	0f b7 c0             	movzwl %ax,%eax
  405429:	89 c7                	mov    %eax,%edi
  40542b:	e8 50 d3 ff ff       	callq  402780 <ntohs@plt>
  405430:	66 89 45 ce          	mov    %ax,-0x32(%rbp)
  405434:	eb 85                	jmp    4053bb <teavpn_tcp_accept_worker_thread+0x26>

0000000000405436 <teavpn_tcp_server_init>:
  405436:	f3 0f 1e fa          	endbr64 
  40543a:	55                   	push   %rbp
  40543b:	48 89 e5             	mov    %rsp,%rbp
  40543e:	53                   	push   %rbx
  40543f:	48 83 ec 18          	sub    $0x18,%rsp
  405443:	48 89 7d e8          	mov    %rdi,-0x18(%rbp)
  405447:	48 89 75 e0          	mov    %rsi,-0x20(%rbp)
  40544b:	bb 00 00 00 00       	mov    $0x0,%ebx
  405450:	eb 1c                	jmp    40546e <teavpn_tcp_server_init+0x38>
  405452:	48 8b 15 a7 7f 00 00 	mov    0x7fa7(%rip),%rdx        # 40d400 <bufchan>
  405459:	0f b7 c3             	movzwl %bx,%eax
  40545c:	48 69 c0 30 10 00 00 	imul   $0x1030,%rax,%rax
  405463:	48 01 d0             	add    %rdx,%rax
  405466:	66 c7 00 00 00       	movw   $0x0,(%rax)
  40546b:	83 c3 01             	add    $0x1,%ebx
  40546e:	66 83 fb 17          	cmp    $0x17,%bx
  405472:	76 de                	jbe    405452 <teavpn_tcp_server_init+0x1c>
  405474:	bb 00 00 00 00       	mov    $0x0,%ebx
  405479:	eb 0d                	jmp    405488 <teavpn_tcp_server_init+0x52>
  40547b:	0f b7 c3             	movzwl %bx,%eax
  40547e:	89 c7                	mov    %eax,%edi
  405480:	e8 1f 04 00 00       	callq  4058a4 <queue_zero>
  405485:	83 c3 01             	add    $0x1,%ebx
  405488:	66 83 fb 2f          	cmp    $0x2f,%bx
  40548c:	76 ed                	jbe    40547b <teavpn_tcp_server_init+0x45>
  40548e:	bb 00 00 00 00       	mov    $0x0,%ebx
  405493:	eb 0d                	jmp    4054a2 <teavpn_tcp_server_init+0x6c>
  405495:	0f b7 c3             	movzwl %bx,%eax
  405498:	89 c7                	mov    %eax,%edi
  40549a:	e8 6f 04 00 00       	callq  40590e <connection_zero>
  40549f:	83 c3 01             	add    $0x1,%ebx
  4054a2:	66 83 fb 17          	cmp    $0x17,%bx
  4054a6:	76 ed                	jbe    405495 <teavpn_tcp_server_init+0x5f>
  4054a8:	48 8b 45 e0          	mov    -0x20(%rbp),%rax
  4054ac:	48 8b 40 08          	mov    0x8(%rax),%rax
  4054b0:	48 85 c0             	test   %rax,%rax
  4054b3:	74 35                	je     4054ea <teavpn_tcp_server_init+0xb4>
  4054b5:	48 8b 55 e0          	mov    -0x20(%rbp),%rdx
  4054b9:	48 8b 45 e8          	mov    -0x18(%rbp),%rax
  4054bd:	48 89 d6             	mov    %rdx,%rsi
  4054c0:	48 89 c7             	mov    %rax,%rdi
  4054c3:	e8 fc 0b 00 00       	callq  4060c4 <teavpn_server_config_parser>
  4054c8:	83 f0 01             	xor    $0x1,%eax
  4054cb:	84 c0                	test   %al,%al
  4054cd:	74 1b                	je     4054ea <teavpn_tcp_server_init+0xb4>
  4054cf:	48 8d 3d 1a 43 00 00 	lea    0x431a(%rip),%rdi        # 4097f0 <_IO_stdin_used+0x7f0>
  4054d6:	b8 00 00 00 00       	mov    $0x0,%eax
  4054db:	e8 24 2d 00 00       	callq  408204 <__internal_debug_log>
  4054e0:	b8 01 00 00 00       	mov    $0x1,%eax
  4054e5:	e9 a6 02 00 00       	jmpq   405790 <teavpn_tcp_server_init+0x35a>
  4054ea:	48 8b 45 e0          	mov    -0x20(%rbp),%rax
  4054ee:	0f b6 40 3c          	movzbl 0x3c(%rax),%eax
  4054f2:	88 05 2c 7f 00 00    	mov    %al,0x7f2c(%rip)        # 40d424 <verbose_level>
  4054f8:	48 8b 45 e0          	mov    -0x20(%rbp),%rax
  4054fc:	48 8b 40 18          	mov    0x18(%rax),%rax
  405500:	48 85 c0             	test   %rax,%rax
  405503:	75 1b                	jne    405520 <teavpn_tcp_server_init+0xea>
  405505:	48 8d 3d f2 42 00 00 	lea    0x42f2(%rip),%rdi        # 4097fe <_IO_stdin_used+0x7fe>
  40550c:	b8 00 00 00 00       	mov    $0x0,%eax
  405511:	e8 ee 2c 00 00       	callq  408204 <__internal_debug_log>
  405516:	b8 01 00 00 00       	mov    $0x1,%eax
  40551b:	e9 70 02 00 00       	jmpq   405790 <teavpn_tcp_server_init+0x35a>
  405520:	48 8d 3d c1 7e 00 00 	lea    0x7ec1(%rip),%rdi        # 40d3e8 <m_pipe_fd>
  405527:	e8 14 d1 ff ff       	callq  402640 <pipe@plt>
  40552c:	85 c0                	test   %eax,%eax
  40552e:	79 27                	jns    405557 <teavpn_tcp_server_init+0x121>
  405530:	48 8d 3d e1 42 00 00 	lea    0x42e1(%rip),%rdi        # 409818 <_IO_stdin_used+0x818>
  405537:	b8 00 00 00 00       	mov    $0x0,%eax
  40553c:	e8 c3 2c 00 00       	callq  408204 <__internal_debug_log>
  405541:	48 8d 3d d0 42 00 00 	lea    0x42d0(%rip),%rdi        # 409818 <_IO_stdin_used+0x818>
  405548:	e8 83 d2 ff ff       	callq  4027d0 <perror@plt>
  40554d:	b8 01 00 00 00       	mov    $0x1,%eax
  405552:	e9 39 02 00 00       	jmpq   405790 <teavpn_tcp_server_init+0x35a>
  405557:	0f b6 05 c6 7e 00 00 	movzbl 0x7ec6(%rip),%eax        # 40d424 <verbose_level>
  40555e:	3c 01                	cmp    $0x1,%al
  405560:	76 11                	jbe    405573 <teavpn_tcp_server_init+0x13d>
  405562:	48 8d 3d cf 42 00 00 	lea    0x42cf(%rip),%rdi        # 409838 <_IO_stdin_used+0x838>
  405569:	b8 00 00 00 00       	mov    $0x0,%eax
  40556e:	e8 91 2c 00 00       	callq  408204 <__internal_debug_log>
  405573:	48 8b 45 e0          	mov    -0x20(%rbp),%rax
  405577:	48 8b 40 20          	mov    0x20(%rax),%rax
  40557b:	be 01 00 00 00       	mov    $0x1,%esi
  405580:	48 89 c7             	mov    %rax,%rdi
  405583:	e8 e0 2d 00 00       	callq  408368 <tun_alloc>
  405588:	89 05 52 7e 00 00    	mov    %eax,0x7e52(%rip)        # 40d3e0 <tap_fd>
  40558e:	8b 05 4c 7e 00 00    	mov    0x7e4c(%rip),%eax        # 40d3e0 <tap_fd>
  405594:	85 c0                	test   %eax,%eax
  405596:	79 40                	jns    4055d8 <teavpn_tcp_server_init+0x1a2>
  405598:	48 8b 45 e0          	mov    -0x20(%rbp),%rax
  40559c:	48 8b 40 20          	mov    0x20(%rax),%rax
  4055a0:	48 89 c6             	mov    %rax,%rsi
  4055a3:	48 8d 3d ae 42 00 00 	lea    0x42ae(%rip),%rdi        # 409858 <_IO_stdin_used+0x858>
  4055aa:	b8 00 00 00 00       	mov    $0x0,%eax
  4055af:	e8 50 2c 00 00       	callq  408204 <__internal_debug_log>
  4055b4:	8b 05 2e 7e 00 00    	mov    0x7e2e(%rip),%eax        # 40d3e8 <m_pipe_fd>
  4055ba:	89 c7                	mov    %eax,%edi
  4055bc:	e8 6f d0 ff ff       	callq  402630 <close@plt>
  4055c1:	8b 05 25 7e 00 00    	mov    0x7e25(%rip),%eax        # 40d3ec <m_pipe_fd+0x4>
  4055c7:	89 c7                	mov    %eax,%edi
  4055c9:	e8 62 d0 ff ff       	callq  402630 <close@plt>
  4055ce:	b8 01 00 00 00       	mov    $0x1,%eax
  4055d3:	e9 b8 01 00 00       	jmpq   405790 <teavpn_tcp_server_init+0x35a>
  4055d8:	48 8b 45 e0          	mov    -0x20(%rbp),%rax
  4055dc:	48 8b 40 20          	mov    0x20(%rax),%rax
  4055e0:	48 89 c6             	mov    %rax,%rsi
  4055e3:	48 8d 3d 9e 42 00 00 	lea    0x429e(%rip),%rdi        # 409888 <_IO_stdin_used+0x888>
  4055ea:	b8 00 00 00 00       	mov    $0x0,%eax
  4055ef:	e8 10 2c 00 00       	callq  408204 <__internal_debug_log>
  4055f4:	48 8b 45 e0          	mov    -0x20(%rbp),%rax
  4055f8:	48 89 c7             	mov    %rax,%rdi
  4055fb:	e8 59 04 00 00       	callq  405a59 <teavpn_tcp_server_init_iface>
  405600:	83 f0 01             	xor    $0x1,%eax
  405603:	84 c0                	test   %al,%al
  405605:	74 42                	je     405649 <teavpn_tcp_server_init+0x213>
  405607:	48 8d 3d a5 42 00 00 	lea    0x42a5(%rip),%rdi        # 4098b3 <_IO_stdin_used+0x8b3>
  40560e:	b8 00 00 00 00       	mov    $0x0,%eax
  405613:	e8 ec 2b 00 00       	callq  408204 <__internal_debug_log>
  405618:	8b 05 ca 7d 00 00    	mov    0x7dca(%rip),%eax        # 40d3e8 <m_pipe_fd>
  40561e:	89 c7                	mov    %eax,%edi
  405620:	e8 0b d0 ff ff       	callq  402630 <close@plt>
  405625:	8b 05 c1 7d 00 00    	mov    0x7dc1(%rip),%eax        # 40d3ec <m_pipe_fd+0x4>
  40562b:	89 c7                	mov    %eax,%edi
  40562d:	e8 fe cf ff ff       	callq  402630 <close@plt>
  405632:	8b 05 a8 7d 00 00    	mov    0x7da8(%rip),%eax        # 40d3e0 <tap_fd>
  405638:	89 c7                	mov    %eax,%edi
  40563a:	e8 f1 cf ff ff       	callq  402630 <close@plt>
  40563f:	b8 01 00 00 00       	mov    $0x1,%eax
  405644:	e9 47 01 00 00       	jmpq   405790 <teavpn_tcp_server_init+0x35a>
  405649:	0f b6 05 d4 7d 00 00 	movzbl 0x7dd4(%rip),%eax        # 40d424 <verbose_level>
  405650:	84 c0                	test   %al,%al
  405652:	74 11                	je     405665 <teavpn_tcp_server_init+0x22f>
  405654:	48 8d 3d 6e 42 00 00 	lea    0x426e(%rip),%rdi        # 4098c9 <_IO_stdin_used+0x8c9>
  40565b:	b8 00 00 00 00       	mov    $0x0,%eax
  405660:	e8 9f 2b 00 00       	callq  408204 <__internal_debug_log>
  405665:	ba 00 00 00 00       	mov    $0x0,%edx
  40566a:	be 01 00 00 00       	mov    $0x1,%esi
  40566f:	bf 02 00 00 00       	mov    $0x2,%edi
  405674:	e8 27 d2 ff ff       	callq  4028a0 <socket@plt>
  405679:	89 05 65 7d 00 00    	mov    %eax,0x7d65(%rip)        # 40d3e4 <net_fd>
  40567f:	8b 05 5f 7d 00 00    	mov    0x7d5f(%rip),%eax        # 40d3e4 <net_fd>
  405685:	85 c0                	test   %eax,%eax
  405687:	79 4e                	jns    4056d7 <teavpn_tcp_server_init+0x2a1>
  405689:	48 8d 3d 50 42 00 00 	lea    0x4250(%rip),%rdi        # 4098e0 <_IO_stdin_used+0x8e0>
  405690:	b8 00 00 00 00       	mov    $0x0,%eax
  405695:	e8 6a 2b 00 00       	callq  408204 <__internal_debug_log>
  40569a:	48 8d 3d 58 42 00 00 	lea    0x4258(%rip),%rdi        # 4098f9 <_IO_stdin_used+0x8f9>
  4056a1:	e8 2a d1 ff ff       	callq  4027d0 <perror@plt>
  4056a6:	8b 05 3c 7d 00 00    	mov    0x7d3c(%rip),%eax        # 40d3e8 <m_pipe_fd>
  4056ac:	89 c7                	mov    %eax,%edi
  4056ae:	e8 7d cf ff ff       	callq  402630 <close@plt>
  4056b3:	8b 05 33 7d 00 00    	mov    0x7d33(%rip),%eax        # 40d3ec <m_pipe_fd+0x4>
  4056b9:	89 c7                	mov    %eax,%edi
  4056bb:	e8 70 cf ff ff       	callq  402630 <close@plt>
  4056c0:	8b 05 1a 7d 00 00    	mov    0x7d1a(%rip),%eax        # 40d3e0 <tap_fd>
  4056c6:	89 c7                	mov    %eax,%edi
  4056c8:	e8 63 cf ff ff       	callq  402630 <close@plt>
  4056cd:	b8 01 00 00 00       	mov    $0x1,%eax
  4056d2:	e9 b9 00 00 00       	jmpq   405790 <teavpn_tcp_server_init+0x35a>
  4056d7:	0f b6 05 46 7d 00 00 	movzbl 0x7d46(%rip),%eax        # 40d424 <verbose_level>
  4056de:	84 c0                	test   %al,%al
  4056e0:	74 11                	je     4056f3 <teavpn_tcp_server_init+0x2bd>
  4056e2:	48 8d 3d 27 42 00 00 	lea    0x4227(%rip),%rdi        # 409910 <_IO_stdin_used+0x910>
  4056e9:	b8 00 00 00 00       	mov    $0x0,%eax
  4056ee:	e8 11 2b 00 00       	callq  408204 <__internal_debug_log>
  4056f3:	0f b6 05 2a 7d 00 00 	movzbl 0x7d2a(%rip),%eax        # 40d424 <verbose_level>
  4056fa:	84 c0                	test   %al,%al
  4056fc:	74 11                	je     40570f <teavpn_tcp_server_init+0x2d9>
  4056fe:	48 8d 3d 2b 42 00 00 	lea    0x422b(%rip),%rdi        # 409930 <_IO_stdin_used+0x930>
  405705:	b8 00 00 00 00       	mov    $0x0,%eax
  40570a:	e8 f5 2a 00 00       	callq  408204 <__internal_debug_log>
  40570f:	8b 05 cf 7c 00 00    	mov    0x7ccf(%rip),%eax        # 40d3e4 <net_fd>
  405715:	89 c7                	mov    %eax,%edi
  405717:	e8 bc 04 00 00       	callq  405bd8 <teavpn_tcp_server_socket_setup>
  40571c:	83 f0 01             	xor    $0x1,%eax
  40571f:	84 c0                	test   %al,%al
  405721:	74 4c                	je     40576f <teavpn_tcp_server_init+0x339>
  405723:	48 8d 3d 2b 42 00 00 	lea    0x422b(%rip),%rdi        # 409955 <_IO_stdin_used+0x955>
  40572a:	b8 00 00 00 00       	mov    $0x0,%eax
  40572f:	e8 d0 2a 00 00       	callq  408204 <__internal_debug_log>
  405734:	8b 05 ae 7c 00 00    	mov    0x7cae(%rip),%eax        # 40d3e8 <m_pipe_fd>
  40573a:	89 c7                	mov    %eax,%edi
  40573c:	e8 ef ce ff ff       	callq  402630 <close@plt>
  405741:	8b 05 a5 7c 00 00    	mov    0x7ca5(%rip),%eax        # 40d3ec <m_pipe_fd+0x4>
  405747:	89 c7                	mov    %eax,%edi
  405749:	e8 e2 ce ff ff       	callq  402630 <close@plt>
  40574e:	8b 05 90 7c 00 00    	mov    0x7c90(%rip),%eax        # 40d3e4 <net_fd>
  405754:	89 c7                	mov    %eax,%edi
  405756:	e8 d5 ce ff ff       	callq  402630 <close@plt>
  40575b:	8b 05 7f 7c 00 00    	mov    0x7c7f(%rip),%eax        # 40d3e0 <tap_fd>
  405761:	89 c7                	mov    %eax,%edi
  405763:	e8 c8 ce ff ff       	callq  402630 <close@plt>
  405768:	b8 01 00 00 00       	mov    $0x1,%eax
  40576d:	eb 21                	jmp    405790 <teavpn_tcp_server_init+0x35a>
  40576f:	0f b6 05 ae 7c 00 00 	movzbl 0x7cae(%rip),%eax        # 40d424 <verbose_level>
  405776:	84 c0                	test   %al,%al
  405778:	74 11                	je     40578b <teavpn_tcp_server_init+0x355>
  40577a:	48 8d 3d ef 41 00 00 	lea    0x41ef(%rip),%rdi        # 409970 <_IO_stdin_used+0x970>
  405781:	b8 00 00 00 00       	mov    $0x0,%eax
  405786:	e8 79 2a 00 00       	callq  408204 <__internal_debug_log>
  40578b:	b8 00 00 00 00       	mov    $0x0,%eax
  405790:	48 83 c4 18          	add    $0x18,%rsp
  405794:	5b                   	pop    %rbx
  405795:	5d                   	pop    %rbp
  405796:	c3                   	retq   

0000000000405797 <get_bufchan_index>:
  405797:	f3 0f 1e fa          	endbr64 
  40579b:	55                   	push   %rbp
  40579c:	48 89 e5             	mov    %rsp,%rbp
  40579f:	48 83 ec 10          	sub    $0x10,%rsp
  4057a3:	66 c7 45 fe 00 00    	movw   $0x0,-0x2(%rbp)
  4057a9:	eb 4d                	jmp    4057f8 <get_bufchan_index+0x61>
  4057ab:	48 8b 15 4e 7c 00 00 	mov    0x7c4e(%rip),%rdx        # 40d400 <bufchan>
  4057b2:	48 0f bf 45 fe       	movswq -0x2(%rbp),%rax
  4057b7:	48 69 c0 30 10 00 00 	imul   $0x1030,%rax,%rax
  4057be:	48 01 d0             	add    %rdx,%rax
  4057c1:	0f b7 00             	movzwl (%rax),%eax
  4057c4:	66 85 c0             	test   %ax,%ax
  4057c7:	75 24                	jne    4057ed <get_bufchan_index+0x56>
  4057c9:	0f b6 05 48 7c 00 00 	movzbl 0x7c48(%rip),%eax        # 40d418 <buf_chan_wait.6569>
  4057d0:	84 c0                	test   %al,%al
  4057d2:	74 10                	je     4057e4 <get_bufchan_index+0x4d>
  4057d4:	0f b6 05 3d 7c 00 00 	movzbl 0x7c3d(%rip),%eax        # 40d418 <buf_chan_wait.6569>
  4057db:	83 e8 01             	sub    $0x1,%eax
  4057de:	88 05 34 7c 00 00    	mov    %al,0x7c34(%rip)        # 40d418 <buf_chan_wait.6569>
  4057e4:	0f b7 45 fe          	movzwl -0x2(%rbp),%eax
  4057e8:	e9 b5 00 00 00       	jmpq   4058a2 <get_bufchan_index+0x10b>
  4057ed:	0f b7 45 fe          	movzwl -0x2(%rbp),%eax
  4057f1:	83 c0 01             	add    $0x1,%eax
  4057f4:	66 89 45 fe          	mov    %ax,-0x2(%rbp)
  4057f8:	66 83 7d fe 17       	cmpw   $0x17,-0x2(%rbp)
  4057fd:	7e ac                	jle    4057ab <get_bufchan_index+0x14>
  4057ff:	0f b6 05 12 7c 00 00 	movzbl 0x7c12(%rip),%eax        # 40d418 <buf_chan_wait.6569>
  405806:	3c 1e                	cmp    $0x1e,%al
  405808:	76 09                	jbe    405813 <get_bufchan_index+0x7c>
  40580a:	c6 05 08 7c 00 00 01 	movb   $0x1,0x7c08(%rip)        # 40d419 <sleep_state.6568>
  405811:	eb 1b                	jmp    40582e <get_bufchan_index+0x97>
  405813:	0f b6 05 fe 7b 00 00 	movzbl 0x7bfe(%rip),%eax        # 40d418 <buf_chan_wait.6569>
  40581a:	3c 64                	cmp    $0x64,%al
  40581c:	77 10                	ja     40582e <get_bufchan_index+0x97>
  40581e:	0f b6 05 f3 7b 00 00 	movzbl 0x7bf3(%rip),%eax        # 40d418 <buf_chan_wait.6569>
  405825:	83 c0 01             	add    $0x1,%eax
  405828:	88 05 ea 7b 00 00    	mov    %al,0x7bea(%rip)        # 40d418 <buf_chan_wait.6569>
  40582e:	0f b6 05 e4 7b 00 00 	movzbl 0x7be4(%rip),%eax        # 40d419 <sleep_state.6568>
  405835:	84 c0                	test   %al,%al
  405837:	74 64                	je     40589d <get_bufchan_index+0x106>
  405839:	0f b6 05 e4 7b 00 00 	movzbl 0x7be4(%rip),%eax        # 40d424 <verbose_level>
  405840:	84 c0                	test   %al,%al
  405842:	74 11                	je     405855 <get_bufchan_index+0xbe>
  405844:	48 8d 3d 55 41 00 00 	lea    0x4155(%rip),%rdi        # 4099a0 <_IO_stdin_used+0x9a0>
  40584b:	b8 00 00 00 00       	mov    $0x0,%eax
  405850:	e8 af 29 00 00       	callq  408204 <__internal_debug_log>
  405855:	bf 10 27 00 00       	mov    $0x2710,%edi
  40585a:	e8 31 d0 ff ff       	callq  402890 <usleep@plt>
  40585f:	0f b6 05 b2 7b 00 00 	movzbl 0x7bb2(%rip),%eax        # 40d418 <buf_chan_wait.6569>
  405866:	83 e8 01             	sub    $0x1,%eax
  405869:	88 05 a9 7b 00 00    	mov    %al,0x7ba9(%rip)        # 40d418 <buf_chan_wait.6569>
  40586f:	0f b6 05 a2 7b 00 00 	movzbl 0x7ba2(%rip),%eax        # 40d418 <buf_chan_wait.6569>
  405876:	3c 14                	cmp    $0x14,%al
  405878:	77 23                	ja     40589d <get_bufchan_index+0x106>
  40587a:	0f b6 05 a3 7b 00 00 	movzbl 0x7ba3(%rip),%eax        # 40d424 <verbose_level>
  405881:	84 c0                	test   %al,%al
  405883:	74 11                	je     405896 <get_bufchan_index+0xff>
  405885:	48 8d 3d 3c 41 00 00 	lea    0x413c(%rip),%rdi        # 4099c8 <_IO_stdin_used+0x9c8>
  40588c:	b8 00 00 00 00       	mov    $0x0,%eax
  405891:	e8 6e 29 00 00       	callq  408204 <__internal_debug_log>
  405896:	c6 05 7c 7b 00 00 00 	movb   $0x0,0x7b7c(%rip)        # 40d419 <sleep_state.6568>
  40589d:	b8 ff ff ff ff       	mov    $0xffffffff,%eax
  4058a2:	c9                   	leaveq 
  4058a3:	c3                   	retq   

00000000004058a4 <queue_zero>:
  4058a4:	f3 0f 1e fa          	endbr64 
  4058a8:	55                   	push   %rbp
  4058a9:	48 89 e5             	mov    %rsp,%rbp
  4058ac:	89 f8                	mov    %edi,%eax
  4058ae:	48 8b 15 43 7b 00 00 	mov    0x7b43(%rip),%rdx        # 40d3f8 <queues>
  4058b5:	0f b7 c8             	movzwl %ax,%ecx
  4058b8:	48 c1 e1 05          	shl    $0x5,%rcx
  4058bc:	48 01 ca             	add    %rcx,%rdx
  4058bf:	c6 02 00             	movb   $0x0,(%rdx)
  4058c2:	48 8b 15 2f 7b 00 00 	mov    0x7b2f(%rip),%rdx        # 40d3f8 <queues>
  4058c9:	0f b7 c8             	movzwl %ax,%ecx
  4058cc:	48 c1 e1 05          	shl    $0x5,%rcx
  4058d0:	48 01 ca             	add    %rcx,%rdx
  4058d3:	48 c7 42 08 ff ff ff 	movq   $0xffffffffffffffff,0x8(%rdx)
  4058da:	ff 
  4058db:	48 8b 15 16 7b 00 00 	mov    0x7b16(%rip),%rdx        # 40d3f8 <queues>
  4058e2:	0f b7 c8             	movzwl %ax,%ecx
  4058e5:	48 c1 e1 05          	shl    $0x5,%rcx
  4058e9:	48 01 ca             	add    %rcx,%rdx
  4058ec:	66 c7 42 10 ff ff    	movw   $0xffff,0x10(%rdx)
  4058f2:	48 8b 15 ff 7a 00 00 	mov    0x7aff(%rip),%rdx        # 40d3f8 <queues>
  4058f9:	0f b7 c0             	movzwl %ax,%eax
  4058fc:	48 c1 e0 05          	shl    $0x5,%rax
  405900:	48 01 d0             	add    %rdx,%rax
  405903:	48 c7 40 18 00 00 00 	movq   $0x0,0x18(%rax)
  40590a:	00 
  40590b:	90                   	nop
  40590c:	5d                   	pop    %rbp
  40590d:	c3                   	retq   

000000000040590e <connection_zero>:
  40590e:	f3 0f 1e fa          	endbr64 
  405912:	55                   	push   %rbp
  405913:	48 89 e5             	mov    %rsp,%rbp
  405916:	53                   	push   %rbx
  405917:	48 83 ec 08          	sub    $0x8,%rsp
  40591b:	89 f8                	mov    %edi,%eax
  40591d:	89 c3                	mov    %eax,%ebx
  40591f:	48 8b 0d e2 7a 00 00 	mov    0x7ae2(%rip),%rcx        # 40d408 <connections>
  405926:	0f b7 d3             	movzwl %bx,%edx
  405929:	48 89 d0             	mov    %rdx,%rax
  40592c:	48 c1 e0 02          	shl    $0x2,%rax
  405930:	48 01 d0             	add    %rdx,%rax
  405933:	48 c1 e0 04          	shl    $0x4,%rax
  405937:	48 01 c8             	add    %rcx,%rax
  40593a:	c7 00 ff ff ff ff    	movl   $0xffffffff,(%rax)
  405940:	48 8b 0d c1 7a 00 00 	mov    0x7ac1(%rip),%rcx        # 40d408 <connections>
  405947:	0f b7 d3             	movzwl %bx,%edx
  40594a:	48 89 d0             	mov    %rdx,%rax
  40594d:	48 c1 e0 02          	shl    $0x2,%rax
  405951:	48 01 d0             	add    %rdx,%rax
  405954:	48 c1 e0 04          	shl    $0x4,%rax
  405958:	48 01 c8             	add    %rcx,%rax
  40595b:	c6 40 04 00          	movb   $0x0,0x4(%rax)
  40595f:	48 8b 0d a2 7a 00 00 	mov    0x7aa2(%rip),%rcx        # 40d408 <connections>
  405966:	0f b7 d3             	movzwl %bx,%edx
  405969:	48 89 d0             	mov    %rdx,%rax
  40596c:	48 c1 e0 02          	shl    $0x2,%rax
  405970:	48 01 d0             	add    %rdx,%rax
  405973:	48 c1 e0 04          	shl    $0x4,%rax
  405977:	48 01 c8             	add    %rcx,%rax
  40597a:	c6 40 05 00          	movb   $0x0,0x5(%rax)
  40597e:	48 8b 0d 83 7a 00 00 	mov    0x7a83(%rip),%rcx        # 40d408 <connections>
  405985:	0f b7 d3             	movzwl %bx,%edx
  405988:	48 89 d0             	mov    %rdx,%rax
  40598b:	48 c1 e0 02          	shl    $0x2,%rax
  40598f:	48 01 d0             	add    %rdx,%rax
  405992:	48 c1 e0 04          	shl    $0x4,%rax
  405996:	48 01 c8             	add    %rcx,%rax
  405999:	48 c7 40 08 00 00 00 	movq   $0x0,0x8(%rax)
  4059a0:	00 
  4059a1:	48 8b 0d 60 7a 00 00 	mov    0x7a60(%rip),%rcx        # 40d408 <connections>
  4059a8:	0f b7 d3             	movzwl %bx,%edx
  4059ab:	48 89 d0             	mov    %rdx,%rax
  4059ae:	48 c1 e0 02          	shl    $0x2,%rax
  4059b2:	48 01 d0             	add    %rdx,%rax
  4059b5:	48 c1 e0 04          	shl    $0x4,%rax
  4059b9:	48 01 c8             	add    %rcx,%rax
  4059bc:	c7 40 10 00 00 00 00 	movl   $0x0,0x10(%rax)
  4059c3:	48 8b 0d 3e 7a 00 00 	mov    0x7a3e(%rip),%rcx        # 40d408 <connections>
  4059ca:	0f b7 d3             	movzwl %bx,%edx
  4059cd:	48 89 d0             	mov    %rdx,%rax
  4059d0:	48 c1 e0 02          	shl    $0x2,%rax
  4059d4:	48 01 d0             	add    %rdx,%rax
  4059d7:	48 c1 e0 04          	shl    $0x4,%rax
  4059db:	48 01 c8             	add    %rcx,%rax
  4059de:	48 83 c0 40          	add    $0x40,%rax
  4059e2:	ba 10 00 00 00       	mov    $0x10,%edx
  4059e7:	be 00 00 00 00       	mov    $0x0,%esi
  4059ec:	48 89 c7             	mov    %rax,%rdi
  4059ef:	e8 0c cc ff ff       	callq  402600 <memset@plt>
  4059f4:	48 8b 0d 0d 7a 00 00 	mov    0x7a0d(%rip),%rcx        # 40d408 <connections>
  4059fb:	0f b7 d3             	movzwl %bx,%edx
  4059fe:	48 89 d0             	mov    %rdx,%rax
  405a01:	48 c1 e0 02          	shl    $0x2,%rax
  405a05:	48 01 d0             	add    %rdx,%rax
  405a08:	48 c1 e0 04          	shl    $0x4,%rax
  405a0c:	48 01 c8             	add    %rcx,%rax
  405a0f:	48 83 c0 18          	add    $0x18,%rax
  405a13:	ba 28 00 00 00       	mov    $0x28,%edx
  405a18:	be 00 00 00 00       	mov    $0x0,%esi
  405a1d:	48 89 c7             	mov    %rax,%rdi
  405a20:	e8 db cb ff ff       	callq  402600 <memset@plt>
  405a25:	48 8b 0d dc 79 00 00 	mov    0x79dc(%rip),%rcx        # 40d408 <connections>
  405a2c:	0f b7 d3             	movzwl %bx,%edx
  405a2f:	48 89 d0             	mov    %rdx,%rax
  405a32:	48 c1 e0 02          	shl    $0x2,%rax
  405a36:	48 01 d0             	add    %rdx,%rax
  405a39:	48 c1 e0 04          	shl    $0x4,%rax
  405a3d:	48 01 c8             	add    %rcx,%rax
  405a40:	48 83 c0 18          	add    $0x18,%rax
  405a44:	be 00 00 00 00       	mov    $0x0,%esi
  405a49:	48 89 c7             	mov    %rax,%rdi
  405a4c:	e8 0f ce ff ff       	callq  402860 <pthread_mutex_init@plt>
  405a51:	90                   	nop
  405a52:	48 83 c4 08          	add    $0x8,%rsp
  405a56:	5b                   	pop    %rbx
  405a57:	5d                   	pop    %rbp
  405a58:	c3                   	retq   

0000000000405a59 <teavpn_tcp_server_init_iface>:
  405a59:	f3 0f 1e fa          	endbr64 
  405a5d:	55                   	push   %rbp
  405a5e:	48 89 e5             	mov    %rsp,%rbp
  405a61:	48 81 ec 10 01 00 00 	sub    $0x110,%rsp
  405a68:	48 89 bd f8 fe ff ff 	mov    %rdi,-0x108(%rbp)
  405a6f:	64 48 8b 04 25 28 00 	mov    %fs:0x28,%rax
  405a76:	00 00 
  405a78:	48 89 45 f8          	mov    %rax,-0x8(%rbp)
  405a7c:	31 c0                	xor    %eax,%eax
  405a7e:	48 8b 85 f8 fe ff ff 	mov    -0x108(%rbp),%rax
  405a85:	48 8b 40 20          	mov    0x20(%rax),%rax
  405a89:	48 89 c7             	mov    %rax,%rdi
  405a8c:	e8 a1 db ff ff       	callq  403632 <escapeshellarg>
  405a91:	48 89 85 08 ff ff ff 	mov    %rax,-0xf8(%rbp)
  405a98:	48 8b 85 f8 fe ff ff 	mov    -0x108(%rbp),%rax
  405a9f:	48 8b 40 28          	mov    0x28(%rax),%rax
  405aa3:	48 89 c7             	mov    %rax,%rdi
  405aa6:	e8 87 db ff ff       	callq  403632 <escapeshellarg>
  405aab:	48 89 85 10 ff ff ff 	mov    %rax,-0xf0(%rbp)
  405ab2:	48 8b 85 f8 fe ff ff 	mov    -0x108(%rbp),%rax
  405ab9:	48 8b 40 30          	mov    0x30(%rax),%rax
  405abd:	48 89 c7             	mov    %rax,%rdi
  405ac0:	e8 6d db ff ff       	callq  403632 <escapeshellarg>
  405ac5:	48 89 85 18 ff ff ff 	mov    %rax,-0xe8(%rbp)
  405acc:	48 8b 85 f8 fe ff ff 	mov    -0x108(%rbp),%rax
  405ad3:	0f b7 40 38          	movzwl 0x38(%rax),%eax
  405ad7:	0f b7 c8             	movzwl %ax,%ecx
  405ada:	48 8b 95 08 ff ff ff 	mov    -0xf8(%rbp),%rdx
  405ae1:	48 8d 85 20 ff ff ff 	lea    -0xe0(%rbp),%rax
  405ae8:	48 8d 35 f9 3e 00 00 	lea    0x3ef9(%rip),%rsi        # 4099e8 <_IO_stdin_used+0x9e8>
  405aef:	48 89 c7             	mov    %rax,%rdi
  405af2:	b8 00 00 00 00       	mov    $0x0,%eax
  405af7:	e8 14 cd ff ff       	callq  402810 <sprintf@plt>
  405afc:	48 8b b5 18 ff ff ff 	mov    -0xe8(%rbp),%rsi
  405b03:	48 8b 8d 10 ff ff ff 	mov    -0xf0(%rbp),%rcx
  405b0a:	48 8b 95 08 ff ff ff 	mov    -0xf8(%rbp),%rdx
  405b11:	48 8d 45 90          	lea    -0x70(%rbp),%rax
  405b15:	49 89 f0             	mov    %rsi,%r8
  405b18:	48 8d 35 f1 3e 00 00 	lea    0x3ef1(%rip),%rsi        # 409a10 <_IO_stdin_used+0xa10>
  405b1f:	48 89 c7             	mov    %rax,%rdi
  405b22:	b8 00 00 00 00       	mov    $0x0,%eax
  405b27:	e8 e4 cc ff ff       	callq  402810 <sprintf@plt>
  405b2c:	48 8b 85 08 ff ff ff 	mov    -0xf8(%rbp),%rax
  405b33:	48 89 c7             	mov    %rax,%rdi
  405b36:	e8 35 c9 ff ff       	callq  402470 <free@plt>
  405b3b:	48 8b 85 10 ff ff ff 	mov    -0xf0(%rbp),%rax
  405b42:	48 89 c7             	mov    %rax,%rdi
  405b45:	e8 26 c9 ff ff       	callq  402470 <free@plt>
  405b4a:	48 8b 85 18 ff ff ff 	mov    -0xe8(%rbp),%rax
  405b51:	48 89 c7             	mov    %rax,%rdi
  405b54:	e8 17 c9 ff ff       	callq  402470 <free@plt>
  405b59:	48 8d 85 20 ff ff ff 	lea    -0xe0(%rbp),%rax
  405b60:	48 89 c6             	mov    %rax,%rsi
  405b63:	48 8d 3d cf 3e 00 00 	lea    0x3ecf(%rip),%rdi        # 409a39 <_IO_stdin_used+0xa39>
  405b6a:	b8 00 00 00 00       	mov    $0x0,%eax
  405b6f:	e8 90 26 00 00       	callq  408204 <__internal_debug_log>
  405b74:	48 8d 85 20 ff ff ff 	lea    -0xe0(%rbp),%rax
  405b7b:	48 89 c7             	mov    %rax,%rdi
  405b7e:	e8 2d ca ff ff       	callq  4025b0 <system@plt>
  405b83:	85 c0                	test   %eax,%eax
  405b85:	74 07                	je     405b8e <teavpn_tcp_server_init_iface+0x135>
  405b87:	b8 00 00 00 00       	mov    $0x0,%eax
  405b8c:	eb 34                	jmp    405bc2 <teavpn_tcp_server_init_iface+0x169>
  405b8e:	48 8d 45 90          	lea    -0x70(%rbp),%rax
  405b92:	48 89 c6             	mov    %rax,%rsi
  405b95:	48 8d 3d 9d 3e 00 00 	lea    0x3e9d(%rip),%rdi        # 409a39 <_IO_stdin_used+0xa39>
  405b9c:	b8 00 00 00 00       	mov    $0x0,%eax
  405ba1:	e8 5e 26 00 00       	callq  408204 <__internal_debug_log>
  405ba6:	48 8d 45 90          	lea    -0x70(%rbp),%rax
  405baa:	48 89 c7             	mov    %rax,%rdi
  405bad:	e8 fe c9 ff ff       	callq  4025b0 <system@plt>
  405bb2:	85 c0                	test   %eax,%eax
  405bb4:	74 07                	je     405bbd <teavpn_tcp_server_init_iface+0x164>
  405bb6:	b8 00 00 00 00       	mov    $0x0,%eax
  405bbb:	eb 05                	jmp    405bc2 <teavpn_tcp_server_init_iface+0x169>
  405bbd:	b8 01 00 00 00       	mov    $0x1,%eax
  405bc2:	48 8b 55 f8          	mov    -0x8(%rbp),%rdx
  405bc6:	64 48 33 14 25 28 00 	xor    %fs:0x28,%rdx
  405bcd:	00 00 
  405bcf:	74 05                	je     405bd6 <teavpn_tcp_server_init_iface+0x17d>
  405bd1:	e8 aa c9 ff ff       	callq  402580 <__stack_chk_fail@plt>
  405bd6:	c9                   	leaveq 
  405bd7:	c3                   	retq   

0000000000405bd8 <teavpn_tcp_server_socket_setup>:
  405bd8:	f3 0f 1e fa          	endbr64 
  405bdc:	55                   	push   %rbp
  405bdd:	48 89 e5             	mov    %rsp,%rbp
  405be0:	48 83 ec 20          	sub    $0x20,%rsp
  405be4:	89 7d ec             	mov    %edi,-0x14(%rbp)
  405be7:	64 48 8b 04 25 28 00 	mov    %fs:0x28,%rax
  405bee:	00 00 
  405bf0:	48 89 45 f8          	mov    %rax,-0x8(%rbp)
  405bf4:	31 c0                	xor    %eax,%eax
  405bf6:	c7 45 f4 01 00 00 00 	movl   $0x1,-0xc(%rbp)
  405bfd:	48 8d 55 f4          	lea    -0xc(%rbp),%rdx
  405c01:	8b 45 ec             	mov    -0x14(%rbp),%eax
  405c04:	41 b8 04 00 00 00    	mov    $0x4,%r8d
  405c0a:	48 89 d1             	mov    %rdx,%rcx
  405c0d:	ba 02 00 00 00       	mov    $0x2,%edx
  405c12:	be 01 00 00 00       	mov    $0x1,%esi
  405c17:	89 c7                	mov    %eax,%edi
  405c19:	e8 f2 c8 ff ff       	callq  402510 <setsockopt@plt>
  405c1e:	85 c0                	test   %eax,%eax
  405c20:	79 13                	jns    405c35 <teavpn_tcp_server_socket_setup+0x5d>
  405c22:	48 8d 3d 1e 3e 00 00 	lea    0x3e1e(%rip),%rdi        # 409a47 <_IO_stdin_used+0xa47>
  405c29:	e8 a2 cb ff ff       	callq  4027d0 <perror@plt>
  405c2e:	b8 00 00 00 00       	mov    $0x0,%eax
  405c33:	eb 05                	jmp    405c3a <teavpn_tcp_server_socket_setup+0x62>
  405c35:	b8 01 00 00 00       	mov    $0x1,%eax
  405c3a:	48 8b 4d f8          	mov    -0x8(%rbp),%rcx
  405c3e:	64 48 33 0c 25 28 00 	xor    %fs:0x28,%rcx
  405c45:	00 00 
  405c47:	74 05                	je     405c4e <teavpn_tcp_server_socket_setup+0x76>
  405c49:	e8 32 c9 ff ff       	callq  402580 <__stack_chk_fail@plt>
  405c4e:	c9                   	leaveq 
  405c4f:	c3                   	retq   

0000000000405c50 <_teavpn_send_handshake>:
  405c50:	f3 0f 1e fa          	endbr64 
  405c54:	55                   	push   %rbp
  405c55:	48 89 e5             	mov    %rsp,%rbp
  405c58:	48 83 ec 10          	sub    $0x10,%rsp
  405c5c:	89 7d fc             	mov    %edi,-0x4(%rbp)
  405c5f:	89 f0                	mov    %esi,%eax
  405c61:	48 89 55 f0          	mov    %rdx,-0x10(%rbp)
  405c65:	66 89 45 f8          	mov    %ax,-0x8(%rbp)
  405c69:	48 8b 55 f0          	mov    -0x10(%rbp),%rdx
  405c6d:	48 8d 75 f8          	lea    -0x8(%rbp),%rsi
  405c71:	8b 45 fc             	mov    -0x4(%rbp),%eax
  405c74:	41 b9 10 00 00 00    	mov    $0x10,%r9d
  405c7a:	49 89 d0             	mov    %rdx,%r8
  405c7d:	b9 00 08 00 00       	mov    $0x800,%ecx
  405c82:	ba 02 00 00 00       	mov    $0x2,%edx
  405c87:	89 c7                	mov    %eax,%edi
  405c89:	e8 92 c9 ff ff       	callq  402620 <sendto@plt>
  405c8e:	48 83 f8 02          	cmp    $0x2,%rax
  405c92:	0f 94 c0             	sete   %al
  405c95:	c9                   	leaveq 
  405c96:	c3                   	retq   

0000000000405c97 <teavpn_syn>:
  405c97:	f3 0f 1e fa          	endbr64 
  405c9b:	55                   	push   %rbp
  405c9c:	48 89 e5             	mov    %rsp,%rbp
  405c9f:	48 83 ec 10          	sub    $0x10,%rsp
  405ca3:	89 7d fc             	mov    %edi,-0x4(%rbp)
  405ca6:	48 89 75 f0          	mov    %rsi,-0x10(%rbp)
  405caa:	48 8b 55 f0          	mov    -0x10(%rbp),%rdx
  405cae:	8b 45 fc             	mov    -0x4(%rbp),%eax
  405cb1:	be 22 22 00 00       	mov    $0x2222,%esi
  405cb6:	89 c7                	mov    %eax,%edi
  405cb8:	e8 93 ff ff ff       	callq  405c50 <_teavpn_send_handshake>
  405cbd:	c9                   	leaveq 
  405cbe:	c3                   	retq   

0000000000405cbf <teavpn_ack>:
  405cbf:	f3 0f 1e fa          	endbr64 
  405cc3:	55                   	push   %rbp
  405cc4:	48 89 e5             	mov    %rsp,%rbp
  405cc7:	48 83 ec 10          	sub    $0x10,%rsp
  405ccb:	89 7d fc             	mov    %edi,-0x4(%rbp)
  405cce:	48 89 75 f0          	mov    %rsi,-0x10(%rbp)
  405cd2:	48 8b 55 f0          	mov    -0x10(%rbp),%rdx
  405cd6:	8b 45 fc             	mov    -0x4(%rbp),%eax
  405cd9:	be 11 11 00 00       	mov    $0x1111,%esi
  405cde:	89 c7                	mov    %eax,%edi
  405ce0:	e8 6b ff ff ff       	callq  405c50 <_teavpn_send_handshake>
  405ce5:	c9                   	leaveq 
  405ce6:	c3                   	retq   

0000000000405ce7 <teavpn_nak>:
  405ce7:	f3 0f 1e fa          	endbr64 
  405ceb:	55                   	push   %rbp
  405cec:	48 89 e5             	mov    %rsp,%rbp
  405cef:	48 83 ec 10          	sub    $0x10,%rsp
  405cf3:	89 7d fc             	mov    %edi,-0x4(%rbp)
  405cf6:	48 89 75 f0          	mov    %rsi,-0x10(%rbp)
  405cfa:	48 8b 55 f0          	mov    -0x10(%rbp),%rdx
  405cfe:	8b 45 fc             	mov    -0x4(%rbp),%eax
  405d01:	be 33 33 00 00       	mov    $0x3333,%esi
  405d06:	89 c7                	mov    %eax,%edi
  405d08:	e8 43 ff ff ff       	callq  405c50 <_teavpn_send_handshake>
  405d0d:	c9                   	leaveq 
  405d0e:	c3                   	retq   

0000000000405d0f <teavpn_synack>:
  405d0f:	f3 0f 1e fa          	endbr64 
  405d13:	55                   	push   %rbp
  405d14:	48 89 e5             	mov    %rsp,%rbp
  405d17:	48 83 ec 10          	sub    $0x10,%rsp
  405d1b:	89 7d fc             	mov    %edi,-0x4(%rbp)
  405d1e:	48 89 75 f0          	mov    %rsi,-0x10(%rbp)
  405d22:	48 8b 55 f0          	mov    -0x10(%rbp),%rdx
  405d26:	8b 45 fc             	mov    -0x4(%rbp),%eax
  405d29:	be 44 44 00 00       	mov    $0x4444,%esi
  405d2e:	89 c7                	mov    %eax,%edi
  405d30:	e8 1b ff ff ff       	callq  405c50 <_teavpn_send_handshake>
  405d35:	c9                   	leaveq 
  405d36:	c3                   	retq   

0000000000405d37 <get_handshake>:
  405d37:	f3 0f 1e fa          	endbr64 
  405d3b:	55                   	push   %rbp
  405d3c:	48 89 e5             	mov    %rsp,%rbp
  405d3f:	48 83 ec 30          	sub    $0x30,%rsp
  405d43:	89 7d dc             	mov    %edi,-0x24(%rbp)
  405d46:	48 89 75 d0          	mov    %rsi,-0x30(%rbp)
  405d4a:	64 48 8b 04 25 28 00 	mov    %fs:0x28,%rax
  405d51:	00 00 
  405d53:	48 89 45 f8          	mov    %rax,-0x8(%rbp)
  405d57:	31 c0                	xor    %eax,%eax
  405d59:	48 8b 55 d0          	mov    -0x30(%rbp),%rdx
  405d5d:	48 8d 75 ee          	lea    -0x12(%rbp),%rsi
  405d61:	8b 45 dc             	mov    -0x24(%rbp),%eax
  405d64:	4c 8d 0d 11 75 00 00 	lea    0x7511(%rip),%r9        # 40d27c <remote_len.4016>
  405d6b:	49 89 d0             	mov    %rdx,%r8
  405d6e:	b9 00 01 00 00       	mov    $0x100,%ecx
  405d73:	ba 02 00 00 00       	mov    $0x2,%edx
  405d78:	89 c7                	mov    %eax,%edi
  405d7a:	e8 f1 c9 ff ff       	callq  402770 <recvfrom@plt>
  405d7f:	48 89 45 f0          	mov    %rax,-0x10(%rbp)
  405d83:	48 83 7d f0 02       	cmpq   $0x2,-0x10(%rbp)
  405d88:	74 13                	je     405d9d <get_handshake+0x66>
  405d8a:	48 8d 3d c3 3c 00 00 	lea    0x3cc3(%rip),%rdi        # 409a54 <_IO_stdin_used+0xa54>
  405d91:	e8 3a ca ff ff       	callq  4027d0 <perror@plt>
  405d96:	b8 00 00 00 00       	mov    $0x0,%eax
  405d9b:	eb 04                	jmp    405da1 <get_handshake+0x6a>
  405d9d:	0f b7 45 ee          	movzwl -0x12(%rbp),%eax
  405da1:	48 8b 4d f8          	mov    -0x8(%rbp),%rcx
  405da5:	64 48 33 0c 25 28 00 	xor    %fs:0x28,%rcx
  405dac:	00 00 
  405dae:	74 05                	je     405db5 <get_handshake+0x7e>
  405db0:	e8 cb c7 ff ff       	callq  402580 <__stack_chk_fail@plt>
  405db5:	c9                   	leaveq 
  405db6:	c3                   	retq   

0000000000405db7 <teavpn_auth_check>:
  405db7:	f3 0f 1e fa          	endbr64 
  405dbb:	55                   	push   %rbp
  405dbc:	48 89 e5             	mov    %rsp,%rbp
  405dbf:	48 81 ec 40 03 00 00 	sub    $0x340,%rsp
  405dc6:	48 89 bd c8 fc ff ff 	mov    %rdi,-0x338(%rbp)
  405dcd:	48 89 b5 c0 fc ff ff 	mov    %rsi,-0x340(%rbp)
  405dd4:	64 48 8b 04 25 28 00 	mov    %fs:0x28,%rax
  405ddb:	00 00 
  405ddd:	48 89 45 f8          	mov    %rax,-0x8(%rbp)
  405de1:	31 c0                	xor    %eax,%eax
  405de3:	48 c7 85 e0 fc ff ff 	movq   $0x0,-0x320(%rbp)
  405dea:	00 00 00 00 
  405dee:	48 c7 85 d8 fc ff ff 	movq   $0x0,-0x328(%rbp)
  405df5:	00 00 00 00 
  405df9:	48 8b 85 c0 fc ff ff 	mov    -0x340(%rbp),%rax
  405e00:	48 8d 48 02          	lea    0x2(%rax),%rcx
  405e04:	48 8b 85 c8 fc ff ff 	mov    -0x338(%rbp),%rax
  405e0b:	48 8b 50 18          	mov    0x18(%rax),%rdx
  405e0f:	48 8d 85 f0 fd ff ff 	lea    -0x210(%rbp),%rax
  405e16:	48 8d 35 51 3c 00 00 	lea    0x3c51(%rip),%rsi        # 409a6e <_IO_stdin_used+0xa6e>
  405e1d:	48 89 c7             	mov    %rax,%rdi
  405e20:	b8 00 00 00 00       	mov    $0x0,%eax
  405e25:	e8 e6 c9 ff ff       	callq  402810 <sprintf@plt>
  405e2a:	48 8d 85 f0 fd ff ff 	lea    -0x210(%rbp),%rax
  405e31:	48 8d 35 4b 3c 00 00 	lea    0x3c4b(%rip),%rsi        # 409a83 <_IO_stdin_used+0xa83>
  405e38:	48 89 c7             	mov    %rax,%rdi
  405e3b:	e8 80 c9 ff ff       	callq  4027c0 <fopen@plt>
  405e40:	48 89 85 e0 fc ff ff 	mov    %rax,-0x320(%rbp)
  405e47:	48 83 bd e0 fc ff ff 	cmpq   $0x0,-0x320(%rbp)
  405e4e:	00 
  405e4f:	75 0a                	jne    405e5b <teavpn_auth_check+0xa4>
  405e51:	b8 00 00 00 00       	mov    $0x0,%eax
  405e56:	e9 ec 00 00 00       	jmpq   405f47 <teavpn_auth_check+0x190>
  405e5b:	48 8b 95 e0 fc ff ff 	mov    -0x320(%rbp),%rdx
  405e62:	48 8d 85 f0 fc ff ff 	lea    -0x310(%rbp),%rax
  405e69:	be fe 00 00 00       	mov    $0xfe,%esi
  405e6e:	48 89 c7             	mov    %rax,%rdi
  405e71:	e8 fa c7 ff ff       	callq  402670 <fgets@plt>
  405e76:	48 85 c0             	test   %rax,%rax
  405e79:	0f 84 b2 00 00 00    	je     405f31 <teavpn_auth_check+0x17a>
  405e7f:	48 8d 85 f0 fc ff ff 	lea    -0x310(%rbp),%rax
  405e86:	48 89 c7             	mov    %rax,%rdi
  405e89:	e8 e2 c6 ff ff       	callq  402570 <strlen@plt>
  405e8e:	48 89 85 e8 fc ff ff 	mov    %rax,-0x318(%rbp)
  405e95:	48 8b 85 e8 fc ff ff 	mov    -0x318(%rbp),%rax
  405e9c:	48 83 e8 01          	sub    $0x1,%rax
  405ea0:	0f b6 84 05 f0 fc ff 	movzbl -0x310(%rbp,%rax,1),%eax
  405ea7:	ff 
  405ea8:	3c 0a                	cmp    $0xa,%al
  405eaa:	75 13                	jne    405ebf <teavpn_auth_check+0x108>
  405eac:	48 8b 85 e8 fc ff ff 	mov    -0x318(%rbp),%rax
  405eb3:	48 83 e8 01          	sub    $0x1,%rax
  405eb7:	c6 84 05 f0 fc ff ff 	movb   $0x0,-0x310(%rbp,%rax,1)
  405ebe:	00 
  405ebf:	48 8b 85 c0 fc ff ff 	mov    -0x340(%rbp),%rax
  405ec6:	48 8d 90 02 01 00 00 	lea    0x102(%rax),%rdx
  405ecd:	48 8d 85 f0 fc ff ff 	lea    -0x310(%rbp),%rax
  405ed4:	48 89 c6             	mov    %rax,%rsi
  405ed7:	48 89 d7             	mov    %rdx,%rdi
  405eda:	e8 c1 c7 ff ff       	callq  4026a0 <strcmp@plt>
  405edf:	85 c0                	test   %eax,%eax
  405ee1:	75 4e                	jne    405f31 <teavpn_auth_check+0x17a>
  405ee3:	48 8b 85 c0 fc ff ff 	mov    -0x340(%rbp),%rax
  405eea:	48 8d 48 02          	lea    0x2(%rax),%rcx
  405eee:	48 8b 85 c8 fc ff ff 	mov    -0x338(%rbp),%rax
  405ef5:	48 8b 50 18          	mov    0x18(%rax),%rdx
  405ef9:	48 8d 85 f0 fd ff ff 	lea    -0x210(%rbp),%rax
  405f00:	48 8d 35 7e 3b 00 00 	lea    0x3b7e(%rip),%rsi        # 409a85 <_IO_stdin_used+0xa85>
  405f07:	48 89 c7             	mov    %rax,%rdi
  405f0a:	b8 00 00 00 00       	mov    $0x0,%eax
  405f0f:	e8 fc c8 ff ff       	callq  402810 <sprintf@plt>
  405f14:	48 8d 85 f0 fd ff ff 	lea    -0x210(%rbp),%rax
  405f1b:	48 8d 35 61 3b 00 00 	lea    0x3b61(%rip),%rsi        # 409a83 <_IO_stdin_used+0xa83>
  405f22:	48 89 c7             	mov    %rax,%rdi
  405f25:	e8 96 c8 ff ff       	callq  4027c0 <fopen@plt>
  405f2a:	48 89 85 d8 fc ff ff 	mov    %rax,-0x328(%rbp)
  405f31:	48 8b 85 e0 fc ff ff 	mov    -0x320(%rbp),%rax
  405f38:	48 89 c7             	mov    %rax,%rdi
  405f3b:	e8 20 c6 ff ff       	callq  402560 <fclose@plt>
  405f40:	48 8b 85 d8 fc ff ff 	mov    -0x328(%rbp),%rax
  405f47:	48 8b 4d f8          	mov    -0x8(%rbp),%rcx
  405f4b:	64 48 33 0c 25 28 00 	xor    %fs:0x28,%rcx
  405f52:	00 00 
  405f54:	74 05                	je     405f5b <teavpn_auth_check+0x1a4>
  405f56:	e8 25 c6 ff ff       	callq  402580 <__stack_chk_fail@plt>
  405f5b:	c9                   	leaveq 
  405f5c:	c3                   	retq   

0000000000405f5d <_teavpn_send_handshake>:
  405f5d:	f3 0f 1e fa          	endbr64 
  405f61:	55                   	push   %rbp
  405f62:	48 89 e5             	mov    %rsp,%rbp
  405f65:	48 83 ec 10          	sub    $0x10,%rsp
  405f69:	89 7d fc             	mov    %edi,-0x4(%rbp)
  405f6c:	89 f0                	mov    %esi,%eax
  405f6e:	48 89 55 f0          	mov    %rdx,-0x10(%rbp)
  405f72:	66 89 45 f8          	mov    %ax,-0x8(%rbp)
  405f76:	48 8b 55 f0          	mov    -0x10(%rbp),%rdx
  405f7a:	48 8d 75 f8          	lea    -0x8(%rbp),%rsi
  405f7e:	8b 45 fc             	mov    -0x4(%rbp),%eax
  405f81:	41 b9 10 00 00 00    	mov    $0x10,%r9d
  405f87:	49 89 d0             	mov    %rdx,%r8
  405f8a:	b9 00 08 00 00       	mov    $0x800,%ecx
  405f8f:	ba 02 00 00 00       	mov    $0x2,%edx
  405f94:	89 c7                	mov    %eax,%edi
  405f96:	e8 85 c6 ff ff       	callq  402620 <sendto@plt>
  405f9b:	48 83 f8 02          	cmp    $0x2,%rax
  405f9f:	0f 94 c0             	sete   %al
  405fa2:	c9                   	leaveq 
  405fa3:	c3                   	retq   

0000000000405fa4 <teavpn_syn>:
  405fa4:	f3 0f 1e fa          	endbr64 
  405fa8:	55                   	push   %rbp
  405fa9:	48 89 e5             	mov    %rsp,%rbp
  405fac:	48 83 ec 10          	sub    $0x10,%rsp
  405fb0:	89 7d fc             	mov    %edi,-0x4(%rbp)
  405fb3:	48 89 75 f0          	mov    %rsi,-0x10(%rbp)
  405fb7:	48 8b 55 f0          	mov    -0x10(%rbp),%rdx
  405fbb:	8b 45 fc             	mov    -0x4(%rbp),%eax
  405fbe:	be 22 22 00 00       	mov    $0x2222,%esi
  405fc3:	89 c7                	mov    %eax,%edi
  405fc5:	e8 93 ff ff ff       	callq  405f5d <_teavpn_send_handshake>
  405fca:	c9                   	leaveq 
  405fcb:	c3                   	retq   

0000000000405fcc <teavpn_ack>:
  405fcc:	f3 0f 1e fa          	endbr64 
  405fd0:	55                   	push   %rbp
  405fd1:	48 89 e5             	mov    %rsp,%rbp
  405fd4:	48 83 ec 10          	sub    $0x10,%rsp
  405fd8:	89 7d fc             	mov    %edi,-0x4(%rbp)
  405fdb:	48 89 75 f0          	mov    %rsi,-0x10(%rbp)
  405fdf:	48 8b 55 f0          	mov    -0x10(%rbp),%rdx
  405fe3:	8b 45 fc             	mov    -0x4(%rbp),%eax
  405fe6:	be 11 11 00 00       	mov    $0x1111,%esi
  405feb:	89 c7                	mov    %eax,%edi
  405fed:	e8 6b ff ff ff       	callq  405f5d <_teavpn_send_handshake>
  405ff2:	c9                   	leaveq 
  405ff3:	c3                   	retq   

0000000000405ff4 <teavpn_nak>:
  405ff4:	f3 0f 1e fa          	endbr64 
  405ff8:	55                   	push   %rbp
  405ff9:	48 89 e5             	mov    %rsp,%rbp
  405ffc:	48 83 ec 10          	sub    $0x10,%rsp
  406000:	89 7d fc             	mov    %edi,-0x4(%rbp)
  406003:	48 89 75 f0          	mov    %rsi,-0x10(%rbp)
  406007:	48 8b 55 f0          	mov    -0x10(%rbp),%rdx
  40600b:	8b 45 fc             	mov    -0x4(%rbp),%eax
  40600e:	be 33 33 00 00       	mov    $0x3333,%esi
  406013:	89 c7                	mov    %eax,%edi
  406015:	e8 43 ff ff ff       	callq  405f5d <_teavpn_send_handshake>
  40601a:	c9                   	leaveq 
  40601b:	c3                   	retq   

000000000040601c <teavpn_synack>:
  40601c:	f3 0f 1e fa          	endbr64 
  406020:	55                   	push   %rbp
  406021:	48 89 e5             	mov    %rsp,%rbp
  406024:	48 83 ec 10          	sub    $0x10,%rsp
  406028:	89 7d fc             	mov    %edi,-0x4(%rbp)
  40602b:	48 89 75 f0          	mov    %rsi,-0x10(%rbp)
  40602f:	48 8b 55 f0          	mov    -0x10(%rbp),%rdx
  406033:	8b 45 fc             	mov    -0x4(%rbp),%eax
  406036:	be 44 44 00 00       	mov    $0x4444,%esi
  40603b:	89 c7                	mov    %eax,%edi
  40603d:	e8 1b ff ff ff       	callq  405f5d <_teavpn_send_handshake>
  406042:	c9                   	leaveq 
  406043:	c3                   	retq   

0000000000406044 <get_handshake>:
  406044:	f3 0f 1e fa          	endbr64 
  406048:	55                   	push   %rbp
  406049:	48 89 e5             	mov    %rsp,%rbp
  40604c:	48 83 ec 30          	sub    $0x30,%rsp
  406050:	89 7d dc             	mov    %edi,-0x24(%rbp)
  406053:	48 89 75 d0          	mov    %rsi,-0x30(%rbp)
  406057:	64 48 8b 04 25 28 00 	mov    %fs:0x28,%rax
  40605e:	00 00 
  406060:	48 89 45 f8          	mov    %rax,-0x8(%rbp)
  406064:	31 c0                	xor    %eax,%eax
  406066:	48 8b 55 d0          	mov    -0x30(%rbp),%rdx
  40606a:	48 8d 75 ee          	lea    -0x12(%rbp),%rsi
  40606e:	8b 45 dc             	mov    -0x24(%rbp),%eax
  406071:	4c 8d 0d 08 72 00 00 	lea    0x7208(%rip),%r9        # 40d280 <remote_len.4012>
  406078:	49 89 d0             	mov    %rdx,%r8
  40607b:	b9 00 01 00 00       	mov    $0x100,%ecx
  406080:	ba 02 00 00 00       	mov    $0x2,%edx
  406085:	89 c7                	mov    %eax,%edi
  406087:	e8 e4 c6 ff ff       	callq  402770 <recvfrom@plt>
  40608c:	48 89 45 f0          	mov    %rax,-0x10(%rbp)
  406090:	48 83 7d f0 02       	cmpq   $0x2,-0x10(%rbp)
  406095:	74 13                	je     4060aa <get_handshake+0x66>
  406097:	48 8d 3d fa 39 00 00 	lea    0x39fa(%rip),%rdi        # 409a98 <_IO_stdin_used+0xa98>
  40609e:	e8 2d c7 ff ff       	callq  4027d0 <perror@plt>
  4060a3:	b8 00 00 00 00       	mov    $0x0,%eax
  4060a8:	eb 04                	jmp    4060ae <get_handshake+0x6a>
  4060aa:	0f b7 45 ee          	movzwl -0x12(%rbp),%eax
  4060ae:	48 8b 4d f8          	mov    -0x8(%rbp),%rcx
  4060b2:	64 48 33 0c 25 28 00 	xor    %fs:0x28,%rcx
  4060b9:	00 00 
  4060bb:	74 05                	je     4060c2 <get_handshake+0x7e>
  4060bd:	e8 be c4 ff ff       	callq  402580 <__stack_chk_fail@plt>
  4060c2:	c9                   	leaveq 
  4060c3:	c3                   	retq   

00000000004060c4 <teavpn_server_config_parser>:
  4060c4:	f3 0f 1e fa          	endbr64 
  4060c8:	55                   	push   %rbp
  4060c9:	48 89 e5             	mov    %rsp,%rbp
  4060cc:	48 81 ec 00 10 00 00 	sub    $0x1000,%rsp
  4060d3:	48 83 0c 24 00       	orq    $0x0,(%rsp)
  4060d8:	48 83 ec 60          	sub    $0x60,%rsp
  4060dc:	48 89 bd a8 ef ff ff 	mov    %rdi,-0x1058(%rbp)
  4060e3:	48 89 b5 a0 ef ff ff 	mov    %rsi,-0x1060(%rbp)
  4060ea:	64 48 8b 04 25 28 00 	mov    %fs:0x28,%rax
  4060f1:	00 00 
  4060f3:	48 89 45 f8          	mov    %rax,-0x8(%rbp)
  4060f7:	31 c0                	xor    %eax,%eax
  4060f9:	66 c7 85 be ef ff ff 	movw   $0x1,-0x1042(%rbp)
  406100:	01 00 
  406102:	c6 85 bc ef ff ff 01 	movb   $0x1,-0x1044(%rbp)
  406109:	48 8b 85 a0 ef ff ff 	mov    -0x1060(%rbp),%rax
  406110:	48 8b 40 08          	mov    0x8(%rax),%rax
  406114:	48 8d 35 97 39 00 00 	lea    0x3997(%rip),%rsi        # 409ab2 <_IO_stdin_used+0xab2>
  40611b:	48 89 c7             	mov    %rax,%rdi
  40611e:	e8 9d c6 ff ff       	callq  4027c0 <fopen@plt>
  406123:	48 89 85 d8 ef ff ff 	mov    %rax,-0x1028(%rbp)
  40612a:	48 83 bd d8 ef ff ff 	cmpq   $0x0,-0x1028(%rbp)
  406131:	00 
  406132:	0f 85 5b 07 00 00    	jne    406893 <teavpn_server_config_parser+0x7cf>
  406138:	48 8b 85 a0 ef ff ff 	mov    -0x1060(%rbp),%rax
  40613f:	48 8b 40 08          	mov    0x8(%rax),%rax
  406143:	48 89 c6             	mov    %rax,%rsi
  406146:	48 8d 3d 67 39 00 00 	lea    0x3967(%rip),%rdi        # 409ab4 <_IO_stdin_used+0xab4>
  40614d:	b8 00 00 00 00       	mov    $0x0,%eax
  406152:	e8 79 c4 ff ff       	callq  4025d0 <printf@plt>
  406157:	b8 00 00 00 00       	mov    $0x0,%eax
  40615c:	e9 6d 07 00 00       	jmpq   4068ce <teavpn_server_config_parser+0x80a>
  406161:	48 8d 85 f0 ef ff ff 	lea    -0x1010(%rbp),%rax
  406168:	48 89 c7             	mov    %rax,%rdi
  40616b:	e8 00 c4 ff ff       	callq  402570 <strlen@plt>
  406170:	48 89 85 e0 ef ff ff 	mov    %rax,-0x1020(%rbp)
  406177:	48 8b 85 e0 ef ff ff 	mov    -0x1020(%rbp),%rax
  40617e:	48 83 e8 01          	sub    $0x1,%rax
  406182:	0f b6 84 05 f0 ef ff 	movzbl -0x1010(%rbp,%rax,1),%eax
  406189:	ff 
  40618a:	3c 0a                	cmp    $0xa,%al
  40618c:	74 27                	je     4061b5 <teavpn_server_config_parser+0xf1>
  40618e:	48 8d 95 f0 ef ff ff 	lea    -0x1010(%rbp),%rdx
  406195:	48 8b 85 e0 ef ff ff 	mov    -0x1020(%rbp),%rax
  40619c:	48 01 d0             	add    %rdx,%rax
  40619f:	c6 00 0a             	movb   $0xa,(%rax)
  4061a2:	48 8b 85 e0 ef ff ff 	mov    -0x1020(%rbp),%rax
  4061a9:	48 83 c0 01          	add    $0x1,%rax
  4061ad:	c6 84 05 f0 ef ff ff 	movb   $0x0,-0x1010(%rbp,%rax,1)
  4061b4:	00 
  4061b5:	48 c7 85 d0 ef ff ff 	movq   $0x0,-0x1030(%rbp)
  4061bc:	00 00 00 00 
  4061c0:	48 8b 85 d0 ef ff ff 	mov    -0x1030(%rbp),%rax
  4061c7:	48 89 85 c8 ef ff ff 	mov    %rax,-0x1038(%rbp)
  4061ce:	48 8b 85 c8 ef ff ff 	mov    -0x1038(%rbp),%rax
  4061d5:	48 89 85 e8 ef ff ff 	mov    %rax,-0x1018(%rbp)
  4061dc:	48 8b 85 e8 ef ff ff 	mov    -0x1018(%rbp),%rax
  4061e3:	48 89 85 c0 ef ff ff 	mov    %rax,-0x1040(%rbp)
  4061ea:	eb 08                	jmp    4061f4 <teavpn_server_config_parser+0x130>
  4061ec:	48 83 85 c0 ef ff ff 	addq   $0x1,-0x1040(%rbp)
  4061f3:	01 
  4061f4:	48 8d 95 f0 ef ff ff 	lea    -0x1010(%rbp),%rdx
  4061fb:	48 8b 85 c0 ef ff ff 	mov    -0x1040(%rbp),%rax
  406202:	48 01 d0             	add    %rdx,%rax
  406205:	0f b6 00             	movzbl (%rax),%eax
  406208:	3c 20                	cmp    $0x20,%al
  40620a:	74 e0                	je     4061ec <teavpn_server_config_parser+0x128>
  40620c:	48 8d 95 f0 ef ff ff 	lea    -0x1010(%rbp),%rdx
  406213:	48 8b 85 c0 ef ff ff 	mov    -0x1040(%rbp),%rax
  40621a:	48 01 d0             	add    %rdx,%rax
  40621d:	0f b6 00             	movzbl (%rax),%eax
  406220:	3c 09                	cmp    $0x9,%al
  406222:	74 c8                	je     4061ec <teavpn_server_config_parser+0x128>
  406224:	48 8d 95 f0 ef ff ff 	lea    -0x1010(%rbp),%rdx
  40622b:	48 8b 85 c0 ef ff ff 	mov    -0x1040(%rbp),%rax
  406232:	48 01 d0             	add    %rdx,%rax
  406235:	0f b6 00             	movzbl (%rax),%eax
  406238:	3c 0d                	cmp    $0xd,%al
  40623a:	74 b0                	je     4061ec <teavpn_server_config_parser+0x128>
  40623c:	48 8b 85 c0 ef ff ff 	mov    -0x1040(%rbp),%rax
  406243:	48 89 85 e8 ef ff ff 	mov    %rax,-0x1018(%rbp)
  40624a:	48 8d 95 f0 ef ff ff 	lea    -0x1010(%rbp),%rdx
  406251:	48 8b 85 c0 ef ff ff 	mov    -0x1040(%rbp),%rax
  406258:	48 01 d0             	add    %rdx,%rax
  40625b:	0f b6 00             	movzbl (%rax),%eax
  40625e:	3c 23                	cmp    $0x23,%al
  406260:	0f 84 2d 06 00 00    	je     406893 <teavpn_server_config_parser+0x7cf>
  406266:	48 8d 95 f0 ef ff ff 	lea    -0x1010(%rbp),%rdx
  40626d:	48 8b 85 c0 ef ff ff 	mov    -0x1040(%rbp),%rax
  406274:	48 01 d0             	add    %rdx,%rax
  406277:	0f b6 00             	movzbl (%rax),%eax
  40627a:	3c 0a                	cmp    $0xa,%al
  40627c:	75 4b                	jne    4062c9 <teavpn_server_config_parser+0x205>
  40627e:	e9 10 06 00 00       	jmpq   406893 <teavpn_server_config_parser+0x7cf>
  406283:	48 8d 95 f0 ef ff ff 	lea    -0x1010(%rbp),%rdx
  40628a:	48 8b 85 c0 ef ff ff 	mov    -0x1040(%rbp),%rax
  406291:	48 01 d0             	add    %rdx,%rax
  406294:	0f b6 00             	movzbl (%rax),%eax
  406297:	3c 0a                	cmp    $0xa,%al
  406299:	75 26                	jne    4062c1 <teavpn_server_config_parser+0x1fd>
  40629b:	0f b7 85 be ef ff ff 	movzwl -0x1042(%rbp),%eax
  4062a2:	89 c6                	mov    %eax,%esi
  4062a4:	48 8d 3d 2d 38 00 00 	lea    0x382d(%rip),%rdi        # 409ad8 <_IO_stdin_used+0xad8>
  4062ab:	b8 00 00 00 00       	mov    $0x0,%eax
  4062b0:	e8 1b c3 ff ff       	callq  4025d0 <printf@plt>
  4062b5:	c6 85 bc ef ff ff 00 	movb   $0x0,-0x1044(%rbp)
  4062bc:	e9 f7 05 00 00       	jmpq   4068b8 <teavpn_server_config_parser+0x7f4>
  4062c1:	48 83 85 c0 ef ff ff 	addq   $0x1,-0x1040(%rbp)
  4062c8:	01 
  4062c9:	48 8d 95 f0 ef ff ff 	lea    -0x1010(%rbp),%rdx
  4062d0:	48 8b 85 c0 ef ff ff 	mov    -0x1040(%rbp),%rax
  4062d7:	48 01 d0             	add    %rdx,%rax
  4062da:	0f b6 00             	movzbl (%rax),%eax
  4062dd:	3c 3d                	cmp    $0x3d,%al
  4062df:	75 a2                	jne    406283 <teavpn_server_config_parser+0x1bf>
  4062e1:	48 8d 95 f0 ef ff ff 	lea    -0x1010(%rbp),%rdx
  4062e8:	48 8b 85 c0 ef ff ff 	mov    -0x1040(%rbp),%rax
  4062ef:	48 01 d0             	add    %rdx,%rax
  4062f2:	c6 00 00             	movb   $0x0,(%rax)
  4062f5:	48 8b 85 c0 ef ff ff 	mov    -0x1040(%rbp),%rax
  4062fc:	48 83 c0 01          	add    $0x1,%rax
  406300:	48 89 85 c8 ef ff ff 	mov    %rax,-0x1038(%rbp)
  406307:	48 83 ad c0 ef ff ff 	subq   $0x1,-0x1040(%rbp)
  40630e:	01 
  40630f:	c6 85 bd ef ff ff 00 	movb   $0x0,-0x1043(%rbp)
  406316:	eb 0f                	jmp    406327 <teavpn_server_config_parser+0x263>
  406318:	48 83 ad c0 ef ff ff 	subq   $0x1,-0x1040(%rbp)
  40631f:	01 
  406320:	c6 85 bd ef ff ff 01 	movb   $0x1,-0x1043(%rbp)
  406327:	48 8d 95 f0 ef ff ff 	lea    -0x1010(%rbp),%rdx
  40632e:	48 8b 85 c0 ef ff ff 	mov    -0x1040(%rbp),%rax
  406335:	48 01 d0             	add    %rdx,%rax
  406338:	0f b6 00             	movzbl (%rax),%eax
  40633b:	3c 20                	cmp    $0x20,%al
  40633d:	74 d9                	je     406318 <teavpn_server_config_parser+0x254>
  40633f:	48 8d 95 f0 ef ff ff 	lea    -0x1010(%rbp),%rdx
  406346:	48 8b 85 c0 ef ff ff 	mov    -0x1040(%rbp),%rax
  40634d:	48 01 d0             	add    %rdx,%rax
  406350:	0f b6 00             	movzbl (%rax),%eax
  406353:	3c 09                	cmp    $0x9,%al
  406355:	74 c1                	je     406318 <teavpn_server_config_parser+0x254>
  406357:	48 8d 95 f0 ef ff ff 	lea    -0x1010(%rbp),%rdx
  40635e:	48 8b 85 c0 ef ff ff 	mov    -0x1040(%rbp),%rax
  406365:	48 01 d0             	add    %rdx,%rax
  406368:	0f b6 00             	movzbl (%rax),%eax
  40636b:	3c 0d                	cmp    $0xd,%al
  40636d:	74 a9                	je     406318 <teavpn_server_config_parser+0x254>
  40636f:	80 bd bd ef ff ff 00 	cmpb   $0x0,-0x1043(%rbp)
  406376:	74 1d                	je     406395 <teavpn_server_config_parser+0x2d1>
  406378:	48 8b 85 c0 ef ff ff 	mov    -0x1040(%rbp),%rax
  40637f:	48 83 c0 01          	add    $0x1,%rax
  406383:	c6 84 05 f0 ef ff ff 	movb   $0x0,-0x1010(%rbp,%rax,1)
  40638a:	00 
  40638b:	eb 08                	jmp    406395 <teavpn_server_config_parser+0x2d1>
  40638d:	48 83 85 c8 ef ff ff 	addq   $0x1,-0x1038(%rbp)
  406394:	01 
  406395:	48 8d 95 f0 ef ff ff 	lea    -0x1010(%rbp),%rdx
  40639c:	48 8b 85 c8 ef ff ff 	mov    -0x1038(%rbp),%rax
  4063a3:	48 01 d0             	add    %rdx,%rax
  4063a6:	0f b6 00             	movzbl (%rax),%eax
  4063a9:	3c 20                	cmp    $0x20,%al
  4063ab:	74 e0                	je     40638d <teavpn_server_config_parser+0x2c9>
  4063ad:	48 8d 95 f0 ef ff ff 	lea    -0x1010(%rbp),%rdx
  4063b4:	48 8b 85 c8 ef ff ff 	mov    -0x1038(%rbp),%rax
  4063bb:	48 01 d0             	add    %rdx,%rax
  4063be:	0f b6 00             	movzbl (%rax),%eax
  4063c1:	3c 09                	cmp    $0x9,%al
  4063c3:	74 c8                	je     40638d <teavpn_server_config_parser+0x2c9>
  4063c5:	48 8d 95 f0 ef ff ff 	lea    -0x1010(%rbp),%rdx
  4063cc:	48 8b 85 c8 ef ff ff 	mov    -0x1038(%rbp),%rax
  4063d3:	48 01 d0             	add    %rdx,%rax
  4063d6:	0f b6 00             	movzbl (%rax),%eax
  4063d9:	3c 0d                	cmp    $0xd,%al
  4063db:	74 b0                	je     40638d <teavpn_server_config_parser+0x2c9>
  4063dd:	48 8b 85 c8 ef ff ff 	mov    -0x1038(%rbp),%rax
  4063e4:	48 89 85 d0 ef ff ff 	mov    %rax,-0x1030(%rbp)
  4063eb:	48 8d 95 f0 ef ff ff 	lea    -0x1010(%rbp),%rdx
  4063f2:	48 8b 85 c8 ef ff ff 	mov    -0x1038(%rbp),%rax
  4063f9:	48 01 d0             	add    %rdx,%rax
  4063fc:	0f b6 00             	movzbl (%rax),%eax
  4063ff:	3c 0a                	cmp    $0xa,%al
  406401:	75 61                	jne    406464 <teavpn_server_config_parser+0x3a0>
  406403:	48 8d 95 f0 ef ff ff 	lea    -0x1010(%rbp),%rdx
  40640a:	48 8b 85 c8 ef ff ff 	mov    -0x1038(%rbp),%rax
  406411:	48 01 d0             	add    %rdx,%rax
  406414:	c6 00 00             	movb   $0x0,(%rax)
  406417:	e9 f8 00 00 00       	jmpq   406514 <teavpn_server_config_parser+0x450>
  40641c:	48 8d 95 f0 ef ff ff 	lea    -0x1010(%rbp),%rdx
  406423:	48 8b 85 d0 ef ff ff 	mov    -0x1030(%rbp),%rax
  40642a:	48 01 d0             	add    %rdx,%rax
  40642d:	0f b6 00             	movzbl (%rax),%eax
  406430:	3c 23                	cmp    $0x23,%al
  406432:	75 28                	jne    40645c <teavpn_server_config_parser+0x398>
  406434:	48 8b 85 d0 ef ff ff 	mov    -0x1030(%rbp),%rax
  40643b:	48 83 c0 01          	add    $0x1,%rax
  40643f:	48 89 85 e0 ef ff ff 	mov    %rax,-0x1020(%rbp)
  406446:	48 8d 95 f0 ef ff ff 	lea    -0x1010(%rbp),%rdx
  40644d:	48 8b 85 d0 ef ff ff 	mov    -0x1030(%rbp),%rax
  406454:	48 01 d0             	add    %rdx,%rax
  406457:	c6 00 0a             	movb   $0xa,(%rax)
  40645a:	eb 20                	jmp    40647c <teavpn_server_config_parser+0x3b8>
  40645c:	48 83 85 d0 ef ff ff 	addq   $0x1,-0x1030(%rbp)
  406463:	01 
  406464:	48 8d 95 f0 ef ff ff 	lea    -0x1010(%rbp),%rdx
  40646b:	48 8b 85 d0 ef ff ff 	mov    -0x1030(%rbp),%rax
  406472:	48 01 d0             	add    %rdx,%rax
  406475:	0f b6 00             	movzbl (%rax),%eax
  406478:	3c 0a                	cmp    $0xa,%al
  40647a:	75 a0                	jne    40641c <teavpn_server_config_parser+0x358>
  40647c:	48 8d 95 f0 ef ff ff 	lea    -0x1010(%rbp),%rdx
  406483:	48 8b 85 d0 ef ff ff 	mov    -0x1030(%rbp),%rax
  40648a:	48 01 d0             	add    %rdx,%rax
  40648d:	c6 00 00             	movb   $0x0,(%rax)
  406490:	48 83 ad d0 ef ff ff 	subq   $0x1,-0x1030(%rbp)
  406497:	01 
  406498:	c6 85 bd ef ff ff 00 	movb   $0x0,-0x1043(%rbp)
  40649f:	eb 0f                	jmp    4064b0 <teavpn_server_config_parser+0x3ec>
  4064a1:	48 83 ad d0 ef ff ff 	subq   $0x1,-0x1030(%rbp)
  4064a8:	01 
  4064a9:	c6 85 bd ef ff ff 01 	movb   $0x1,-0x1043(%rbp)
  4064b0:	48 8d 95 f0 ef ff ff 	lea    -0x1010(%rbp),%rdx
  4064b7:	48 8b 85 d0 ef ff ff 	mov    -0x1030(%rbp),%rax
  4064be:	48 01 d0             	add    %rdx,%rax
  4064c1:	0f b6 00             	movzbl (%rax),%eax
  4064c4:	3c 20                	cmp    $0x20,%al
  4064c6:	74 d9                	je     4064a1 <teavpn_server_config_parser+0x3dd>
  4064c8:	48 8d 95 f0 ef ff ff 	lea    -0x1010(%rbp),%rdx
  4064cf:	48 8b 85 d0 ef ff ff 	mov    -0x1030(%rbp),%rax
  4064d6:	48 01 d0             	add    %rdx,%rax
  4064d9:	0f b6 00             	movzbl (%rax),%eax
  4064dc:	3c 09                	cmp    $0x9,%al
  4064de:	74 c1                	je     4064a1 <teavpn_server_config_parser+0x3dd>
  4064e0:	48 8d 95 f0 ef ff ff 	lea    -0x1010(%rbp),%rdx
  4064e7:	48 8b 85 d0 ef ff ff 	mov    -0x1030(%rbp),%rax
  4064ee:	48 01 d0             	add    %rdx,%rax
  4064f1:	0f b6 00             	movzbl (%rax),%eax
  4064f4:	3c 0d                	cmp    $0xd,%al
  4064f6:	74 a9                	je     4064a1 <teavpn_server_config_parser+0x3dd>
  4064f8:	80 bd bd ef ff ff 00 	cmpb   $0x0,-0x1043(%rbp)
  4064ff:	74 13                	je     406514 <teavpn_server_config_parser+0x450>
  406501:	48 8b 85 d0 ef ff ff 	mov    -0x1030(%rbp),%rax
  406508:	48 83 c0 01          	add    $0x1,%rax
  40650c:	c6 84 05 f0 ef ff ff 	movb   $0x0,-0x1010(%rbp,%rax,1)
  406513:	00 
  406514:	48 8d 95 f0 ef ff ff 	lea    -0x1010(%rbp),%rdx
  40651b:	48 8b 85 e8 ef ff ff 	mov    -0x1018(%rbp),%rax
  406522:	48 01 d0             	add    %rdx,%rax
  406525:	48 8d 35 e3 35 00 00 	lea    0x35e3(%rip),%rsi        # 409b0f <_IO_stdin_used+0xb0f>
  40652c:	48 89 c7             	mov    %rax,%rdi
  40652f:	e8 6c c1 ff ff       	callq  4026a0 <strcmp@plt>
  406534:	85 c0                	test   %eax,%eax
  406536:	75 54                	jne    40658c <teavpn_server_config_parser+0x4c8>
  406538:	48 8d 95 f0 ef ff ff 	lea    -0x1010(%rbp),%rdx
  40653f:	48 8b 85 c8 ef ff ff 	mov    -0x1038(%rbp),%rax
  406546:	48 01 c2             	add    %rax,%rdx
  406549:	48 8b 85 a8 ef ff ff 	mov    -0x1058(%rbp),%rax
  406550:	48 89 d6             	mov    %rdx,%rsi
  406553:	48 89 c7             	mov    %rax,%rdi
  406556:	e8 75 bf ff ff       	callq  4024d0 <strcpy@plt>
  40655b:	48 8b 85 a0 ef ff ff 	mov    -0x1060(%rbp),%rax
  406562:	48 8b 95 a8 ef ff ff 	mov    -0x1058(%rbp),%rdx
  406569:	48 89 50 20          	mov    %rdx,0x20(%rax)
  40656d:	48 8b 85 a8 ef ff ff 	mov    -0x1058(%rbp),%rax
  406574:	48 89 c7             	mov    %rax,%rdi
  406577:	e8 f4 bf ff ff       	callq  402570 <strlen@plt>
  40657c:	48 83 c0 01          	add    $0x1,%rax
  406580:	48 01 85 a8 ef ff ff 	add    %rax,-0x1058(%rbp)
  406587:	e9 f6 02 00 00       	jmpq   406882 <teavpn_server_config_parser+0x7be>
  40658c:	48 8d 95 f0 ef ff ff 	lea    -0x1010(%rbp),%rdx
  406593:	48 8b 85 e8 ef ff ff 	mov    -0x1018(%rbp),%rax
  40659a:	48 01 d0             	add    %rdx,%rax
  40659d:	48 8d 35 6f 35 00 00 	lea    0x356f(%rip),%rsi        # 409b13 <_IO_stdin_used+0xb13>
  4065a4:	48 89 c7             	mov    %rax,%rdi
  4065a7:	e8 f4 c0 ff ff       	callq  4026a0 <strcmp@plt>
  4065ac:	85 c0                	test   %eax,%eax
  4065ae:	75 2b                	jne    4065db <teavpn_server_config_parser+0x517>
  4065b0:	48 8d 95 f0 ef ff ff 	lea    -0x1010(%rbp),%rdx
  4065b7:	48 8b 85 c8 ef ff ff 	mov    -0x1038(%rbp),%rax
  4065be:	48 01 d0             	add    %rdx,%rax
  4065c1:	48 89 c7             	mov    %rax,%rdi
  4065c4:	e8 37 c2 ff ff       	callq  402800 <atoi@plt>
  4065c9:	89 c2                	mov    %eax,%edx
  4065cb:	48 8b 85 a0 ef ff ff 	mov    -0x1060(%rbp),%rax
  4065d2:	66 89 50 38          	mov    %dx,0x38(%rax)
  4065d6:	e9 a7 02 00 00       	jmpq   406882 <teavpn_server_config_parser+0x7be>
  4065db:	48 8d 95 f0 ef ff ff 	lea    -0x1010(%rbp),%rdx
  4065e2:	48 8b 85 e8 ef ff ff 	mov    -0x1018(%rbp),%rax
  4065e9:	48 01 d0             	add    %rdx,%rax
  4065ec:	48 8d 35 24 35 00 00 	lea    0x3524(%rip),%rsi        # 409b17 <_IO_stdin_used+0xb17>
  4065f3:	48 89 c7             	mov    %rax,%rdi
  4065f6:	e8 a5 c0 ff ff       	callq  4026a0 <strcmp@plt>
  4065fb:	85 c0                	test   %eax,%eax
  4065fd:	75 54                	jne    406653 <teavpn_server_config_parser+0x58f>
  4065ff:	48 8d 95 f0 ef ff ff 	lea    -0x1010(%rbp),%rdx
  406606:	48 8b 85 c8 ef ff ff 	mov    -0x1038(%rbp),%rax
  40660d:	48 01 c2             	add    %rax,%rdx
  406610:	48 8b 85 a8 ef ff ff 	mov    -0x1058(%rbp),%rax
  406617:	48 89 d6             	mov    %rdx,%rsi
  40661a:	48 89 c7             	mov    %rax,%rdi
  40661d:	e8 ae be ff ff       	callq  4024d0 <strcpy@plt>
  406622:	48 8b 85 a0 ef ff ff 	mov    -0x1060(%rbp),%rax
  406629:	48 8b 95 a8 ef ff ff 	mov    -0x1058(%rbp),%rdx
  406630:	48 89 50 28          	mov    %rdx,0x28(%rax)
  406634:	48 8b 85 a8 ef ff ff 	mov    -0x1058(%rbp),%rax
  40663b:	48 89 c7             	mov    %rax,%rdi
  40663e:	e8 2d bf ff ff       	callq  402570 <strlen@plt>
  406643:	48 83 c0 01          	add    $0x1,%rax
  406647:	48 01 85 a8 ef ff ff 	add    %rax,-0x1058(%rbp)
  40664e:	e9 2f 02 00 00       	jmpq   406882 <teavpn_server_config_parser+0x7be>
  406653:	48 8d 95 f0 ef ff ff 	lea    -0x1010(%rbp),%rdx
  40665a:	48 8b 85 e8 ef ff ff 	mov    -0x1018(%rbp),%rax
  406661:	48 01 d0             	add    %rdx,%rax
  406664:	48 8d 35 b2 34 00 00 	lea    0x34b2(%rip),%rsi        # 409b1d <_IO_stdin_used+0xb1d>
  40666b:	48 89 c7             	mov    %rax,%rdi
  40666e:	e8 2d c0 ff ff       	callq  4026a0 <strcmp@plt>
  406673:	85 c0                	test   %eax,%eax
  406675:	75 54                	jne    4066cb <teavpn_server_config_parser+0x607>
  406677:	48 8d 95 f0 ef ff ff 	lea    -0x1010(%rbp),%rdx
  40667e:	48 8b 85 c8 ef ff ff 	mov    -0x1038(%rbp),%rax
  406685:	48 01 c2             	add    %rax,%rdx
  406688:	48 8b 85 a8 ef ff ff 	mov    -0x1058(%rbp),%rax
  40668f:	48 89 d6             	mov    %rdx,%rsi
  406692:	48 89 c7             	mov    %rax,%rdi
  406695:	e8 36 be ff ff       	callq  4024d0 <strcpy@plt>
  40669a:	48 8b 85 a0 ef ff ff 	mov    -0x1060(%rbp),%rax
  4066a1:	48 8b 95 a8 ef ff ff 	mov    -0x1058(%rbp),%rdx
  4066a8:	48 89 50 30          	mov    %rdx,0x30(%rax)
  4066ac:	48 8b 85 a8 ef ff ff 	mov    -0x1058(%rbp),%rax
  4066b3:	48 89 c7             	mov    %rax,%rdi
  4066b6:	e8 b5 be ff ff       	callq  402570 <strlen@plt>
  4066bb:	48 83 c0 01          	add    $0x1,%rax
  4066bf:	48 01 85 a8 ef ff ff 	add    %rax,-0x1058(%rbp)
  4066c6:	e9 b7 01 00 00       	jmpq   406882 <teavpn_server_config_parser+0x7be>
  4066cb:	48 8d 95 f0 ef ff ff 	lea    -0x1010(%rbp),%rdx
  4066d2:	48 8b 85 e8 ef ff ff 	mov    -0x1018(%rbp),%rax
  4066d9:	48 01 d0             	add    %rdx,%rax
  4066dc:	48 8d 35 47 34 00 00 	lea    0x3447(%rip),%rsi        # 409b2a <_IO_stdin_used+0xb2a>
  4066e3:	48 89 c7             	mov    %rax,%rdi
  4066e6:	e8 b5 bf ff ff       	callq  4026a0 <strcmp@plt>
  4066eb:	85 c0                	test   %eax,%eax
  4066ed:	75 53                	jne    406742 <teavpn_server_config_parser+0x67e>
  4066ef:	48 8d 95 f0 ef ff ff 	lea    -0x1010(%rbp),%rdx
  4066f6:	48 8b 85 c8 ef ff ff 	mov    -0x1038(%rbp),%rax
  4066fd:	48 01 c2             	add    %rax,%rdx
  406700:	48 8b 85 a8 ef ff ff 	mov    -0x1058(%rbp),%rax
  406707:	48 89 d6             	mov    %rdx,%rsi
  40670a:	48 89 c7             	mov    %rax,%rdi
  40670d:	e8 be bd ff ff       	callq  4024d0 <strcpy@plt>
  406712:	48 8b 85 a0 ef ff ff 	mov    -0x1060(%rbp),%rax
  406719:	48 8b 95 a8 ef ff ff 	mov    -0x1058(%rbp),%rdx
  406720:	48 89 10             	mov    %rdx,(%rax)
  406723:	48 8b 85 a8 ef ff ff 	mov    -0x1058(%rbp),%rax
  40672a:	48 89 c7             	mov    %rax,%rdi
  40672d:	e8 3e be ff ff       	callq  402570 <strlen@plt>
  406732:	48 83 c0 01          	add    $0x1,%rax
  406736:	48 01 85 a8 ef ff ff 	add    %rax,-0x1058(%rbp)
  40673d:	e9 40 01 00 00       	jmpq   406882 <teavpn_server_config_parser+0x7be>
  406742:	48 8d 95 f0 ef ff ff 	lea    -0x1010(%rbp),%rdx
  406749:	48 8b 85 e8 ef ff ff 	mov    -0x1018(%rbp),%rax
  406750:	48 01 d0             	add    %rdx,%rax
  406753:	48 8d 35 da 33 00 00 	lea    0x33da(%rip),%rsi        # 409b34 <_IO_stdin_used+0xb34>
  40675a:	48 89 c7             	mov    %rax,%rdi
  40675d:	e8 3e bf ff ff       	callq  4026a0 <strcmp@plt>
  406762:	85 c0                	test   %eax,%eax
  406764:	75 2b                	jne    406791 <teavpn_server_config_parser+0x6cd>
  406766:	48 8d 95 f0 ef ff ff 	lea    -0x1010(%rbp),%rdx
  40676d:	48 8b 85 c8 ef ff ff 	mov    -0x1038(%rbp),%rax
  406774:	48 01 d0             	add    %rdx,%rax
  406777:	48 89 c7             	mov    %rax,%rdi
  40677a:	e8 81 c0 ff ff       	callq  402800 <atoi@plt>
  40677f:	89 c2                	mov    %eax,%edx
  406781:	48 8b 85 a0 ef ff ff 	mov    -0x1060(%rbp),%rax
  406788:	66 89 50 3a          	mov    %dx,0x3a(%rax)
  40678c:	e9 f1 00 00 00       	jmpq   406882 <teavpn_server_config_parser+0x7be>
  406791:	48 8d 95 f0 ef ff ff 	lea    -0x1010(%rbp),%rdx
  406798:	48 8b 85 e8 ef ff ff 	mov    -0x1018(%rbp),%rax
  40679f:	48 01 d0             	add    %rdx,%rax
  4067a2:	48 8d 35 95 33 00 00 	lea    0x3395(%rip),%rsi        # 409b3e <_IO_stdin_used+0xb3e>
  4067a9:	48 89 c7             	mov    %rax,%rdi
  4067ac:	e8 ef be ff ff       	callq  4026a0 <strcmp@plt>
  4067b1:	85 c0                	test   %eax,%eax
  4067b3:	75 2a                	jne    4067df <teavpn_server_config_parser+0x71b>
  4067b5:	48 8d 95 f0 ef ff ff 	lea    -0x1010(%rbp),%rdx
  4067bc:	48 8b 85 c8 ef ff ff 	mov    -0x1038(%rbp),%rax
  4067c3:	48 01 d0             	add    %rdx,%rax
  4067c6:	48 89 c7             	mov    %rax,%rdi
  4067c9:	e8 32 c0 ff ff       	callq  402800 <atoi@plt>
  4067ce:	89 c2                	mov    %eax,%edx
  4067d0:	48 8b 85 a0 ef ff ff 	mov    -0x1060(%rbp),%rax
  4067d7:	88 50 3d             	mov    %dl,0x3d(%rax)
  4067da:	e9 a3 00 00 00       	jmpq   406882 <teavpn_server_config_parser+0x7be>
  4067df:	48 8d 95 f0 ef ff ff 	lea    -0x1010(%rbp),%rdx
  4067e6:	48 8b 85 e8 ef ff ff 	mov    -0x1018(%rbp),%rax
  4067ed:	48 01 d0             	add    %rdx,%rax
  4067f0:	48 8d 35 4f 33 00 00 	lea    0x334f(%rip),%rsi        # 409b46 <_IO_stdin_used+0xb46>
  4067f7:	48 89 c7             	mov    %rax,%rdi
  4067fa:	e8 a1 be ff ff       	callq  4026a0 <strcmp@plt>
  4067ff:	85 c0                	test   %eax,%eax
  406801:	75 51                	jne    406854 <teavpn_server_config_parser+0x790>
  406803:	48 8d 95 f0 ef ff ff 	lea    -0x1010(%rbp),%rdx
  40680a:	48 8b 85 c8 ef ff ff 	mov    -0x1038(%rbp),%rax
  406811:	48 01 c2             	add    %rax,%rdx
  406814:	48 8b 85 a8 ef ff ff 	mov    -0x1058(%rbp),%rax
  40681b:	48 89 d6             	mov    %rdx,%rsi
  40681e:	48 89 c7             	mov    %rax,%rdi
  406821:	e8 aa bc ff ff       	callq  4024d0 <strcpy@plt>
  406826:	48 8b 85 a0 ef ff ff 	mov    -0x1060(%rbp),%rax
  40682d:	48 8b 95 a8 ef ff ff 	mov    -0x1058(%rbp),%rdx
  406834:	48 89 50 18          	mov    %rdx,0x18(%rax)
  406838:	48 8b 85 a8 ef ff ff 	mov    -0x1058(%rbp),%rax
  40683f:	48 89 c7             	mov    %rax,%rdi
  406842:	e8 29 bd ff ff       	callq  402570 <strlen@plt>
  406847:	48 83 c0 01          	add    $0x1,%rax
  40684b:	48 01 85 a8 ef ff ff 	add    %rax,-0x1058(%rbp)
  406852:	eb 2e                	jmp    406882 <teavpn_server_config_parser+0x7be>
  406854:	0f b7 85 be ef ff ff 	movzwl -0x1042(%rbp),%eax
  40685b:	48 8d 8d f0 ef ff ff 	lea    -0x1010(%rbp),%rcx
  406862:	48 8b 95 e8 ef ff ff 	mov    -0x1018(%rbp),%rdx
  406869:	48 01 d1             	add    %rdx,%rcx
  40686c:	89 c2                	mov    %eax,%edx
  40686e:	48 89 ce             	mov    %rcx,%rsi
  406871:	48 8d 3d d8 32 00 00 	lea    0x32d8(%rip),%rdi        # 409b50 <_IO_stdin_used+0xb50>
  406878:	b8 00 00 00 00       	mov    $0x0,%eax
  40687d:	e8 4e bd ff ff       	callq  4025d0 <printf@plt>
  406882:	0f b7 85 be ef ff ff 	movzwl -0x1042(%rbp),%eax
  406889:	83 c0 01             	add    $0x1,%eax
  40688c:	66 89 85 be ef ff ff 	mov    %ax,-0x1042(%rbp)
  406893:	48 8b 95 d8 ef ff ff 	mov    -0x1028(%rbp),%rdx
  40689a:	48 8d 85 f0 ef ff ff 	lea    -0x1010(%rbp),%rax
  4068a1:	be ff 0f 00 00       	mov    $0xfff,%esi
  4068a6:	48 89 c7             	mov    %rax,%rdi
  4068a9:	e8 c2 bd ff ff       	callq  402670 <fgets@plt>
  4068ae:	48 85 c0             	test   %rax,%rax
  4068b1:	0f 85 aa f8 ff ff    	jne    406161 <teavpn_server_config_parser+0x9d>
  4068b7:	90                   	nop
  4068b8:	48 8b 85 d8 ef ff ff 	mov    -0x1028(%rbp),%rax
  4068bf:	48 89 c7             	mov    %rax,%rdi
  4068c2:	e8 99 bc ff ff       	callq  402560 <fclose@plt>
  4068c7:	0f b6 85 bc ef ff ff 	movzbl -0x1044(%rbp),%eax
  4068ce:	48 8b 4d f8          	mov    -0x8(%rbp),%rcx
  4068d2:	64 48 33 0c 25 28 00 	xor    %fs:0x28,%rcx
  4068d9:	00 00 
  4068db:	74 05                	je     4068e2 <teavpn_server_config_parser+0x81e>
  4068dd:	e8 9e bc ff ff       	callq  402580 <__stack_chk_fail@plt>
  4068e2:	c9                   	leaveq 
  4068e3:	c3                   	retq   

00000000004068e4 <teavpn_client_config_parser>:
  4068e4:	f3 0f 1e fa          	endbr64 
  4068e8:	55                   	push   %rbp
  4068e9:	48 89 e5             	mov    %rsp,%rbp
  4068ec:	48 81 ec 00 10 00 00 	sub    $0x1000,%rsp
  4068f3:	48 83 0c 24 00       	orq    $0x0,(%rsp)
  4068f8:	48 83 ec 60          	sub    $0x60,%rsp
  4068fc:	48 89 bd a8 ef ff ff 	mov    %rdi,-0x1058(%rbp)
  406903:	48 89 b5 a0 ef ff ff 	mov    %rsi,-0x1060(%rbp)
  40690a:	64 48 8b 04 25 28 00 	mov    %fs:0x28,%rax
  406911:	00 00 
  406913:	48 89 45 f8          	mov    %rax,-0x8(%rbp)
  406917:	31 c0                	xor    %eax,%eax
  406919:	66 c7 85 be ef ff ff 	movw   $0x1,-0x1042(%rbp)
  406920:	01 00 
  406922:	c6 85 bc ef ff ff 01 	movb   $0x1,-0x1044(%rbp)
  406929:	48 8b 85 a0 ef ff ff 	mov    -0x1060(%rbp),%rax
  406930:	48 8b 40 08          	mov    0x8(%rax),%rax
  406934:	48 8d 35 77 31 00 00 	lea    0x3177(%rip),%rsi        # 409ab2 <_IO_stdin_used+0xab2>
  40693b:	48 89 c7             	mov    %rax,%rdi
  40693e:	e8 7d be ff ff       	callq  4027c0 <fopen@plt>
  406943:	48 89 85 d8 ef ff ff 	mov    %rax,-0x1028(%rbp)
  40694a:	48 83 bd d8 ef ff ff 	cmpq   $0x0,-0x1028(%rbp)
  406951:	00 
  406952:	0f 85 95 06 00 00    	jne    406fed <teavpn_client_config_parser+0x709>
  406958:	48 8b 85 a0 ef ff ff 	mov    -0x1060(%rbp),%rax
  40695f:	48 8b 40 08          	mov    0x8(%rax),%rax
  406963:	48 89 c6             	mov    %rax,%rsi
  406966:	48 8d 3d 47 31 00 00 	lea    0x3147(%rip),%rdi        # 409ab4 <_IO_stdin_used+0xab4>
  40696d:	b8 00 00 00 00       	mov    $0x0,%eax
  406972:	e8 59 bc ff ff       	callq  4025d0 <printf@plt>
  406977:	b8 00 00 00 00       	mov    $0x0,%eax
  40697c:	e9 a7 06 00 00       	jmpq   407028 <teavpn_client_config_parser+0x744>
  406981:	48 8d 85 f0 ef ff ff 	lea    -0x1010(%rbp),%rax
  406988:	48 89 c7             	mov    %rax,%rdi
  40698b:	e8 e0 bb ff ff       	callq  402570 <strlen@plt>
  406990:	48 89 85 e0 ef ff ff 	mov    %rax,-0x1020(%rbp)
  406997:	48 8b 85 e0 ef ff ff 	mov    -0x1020(%rbp),%rax
  40699e:	48 83 e8 01          	sub    $0x1,%rax
  4069a2:	0f b6 84 05 f0 ef ff 	movzbl -0x1010(%rbp,%rax,1),%eax
  4069a9:	ff 
  4069aa:	3c 0a                	cmp    $0xa,%al
  4069ac:	74 27                	je     4069d5 <teavpn_client_config_parser+0xf1>
  4069ae:	48 8d 95 f0 ef ff ff 	lea    -0x1010(%rbp),%rdx
  4069b5:	48 8b 85 e0 ef ff ff 	mov    -0x1020(%rbp),%rax
  4069bc:	48 01 d0             	add    %rdx,%rax
  4069bf:	c6 00 0a             	movb   $0xa,(%rax)
  4069c2:	48 8b 85 e0 ef ff ff 	mov    -0x1020(%rbp),%rax
  4069c9:	48 83 c0 01          	add    $0x1,%rax
  4069cd:	c6 84 05 f0 ef ff ff 	movb   $0x0,-0x1010(%rbp,%rax,1)
  4069d4:	00 
  4069d5:	48 c7 85 d0 ef ff ff 	movq   $0x0,-0x1030(%rbp)
  4069dc:	00 00 00 00 
  4069e0:	48 8b 85 d0 ef ff ff 	mov    -0x1030(%rbp),%rax
  4069e7:	48 89 85 c8 ef ff ff 	mov    %rax,-0x1038(%rbp)
  4069ee:	48 8b 85 c8 ef ff ff 	mov    -0x1038(%rbp),%rax
  4069f5:	48 89 85 e8 ef ff ff 	mov    %rax,-0x1018(%rbp)
  4069fc:	48 8b 85 e8 ef ff ff 	mov    -0x1018(%rbp),%rax
  406a03:	48 89 85 c0 ef ff ff 	mov    %rax,-0x1040(%rbp)
  406a0a:	eb 08                	jmp    406a14 <teavpn_client_config_parser+0x130>
  406a0c:	48 83 85 c0 ef ff ff 	addq   $0x1,-0x1040(%rbp)
  406a13:	01 
  406a14:	48 8d 95 f0 ef ff ff 	lea    -0x1010(%rbp),%rdx
  406a1b:	48 8b 85 c0 ef ff ff 	mov    -0x1040(%rbp),%rax
  406a22:	48 01 d0             	add    %rdx,%rax
  406a25:	0f b6 00             	movzbl (%rax),%eax
  406a28:	3c 20                	cmp    $0x20,%al
  406a2a:	74 e0                	je     406a0c <teavpn_client_config_parser+0x128>
  406a2c:	48 8d 95 f0 ef ff ff 	lea    -0x1010(%rbp),%rdx
  406a33:	48 8b 85 c0 ef ff ff 	mov    -0x1040(%rbp),%rax
  406a3a:	48 01 d0             	add    %rdx,%rax
  406a3d:	0f b6 00             	movzbl (%rax),%eax
  406a40:	3c 09                	cmp    $0x9,%al
  406a42:	74 c8                	je     406a0c <teavpn_client_config_parser+0x128>
  406a44:	48 8d 95 f0 ef ff ff 	lea    -0x1010(%rbp),%rdx
  406a4b:	48 8b 85 c0 ef ff ff 	mov    -0x1040(%rbp),%rax
  406a52:	48 01 d0             	add    %rdx,%rax
  406a55:	0f b6 00             	movzbl (%rax),%eax
  406a58:	3c 0d                	cmp    $0xd,%al
  406a5a:	74 b0                	je     406a0c <teavpn_client_config_parser+0x128>
  406a5c:	48 8b 85 c0 ef ff ff 	mov    -0x1040(%rbp),%rax
  406a63:	48 89 85 e8 ef ff ff 	mov    %rax,-0x1018(%rbp)
  406a6a:	48 8d 95 f0 ef ff ff 	lea    -0x1010(%rbp),%rdx
  406a71:	48 8b 85 c0 ef ff ff 	mov    -0x1040(%rbp),%rax
  406a78:	48 01 d0             	add    %rdx,%rax
  406a7b:	0f b6 00             	movzbl (%rax),%eax
  406a7e:	3c 23                	cmp    $0x23,%al
  406a80:	0f 84 67 05 00 00    	je     406fed <teavpn_client_config_parser+0x709>
  406a86:	48 8d 95 f0 ef ff ff 	lea    -0x1010(%rbp),%rdx
  406a8d:	48 8b 85 c0 ef ff ff 	mov    -0x1040(%rbp),%rax
  406a94:	48 01 d0             	add    %rdx,%rax
  406a97:	0f b6 00             	movzbl (%rax),%eax
  406a9a:	3c 0a                	cmp    $0xa,%al
  406a9c:	75 4b                	jne    406ae9 <teavpn_client_config_parser+0x205>
  406a9e:	e9 4a 05 00 00       	jmpq   406fed <teavpn_client_config_parser+0x709>
  406aa3:	48 8d 95 f0 ef ff ff 	lea    -0x1010(%rbp),%rdx
  406aaa:	48 8b 85 c0 ef ff ff 	mov    -0x1040(%rbp),%rax
  406ab1:	48 01 d0             	add    %rdx,%rax
  406ab4:	0f b6 00             	movzbl (%rax),%eax
  406ab7:	3c 0a                	cmp    $0xa,%al
  406ab9:	75 26                	jne    406ae1 <teavpn_client_config_parser+0x1fd>
  406abb:	0f b7 85 be ef ff ff 	movzwl -0x1042(%rbp),%eax
  406ac2:	89 c6                	mov    %eax,%esi
  406ac4:	48 8d 3d 0d 30 00 00 	lea    0x300d(%rip),%rdi        # 409ad8 <_IO_stdin_used+0xad8>
  406acb:	b8 00 00 00 00       	mov    $0x0,%eax
  406ad0:	e8 fb ba ff ff       	callq  4025d0 <printf@plt>
  406ad5:	c6 85 bc ef ff ff 00 	movb   $0x0,-0x1044(%rbp)
  406adc:	e9 31 05 00 00       	jmpq   407012 <teavpn_client_config_parser+0x72e>
  406ae1:	48 83 85 c0 ef ff ff 	addq   $0x1,-0x1040(%rbp)
  406ae8:	01 
  406ae9:	48 8d 95 f0 ef ff ff 	lea    -0x1010(%rbp),%rdx
  406af0:	48 8b 85 c0 ef ff ff 	mov    -0x1040(%rbp),%rax
  406af7:	48 01 d0             	add    %rdx,%rax
  406afa:	0f b6 00             	movzbl (%rax),%eax
  406afd:	3c 3d                	cmp    $0x3d,%al
  406aff:	75 a2                	jne    406aa3 <teavpn_client_config_parser+0x1bf>
  406b01:	48 8d 95 f0 ef ff ff 	lea    -0x1010(%rbp),%rdx
  406b08:	48 8b 85 c0 ef ff ff 	mov    -0x1040(%rbp),%rax
  406b0f:	48 01 d0             	add    %rdx,%rax
  406b12:	c6 00 00             	movb   $0x0,(%rax)
  406b15:	48 8b 85 c0 ef ff ff 	mov    -0x1040(%rbp),%rax
  406b1c:	48 83 c0 01          	add    $0x1,%rax
  406b20:	48 89 85 c8 ef ff ff 	mov    %rax,-0x1038(%rbp)
  406b27:	48 83 ad c0 ef ff ff 	subq   $0x1,-0x1040(%rbp)
  406b2e:	01 
  406b2f:	c6 85 bd ef ff ff 00 	movb   $0x0,-0x1043(%rbp)
  406b36:	eb 0f                	jmp    406b47 <teavpn_client_config_parser+0x263>
  406b38:	48 83 ad c0 ef ff ff 	subq   $0x1,-0x1040(%rbp)
  406b3f:	01 
  406b40:	c6 85 bd ef ff ff 01 	movb   $0x1,-0x1043(%rbp)
  406b47:	48 8d 95 f0 ef ff ff 	lea    -0x1010(%rbp),%rdx
  406b4e:	48 8b 85 c0 ef ff ff 	mov    -0x1040(%rbp),%rax
  406b55:	48 01 d0             	add    %rdx,%rax
  406b58:	0f b6 00             	movzbl (%rax),%eax
  406b5b:	3c 20                	cmp    $0x20,%al
  406b5d:	74 d9                	je     406b38 <teavpn_client_config_parser+0x254>
  406b5f:	48 8d 95 f0 ef ff ff 	lea    -0x1010(%rbp),%rdx
  406b66:	48 8b 85 c0 ef ff ff 	mov    -0x1040(%rbp),%rax
  406b6d:	48 01 d0             	add    %rdx,%rax
  406b70:	0f b6 00             	movzbl (%rax),%eax
  406b73:	3c 09                	cmp    $0x9,%al
  406b75:	74 c1                	je     406b38 <teavpn_client_config_parser+0x254>
  406b77:	48 8d 95 f0 ef ff ff 	lea    -0x1010(%rbp),%rdx
  406b7e:	48 8b 85 c0 ef ff ff 	mov    -0x1040(%rbp),%rax
  406b85:	48 01 d0             	add    %rdx,%rax
  406b88:	0f b6 00             	movzbl (%rax),%eax
  406b8b:	3c 0d                	cmp    $0xd,%al
  406b8d:	74 a9                	je     406b38 <teavpn_client_config_parser+0x254>
  406b8f:	80 bd bd ef ff ff 00 	cmpb   $0x0,-0x1043(%rbp)
  406b96:	74 1d                	je     406bb5 <teavpn_client_config_parser+0x2d1>
  406b98:	48 8b 85 c0 ef ff ff 	mov    -0x1040(%rbp),%rax
  406b9f:	48 83 c0 01          	add    $0x1,%rax
  406ba3:	c6 84 05 f0 ef ff ff 	movb   $0x0,-0x1010(%rbp,%rax,1)
  406baa:	00 
  406bab:	eb 08                	jmp    406bb5 <teavpn_client_config_parser+0x2d1>
  406bad:	48 83 85 c8 ef ff ff 	addq   $0x1,-0x1038(%rbp)
  406bb4:	01 
  406bb5:	48 8d 95 f0 ef ff ff 	lea    -0x1010(%rbp),%rdx
  406bbc:	48 8b 85 c8 ef ff ff 	mov    -0x1038(%rbp),%rax
  406bc3:	48 01 d0             	add    %rdx,%rax
  406bc6:	0f b6 00             	movzbl (%rax),%eax
  406bc9:	3c 20                	cmp    $0x20,%al
  406bcb:	74 e0                	je     406bad <teavpn_client_config_parser+0x2c9>
  406bcd:	48 8d 95 f0 ef ff ff 	lea    -0x1010(%rbp),%rdx
  406bd4:	48 8b 85 c8 ef ff ff 	mov    -0x1038(%rbp),%rax
  406bdb:	48 01 d0             	add    %rdx,%rax
  406bde:	0f b6 00             	movzbl (%rax),%eax
  406be1:	3c 09                	cmp    $0x9,%al
  406be3:	74 c8                	je     406bad <teavpn_client_config_parser+0x2c9>
  406be5:	48 8d 95 f0 ef ff ff 	lea    -0x1010(%rbp),%rdx
  406bec:	48 8b 85 c8 ef ff ff 	mov    -0x1038(%rbp),%rax
  406bf3:	48 01 d0             	add    %rdx,%rax
  406bf6:	0f b6 00             	movzbl (%rax),%eax
  406bf9:	3c 0d                	cmp    $0xd,%al
  406bfb:	74 b0                	je     406bad <teavpn_client_config_parser+0x2c9>
  406bfd:	48 8b 85 c8 ef ff ff 	mov    -0x1038(%rbp),%rax
  406c04:	48 89 85 d0 ef ff ff 	mov    %rax,-0x1030(%rbp)
  406c0b:	48 8d 95 f0 ef ff ff 	lea    -0x1010(%rbp),%rdx
  406c12:	48 8b 85 c8 ef ff ff 	mov    -0x1038(%rbp),%rax
  406c19:	48 01 d0             	add    %rdx,%rax
  406c1c:	0f b6 00             	movzbl (%rax),%eax
  406c1f:	3c 0a                	cmp    $0xa,%al
  406c21:	75 61                	jne    406c84 <teavpn_client_config_parser+0x3a0>
  406c23:	48 8d 95 f0 ef ff ff 	lea    -0x1010(%rbp),%rdx
  406c2a:	48 8b 85 c8 ef ff ff 	mov    -0x1038(%rbp),%rax
  406c31:	48 01 d0             	add    %rdx,%rax
  406c34:	c6 00 00             	movb   $0x0,(%rax)
  406c37:	e9 f8 00 00 00       	jmpq   406d34 <teavpn_client_config_parser+0x450>
  406c3c:	48 8d 95 f0 ef ff ff 	lea    -0x1010(%rbp),%rdx
  406c43:	48 8b 85 d0 ef ff ff 	mov    -0x1030(%rbp),%rax
  406c4a:	48 01 d0             	add    %rdx,%rax
  406c4d:	0f b6 00             	movzbl (%rax),%eax
  406c50:	3c 23                	cmp    $0x23,%al
  406c52:	75 28                	jne    406c7c <teavpn_client_config_parser+0x398>
  406c54:	48 8b 85 d0 ef ff ff 	mov    -0x1030(%rbp),%rax
  406c5b:	48 83 c0 01          	add    $0x1,%rax
  406c5f:	48 89 85 e0 ef ff ff 	mov    %rax,-0x1020(%rbp)
  406c66:	48 8d 95 f0 ef ff ff 	lea    -0x1010(%rbp),%rdx
  406c6d:	48 8b 85 d0 ef ff ff 	mov    -0x1030(%rbp),%rax
  406c74:	48 01 d0             	add    %rdx,%rax
  406c77:	c6 00 0a             	movb   $0xa,(%rax)
  406c7a:	eb 20                	jmp    406c9c <teavpn_client_config_parser+0x3b8>
  406c7c:	48 83 85 d0 ef ff ff 	addq   $0x1,-0x1030(%rbp)
  406c83:	01 
  406c84:	48 8d 95 f0 ef ff ff 	lea    -0x1010(%rbp),%rdx
  406c8b:	48 8b 85 d0 ef ff ff 	mov    -0x1030(%rbp),%rax
  406c92:	48 01 d0             	add    %rdx,%rax
  406c95:	0f b6 00             	movzbl (%rax),%eax
  406c98:	3c 0a                	cmp    $0xa,%al
  406c9a:	75 a0                	jne    406c3c <teavpn_client_config_parser+0x358>
  406c9c:	48 8d 95 f0 ef ff ff 	lea    -0x1010(%rbp),%rdx
  406ca3:	48 8b 85 d0 ef ff ff 	mov    -0x1030(%rbp),%rax
  406caa:	48 01 d0             	add    %rdx,%rax
  406cad:	c6 00 00             	movb   $0x0,(%rax)
  406cb0:	48 83 ad d0 ef ff ff 	subq   $0x1,-0x1030(%rbp)
  406cb7:	01 
  406cb8:	c6 85 bd ef ff ff 00 	movb   $0x0,-0x1043(%rbp)
  406cbf:	eb 0f                	jmp    406cd0 <teavpn_client_config_parser+0x3ec>
  406cc1:	48 83 ad d0 ef ff ff 	subq   $0x1,-0x1030(%rbp)
  406cc8:	01 
  406cc9:	c6 85 bd ef ff ff 01 	movb   $0x1,-0x1043(%rbp)
  406cd0:	48 8d 95 f0 ef ff ff 	lea    -0x1010(%rbp),%rdx
  406cd7:	48 8b 85 d0 ef ff ff 	mov    -0x1030(%rbp),%rax
  406cde:	48 01 d0             	add    %rdx,%rax
  406ce1:	0f b6 00             	movzbl (%rax),%eax
  406ce4:	3c 20                	cmp    $0x20,%al
  406ce6:	74 d9                	je     406cc1 <teavpn_client_config_parser+0x3dd>
  406ce8:	48 8d 95 f0 ef ff ff 	lea    -0x1010(%rbp),%rdx
  406cef:	48 8b 85 d0 ef ff ff 	mov    -0x1030(%rbp),%rax
  406cf6:	48 01 d0             	add    %rdx,%rax
  406cf9:	0f b6 00             	movzbl (%rax),%eax
  406cfc:	3c 09                	cmp    $0x9,%al
  406cfe:	74 c1                	je     406cc1 <teavpn_client_config_parser+0x3dd>
  406d00:	48 8d 95 f0 ef ff ff 	lea    -0x1010(%rbp),%rdx
  406d07:	48 8b 85 d0 ef ff ff 	mov    -0x1030(%rbp),%rax
  406d0e:	48 01 d0             	add    %rdx,%rax
  406d11:	0f b6 00             	movzbl (%rax),%eax
  406d14:	3c 0d                	cmp    $0xd,%al
  406d16:	74 a9                	je     406cc1 <teavpn_client_config_parser+0x3dd>
  406d18:	80 bd bd ef ff ff 00 	cmpb   $0x0,-0x1043(%rbp)
  406d1f:	74 13                	je     406d34 <teavpn_client_config_parser+0x450>
  406d21:	48 8b 85 d0 ef ff ff 	mov    -0x1030(%rbp),%rax
  406d28:	48 83 c0 01          	add    $0x1,%rax
  406d2c:	c6 84 05 f0 ef ff ff 	movb   $0x0,-0x1010(%rbp,%rax,1)
  406d33:	00 
  406d34:	48 8d 95 f0 ef ff ff 	lea    -0x1010(%rbp),%rdx
  406d3b:	48 8b 85 e8 ef ff ff 	mov    -0x1018(%rbp),%rax
  406d42:	48 01 d0             	add    %rdx,%rax
  406d45:	48 8d 35 c3 2d 00 00 	lea    0x2dc3(%rip),%rsi        # 409b0f <_IO_stdin_used+0xb0f>
  406d4c:	48 89 c7             	mov    %rax,%rdi
  406d4f:	e8 4c b9 ff ff       	callq  4026a0 <strcmp@plt>
  406d54:	85 c0                	test   %eax,%eax
  406d56:	75 54                	jne    406dac <teavpn_client_config_parser+0x4c8>
  406d58:	48 8d 95 f0 ef ff ff 	lea    -0x1010(%rbp),%rdx
  406d5f:	48 8b 85 c8 ef ff ff 	mov    -0x1038(%rbp),%rax
  406d66:	48 01 c2             	add    %rax,%rdx
  406d69:	48 8b 85 a8 ef ff ff 	mov    -0x1058(%rbp),%rax
  406d70:	48 89 d6             	mov    %rdx,%rsi
  406d73:	48 89 c7             	mov    %rax,%rdi
  406d76:	e8 55 b7 ff ff       	callq  4024d0 <strcpy@plt>
  406d7b:	48 8b 85 a0 ef ff ff 	mov    -0x1060(%rbp),%rax
  406d82:	48 8b 95 a8 ef ff ff 	mov    -0x1058(%rbp),%rdx
  406d89:	48 89 50 18          	mov    %rdx,0x18(%rax)
  406d8d:	48 8b 85 a8 ef ff ff 	mov    -0x1058(%rbp),%rax
  406d94:	48 89 c7             	mov    %rax,%rdi
  406d97:	e8 d4 b7 ff ff       	callq  402570 <strlen@plt>
  406d9c:	48 83 c0 01          	add    $0x1,%rax
  406da0:	48 01 85 a8 ef ff ff 	add    %rax,-0x1058(%rbp)
  406da7:	e9 30 02 00 00       	jmpq   406fdc <teavpn_client_config_parser+0x6f8>
  406dac:	48 8d 95 f0 ef ff ff 	lea    -0x1010(%rbp),%rdx
  406db3:	48 8b 85 e8 ef ff ff 	mov    -0x1018(%rbp),%rax
  406dba:	48 01 d0             	add    %rdx,%rax
  406dbd:	48 8d 35 4f 2d 00 00 	lea    0x2d4f(%rip),%rsi        # 409b13 <_IO_stdin_used+0xb13>
  406dc4:	48 89 c7             	mov    %rax,%rdi
  406dc7:	e8 d4 b8 ff ff       	callq  4026a0 <strcmp@plt>
  406dcc:	85 c0                	test   %eax,%eax
  406dce:	75 2b                	jne    406dfb <teavpn_client_config_parser+0x517>
  406dd0:	48 8d 95 f0 ef ff ff 	lea    -0x1010(%rbp),%rdx
  406dd7:	48 8b 85 c8 ef ff ff 	mov    -0x1038(%rbp),%rax
  406dde:	48 01 d0             	add    %rdx,%rax
  406de1:	48 89 c7             	mov    %rax,%rdi
  406de4:	e8 17 ba ff ff       	callq  402800 <atoi@plt>
  406de9:	89 c2                	mov    %eax,%edx
  406deb:	48 8b 85 a0 ef ff ff 	mov    -0x1060(%rbp),%rax
  406df2:	66 89 50 20          	mov    %dx,0x20(%rax)
  406df6:	e9 e1 01 00 00       	jmpq   406fdc <teavpn_client_config_parser+0x6f8>
  406dfb:	48 8d 95 f0 ef ff ff 	lea    -0x1010(%rbp),%rdx
  406e02:	48 8b 85 e8 ef ff ff 	mov    -0x1018(%rbp),%rax
  406e09:	48 01 d0             	add    %rdx,%rax
  406e0c:	48 8d 35 61 2d 00 00 	lea    0x2d61(%rip),%rsi        # 409b74 <_IO_stdin_used+0xb74>
  406e13:	48 89 c7             	mov    %rax,%rdi
  406e16:	e8 85 b8 ff ff       	callq  4026a0 <strcmp@plt>
  406e1b:	85 c0                	test   %eax,%eax
  406e1d:	75 53                	jne    406e72 <teavpn_client_config_parser+0x58e>
  406e1f:	48 8d 95 f0 ef ff ff 	lea    -0x1010(%rbp),%rdx
  406e26:	48 8b 85 c8 ef ff ff 	mov    -0x1038(%rbp),%rax
  406e2d:	48 01 c2             	add    %rax,%rdx
  406e30:	48 8b 85 a8 ef ff ff 	mov    -0x1058(%rbp),%rax
  406e37:	48 89 d6             	mov    %rdx,%rsi
  406e3a:	48 89 c7             	mov    %rax,%rdi
  406e3d:	e8 8e b6 ff ff       	callq  4024d0 <strcpy@plt>
  406e42:	48 8b 85 a0 ef ff ff 	mov    -0x1060(%rbp),%rax
  406e49:	48 8b 95 a8 ef ff ff 	mov    -0x1058(%rbp),%rdx
  406e50:	48 89 10             	mov    %rdx,(%rax)
  406e53:	48 8b 85 a8 ef ff ff 	mov    -0x1058(%rbp),%rax
  406e5a:	48 89 c7             	mov    %rax,%rdi
  406e5d:	e8 0e b7 ff ff       	callq  402570 <strlen@plt>
  406e62:	48 83 c0 01          	add    $0x1,%rax
  406e66:	48 01 85 a8 ef ff ff 	add    %rax,-0x1058(%rbp)
  406e6d:	e9 6a 01 00 00       	jmpq   406fdc <teavpn_client_config_parser+0x6f8>
  406e72:	48 8d 95 f0 ef ff ff 	lea    -0x1010(%rbp),%rdx
  406e79:	48 8b 85 e8 ef ff ff 	mov    -0x1018(%rbp),%rax
  406e80:	48 01 d0             	add    %rdx,%rax
  406e83:	48 8d 35 f4 2c 00 00 	lea    0x2cf4(%rip),%rsi        # 409b7e <_IO_stdin_used+0xb7e>
  406e8a:	48 89 c7             	mov    %rax,%rdi
  406e8d:	e8 0e b8 ff ff       	callq  4026a0 <strcmp@plt>
  406e92:	85 c0                	test   %eax,%eax
  406e94:	75 2b                	jne    406ec1 <teavpn_client_config_parser+0x5dd>
  406e96:	48 8d 95 f0 ef ff ff 	lea    -0x1010(%rbp),%rdx
  406e9d:	48 8b 85 c8 ef ff ff 	mov    -0x1038(%rbp),%rax
  406ea4:	48 01 d0             	add    %rdx,%rax
  406ea7:	48 89 c7             	mov    %rax,%rdi
  406eaa:	e8 51 b9 ff ff       	callq  402800 <atoi@plt>
  406eaf:	89 c2                	mov    %eax,%edx
  406eb1:	48 8b 85 a0 ef ff ff 	mov    -0x1060(%rbp),%rax
  406eb8:	66 89 50 3a          	mov    %dx,0x3a(%rax)
  406ebc:	e9 1b 01 00 00       	jmpq   406fdc <teavpn_client_config_parser+0x6f8>
  406ec1:	48 8d 95 f0 ef ff ff 	lea    -0x1010(%rbp),%rdx
  406ec8:	48 8b 85 e8 ef ff ff 	mov    -0x1018(%rbp),%rax
  406ecf:	48 01 d0             	add    %rdx,%rax
  406ed2:	48 8d 35 b1 2c 00 00 	lea    0x2cb1(%rip),%rsi        # 409b8a <_IO_stdin_used+0xb8a>
  406ed9:	48 89 c7             	mov    %rax,%rdi
  406edc:	e8 bf b7 ff ff       	callq  4026a0 <strcmp@plt>
  406ee1:	85 c0                	test   %eax,%eax
  406ee3:	75 6e                	jne    406f53 <teavpn_client_config_parser+0x66f>
  406ee5:	48 8d 95 f0 ef ff ff 	lea    -0x1010(%rbp),%rdx
  406eec:	48 8b 85 c8 ef ff ff 	mov    -0x1038(%rbp),%rax
  406ef3:	48 01 c2             	add    %rax,%rdx
  406ef6:	48 8b 85 a8 ef ff ff 	mov    -0x1058(%rbp),%rax
  406efd:	48 89 d6             	mov    %rdx,%rsi
  406f00:	48 89 c7             	mov    %rax,%rdi
  406f03:	e8 c8 b5 ff ff       	callq  4024d0 <strcpy@plt>
  406f08:	48 8b 85 a0 ef ff ff 	mov    -0x1060(%rbp),%rax
  406f0f:	48 8b 95 a8 ef ff ff 	mov    -0x1058(%rbp),%rdx
  406f16:	48 89 50 28          	mov    %rdx,0x28(%rax)
  406f1a:	48 8b 85 a8 ef ff ff 	mov    -0x1058(%rbp),%rax
  406f21:	48 89 c7             	mov    %rax,%rdi
  406f24:	e8 47 b6 ff ff       	callq  402570 <strlen@plt>
  406f29:	89 c2                	mov    %eax,%edx
  406f2b:	48 8b 85 a0 ef ff ff 	mov    -0x1060(%rbp),%rax
  406f32:	88 50 38             	mov    %dl,0x38(%rax)
  406f35:	48 8b 85 a0 ef ff ff 	mov    -0x1060(%rbp),%rax
  406f3c:	0f b6 40 38          	movzbl 0x38(%rax),%eax
  406f40:	0f b6 c0             	movzbl %al,%eax
  406f43:	48 83 c0 01          	add    $0x1,%rax
  406f47:	48 01 85 a8 ef ff ff 	add    %rax,-0x1058(%rbp)
  406f4e:	e9 89 00 00 00       	jmpq   406fdc <teavpn_client_config_parser+0x6f8>
  406f53:	48 8d 95 f0 ef ff ff 	lea    -0x1010(%rbp),%rdx
  406f5a:	48 8b 85 e8 ef ff ff 	mov    -0x1018(%rbp),%rax
  406f61:	48 01 d0             	add    %rdx,%rax
  406f64:	48 8d 35 28 2c 00 00 	lea    0x2c28(%rip),%rsi        # 409b93 <_IO_stdin_used+0xb93>
  406f6b:	48 89 c7             	mov    %rax,%rdi
  406f6e:	e8 2d b7 ff ff       	callq  4026a0 <strcmp@plt>
  406f73:	85 c0                	test   %eax,%eax
  406f75:	75 65                	jne    406fdc <teavpn_client_config_parser+0x6f8>
  406f77:	48 8d 95 f0 ef ff ff 	lea    -0x1010(%rbp),%rdx
  406f7e:	48 8b 85 c8 ef ff ff 	mov    -0x1038(%rbp),%rax
  406f85:	48 01 c2             	add    %rax,%rdx
  406f88:	48 8b 85 a8 ef ff ff 	mov    -0x1058(%rbp),%rax
  406f8f:	48 89 d6             	mov    %rdx,%rsi
  406f92:	48 89 c7             	mov    %rax,%rdi
  406f95:	e8 36 b5 ff ff       	callq  4024d0 <strcpy@plt>
  406f9a:	48 8b 85 a0 ef ff ff 	mov    -0x1060(%rbp),%rax
  406fa1:	48 8b 95 a8 ef ff ff 	mov    -0x1058(%rbp),%rdx
  406fa8:	48 89 50 30          	mov    %rdx,0x30(%rax)
  406fac:	48 8b 85 a8 ef ff ff 	mov    -0x1058(%rbp),%rax
  406fb3:	48 89 c7             	mov    %rax,%rdi
  406fb6:	e8 b5 b5 ff ff       	callq  402570 <strlen@plt>
  406fbb:	89 c2                	mov    %eax,%edx
  406fbd:	48 8b 85 a0 ef ff ff 	mov    -0x1060(%rbp),%rax
  406fc4:	88 50 39             	mov    %dl,0x39(%rax)
  406fc7:	48 8b 85 a0 ef ff ff 	mov    -0x1060(%rbp),%rax
  406fce:	0f b6 40 39          	movzbl 0x39(%rax),%eax
  406fd2:	0f b6 c0             	movzbl %al,%eax
  406fd5:	48 01 85 a8 ef ff ff 	add    %rax,-0x1058(%rbp)
  406fdc:	0f b7 85 be ef ff ff 	movzwl -0x1042(%rbp),%eax
  406fe3:	83 c0 01             	add    $0x1,%eax
  406fe6:	66 89 85 be ef ff ff 	mov    %ax,-0x1042(%rbp)
  406fed:	48 8b 95 d8 ef ff ff 	mov    -0x1028(%rbp),%rdx
  406ff4:	48 8d 85 f0 ef ff ff 	lea    -0x1010(%rbp),%rax
  406ffb:	be ff 0f 00 00       	mov    $0xfff,%esi
  407000:	48 89 c7             	mov    %rax,%rdi
  407003:	e8 68 b6 ff ff       	callq  402670 <fgets@plt>
  407008:	48 85 c0             	test   %rax,%rax
  40700b:	0f 85 70 f9 ff ff    	jne    406981 <teavpn_client_config_parser+0x9d>
  407011:	90                   	nop
  407012:	48 8b 85 d8 ef ff ff 	mov    -0x1028(%rbp),%rax
  407019:	48 89 c7             	mov    %rax,%rdi
  40701c:	e8 3f b5 ff ff       	callq  402560 <fclose@plt>
  407021:	0f b6 85 bc ef ff ff 	movzbl -0x1044(%rbp),%eax
  407028:	48 8b 4d f8          	mov    -0x8(%rbp),%rcx
  40702c:	64 48 33 0c 25 28 00 	xor    %fs:0x28,%rcx
  407033:	00 00 
  407035:	74 05                	je     40703c <teavpn_client_config_parser+0x758>
  407037:	e8 44 b5 ff ff       	callq  402580 <__stack_chk_fail@plt>
  40703c:	c9                   	leaveq 
  40703d:	c3                   	retq   

000000000040703e <_teavpn_send_handshake>:
  40703e:	f3 0f 1e fa          	endbr64 
  407042:	55                   	push   %rbp
  407043:	48 89 e5             	mov    %rsp,%rbp
  407046:	48 83 ec 10          	sub    $0x10,%rsp
  40704a:	89 7d fc             	mov    %edi,-0x4(%rbp)
  40704d:	89 f0                	mov    %esi,%eax
  40704f:	48 89 55 f0          	mov    %rdx,-0x10(%rbp)
  407053:	66 89 45 f8          	mov    %ax,-0x8(%rbp)
  407057:	48 8b 55 f0          	mov    -0x10(%rbp),%rdx
  40705b:	48 8d 75 f8          	lea    -0x8(%rbp),%rsi
  40705f:	8b 45 fc             	mov    -0x4(%rbp),%eax
  407062:	41 b9 10 00 00 00    	mov    $0x10,%r9d
  407068:	49 89 d0             	mov    %rdx,%r8
  40706b:	b9 00 08 00 00       	mov    $0x800,%ecx
  407070:	ba 02 00 00 00       	mov    $0x2,%edx
  407075:	89 c7                	mov    %eax,%edi
  407077:	e8 a4 b5 ff ff       	callq  402620 <sendto@plt>
  40707c:	48 83 f8 02          	cmp    $0x2,%rax
  407080:	0f 94 c0             	sete   %al
  407083:	c9                   	leaveq 
  407084:	c3                   	retq   

0000000000407085 <teavpn_syn>:
  407085:	f3 0f 1e fa          	endbr64 
  407089:	55                   	push   %rbp
  40708a:	48 89 e5             	mov    %rsp,%rbp
  40708d:	48 83 ec 10          	sub    $0x10,%rsp
  407091:	89 7d fc             	mov    %edi,-0x4(%rbp)
  407094:	48 89 75 f0          	mov    %rsi,-0x10(%rbp)
  407098:	48 8b 55 f0          	mov    -0x10(%rbp),%rdx
  40709c:	8b 45 fc             	mov    -0x4(%rbp),%eax
  40709f:	be 22 22 00 00       	mov    $0x2222,%esi
  4070a4:	89 c7                	mov    %eax,%edi
  4070a6:	e8 93 ff ff ff       	callq  40703e <_teavpn_send_handshake>
  4070ab:	c9                   	leaveq 
  4070ac:	c3                   	retq   

00000000004070ad <teavpn_ack>:
  4070ad:	f3 0f 1e fa          	endbr64 
  4070b1:	55                   	push   %rbp
  4070b2:	48 89 e5             	mov    %rsp,%rbp
  4070b5:	48 83 ec 10          	sub    $0x10,%rsp
  4070b9:	89 7d fc             	mov    %edi,-0x4(%rbp)
  4070bc:	48 89 75 f0          	mov    %rsi,-0x10(%rbp)
  4070c0:	48 8b 55 f0          	mov    -0x10(%rbp),%rdx
  4070c4:	8b 45 fc             	mov    -0x4(%rbp),%eax
  4070c7:	be 11 11 00 00       	mov    $0x1111,%esi
  4070cc:	89 c7                	mov    %eax,%edi
  4070ce:	e8 6b ff ff ff       	callq  40703e <_teavpn_send_handshake>
  4070d3:	c9                   	leaveq 
  4070d4:	c3                   	retq   

00000000004070d5 <teavpn_nak>:
  4070d5:	f3 0f 1e fa          	endbr64 
  4070d9:	55                   	push   %rbp
  4070da:	48 89 e5             	mov    %rsp,%rbp
  4070dd:	48 83 ec 10          	sub    $0x10,%rsp
  4070e1:	89 7d fc             	mov    %edi,-0x4(%rbp)
  4070e4:	48 89 75 f0          	mov    %rsi,-0x10(%rbp)
  4070e8:	48 8b 55 f0          	mov    -0x10(%rbp),%rdx
  4070ec:	8b 45 fc             	mov    -0x4(%rbp),%eax
  4070ef:	be 33 33 00 00       	mov    $0x3333,%esi
  4070f4:	89 c7                	mov    %eax,%edi
  4070f6:	e8 43 ff ff ff       	callq  40703e <_teavpn_send_handshake>
  4070fb:	c9                   	leaveq 
  4070fc:	c3                   	retq   

00000000004070fd <teavpn_synack>:
  4070fd:	f3 0f 1e fa          	endbr64 
  407101:	55                   	push   %rbp
  407102:	48 89 e5             	mov    %rsp,%rbp
  407105:	48 83 ec 10          	sub    $0x10,%rsp
  407109:	89 7d fc             	mov    %edi,-0x4(%rbp)
  40710c:	48 89 75 f0          	mov    %rsi,-0x10(%rbp)
  407110:	48 8b 55 f0          	mov    -0x10(%rbp),%rdx
  407114:	8b 45 fc             	mov    -0x4(%rbp),%eax
  407117:	be 44 44 00 00       	mov    $0x4444,%esi
  40711c:	89 c7                	mov    %eax,%edi
  40711e:	e8 1b ff ff ff       	callq  40703e <_teavpn_send_handshake>
  407123:	c9                   	leaveq 
  407124:	c3                   	retq   

0000000000407125 <get_handshake>:
  407125:	f3 0f 1e fa          	endbr64 
  407129:	55                   	push   %rbp
  40712a:	48 89 e5             	mov    %rsp,%rbp
  40712d:	48 83 ec 30          	sub    $0x30,%rsp
  407131:	89 7d dc             	mov    %edi,-0x24(%rbp)
  407134:	48 89 75 d0          	mov    %rsi,-0x30(%rbp)
  407138:	64 48 8b 04 25 28 00 	mov    %fs:0x28,%rax
  40713f:	00 00 
  407141:	48 89 45 f8          	mov    %rax,-0x8(%rbp)
  407145:	31 c0                	xor    %eax,%eax
  407147:	48 8b 55 d0          	mov    -0x30(%rbp),%rdx
  40714b:	48 8d 75 ee          	lea    -0x12(%rbp),%rsi
  40714f:	8b 45 dc             	mov    -0x24(%rbp),%eax
  407152:	4c 8d 0d 2b 61 00 00 	lea    0x612b(%rip),%r9        # 40d284 <remote_len.5475>
  407159:	49 89 d0             	mov    %rdx,%r8
  40715c:	b9 00 01 00 00       	mov    $0x100,%ecx
  407161:	ba 02 00 00 00       	mov    $0x2,%edx
  407166:	89 c7                	mov    %eax,%edi
  407168:	e8 03 b6 ff ff       	callq  402770 <recvfrom@plt>
  40716d:	48 89 45 f0          	mov    %rax,-0x10(%rbp)
  407171:	48 83 7d f0 02       	cmpq   $0x2,-0x10(%rbp)
  407176:	74 13                	je     40718b <get_handshake+0x66>
  407178:	48 8d 3d 21 2a 00 00 	lea    0x2a21(%rip),%rdi        # 409ba0 <_IO_stdin_used+0xba0>
  40717f:	e8 4c b6 ff ff       	callq  4027d0 <perror@plt>
  407184:	b8 00 00 00 00       	mov    $0x0,%eax
  407189:	eb 04                	jmp    40718f <get_handshake+0x6a>
  40718b:	0f b7 45 ee          	movzwl -0x12(%rbp),%eax
  40718f:	48 8b 4d f8          	mov    -0x8(%rbp),%rcx
  407193:	64 48 33 0c 25 28 00 	xor    %fs:0x28,%rcx
  40719a:	00 00 
  40719c:	74 05                	je     4071a3 <get_handshake+0x7e>
  40719e:	e8 dd b3 ff ff       	callq  402580 <__stack_chk_fail@plt>
  4071a3:	c9                   	leaveq 
  4071a4:	c3                   	retq   

00000000004071a5 <teavpn_tcp_client>:
  4071a5:	f3 0f 1e fa          	endbr64 
  4071a9:	55                   	push   %rbp
  4071aa:	48 89 e5             	mov    %rsp,%rbp
  4071ad:	41 54                	push   %r12
  4071af:	53                   	push   %rbx
  4071b0:	48 83 e4 f0          	and    $0xfffffffffffffff0,%rsp
  4071b4:	48 81 ec 00 10 00 00 	sub    $0x1000,%rsp
  4071bb:	48 83 0c 24 00       	orq    $0x0,(%rsp)
  4071c0:	48 81 ec 00 10 00 00 	sub    $0x1000,%rsp
  4071c7:	48 83 0c 24 00       	orq    $0x0,(%rsp)
  4071cc:	48 81 ec d0 00 00 00 	sub    $0xd0,%rsp
  4071d3:	48 89 7c 24 08       	mov    %rdi,0x8(%rsp)
  4071d8:	64 48 8b 04 25 28 00 	mov    %fs:0x28,%rax
  4071df:	00 00 
  4071e1:	48 89 84 24 c8 20 00 	mov    %rax,0x20c8(%rsp)
  4071e8:	00 
  4071e9:	31 c0                	xor    %eax,%eax
  4071eb:	48 c7 44 24 28 00 00 	movq   $0x0,0x28(%rsp)
  4071f2:	00 00 
  4071f4:	48 8b 54 24 08       	mov    0x8(%rsp),%rdx
  4071f9:	48 8d 84 24 c0 10 00 	lea    0x10c0(%rsp),%rax
  407200:	00 
  407201:	48 89 d6             	mov    %rdx,%rsi
  407204:	48 89 c7             	mov    %rax,%rdi
  407207:	e8 dd 09 00 00       	callq  407be9 <teavpn_tcp_client_init>
  40720c:	84 c0                	test   %al,%al
  40720e:	74 0a                	je     40721a <teavpn_tcp_client+0x75>
  407210:	b8 01 00 00 00       	mov    $0x1,%eax
  407215:	e9 ae 09 00 00       	jmpq   407bc8 <teavpn_tcp_client+0xa23>
  40721a:	48 8d 84 24 b0 00 00 	lea    0xb0(%rsp),%rax
  407221:	00 
  407222:	48 83 c0 10          	add    $0x10,%rax
  407226:	ba 10 00 00 00       	mov    $0x10,%edx
  40722b:	be 00 00 00 00       	mov    $0x0,%esi
  407230:	48 89 c7             	mov    %rax,%rdi
  407233:	e8 c8 b3 ff ff       	callq  402600 <memset@plt>
  407238:	48 8d 84 24 b0 00 00 	lea    0xb0(%rsp),%rax
  40723f:	00 
  407240:	48 83 c0 10          	add    $0x10,%rax
  407244:	66 c7 00 02 00       	movw   $0x2,(%rax)
  407249:	48 8b 44 24 08       	mov    0x8(%rsp),%rax
  40724e:	0f b7 40 3a          	movzwl 0x3a(%rax),%eax
  407252:	0f b7 c0             	movzwl %ax,%eax
  407255:	48 8d 94 24 b0 00 00 	lea    0xb0(%rsp),%rdx
  40725c:	00 
  40725d:	48 8d 5a 10          	lea    0x10(%rdx),%rbx
  407261:	89 c7                	mov    %eax,%edi
  407263:	e8 58 b3 ff ff       	callq  4025c0 <htons@plt>
  407268:	66 89 43 02          	mov    %ax,0x2(%rbx)
  40726c:	48 8b 44 24 08       	mov    0x8(%rsp),%rax
  407271:	48 8b 00             	mov    (%rax),%rax
  407274:	48 8d 94 24 b0 00 00 	lea    0xb0(%rsp),%rdx
  40727b:	00 
  40727c:	48 8d 5a 10          	lea    0x10(%rdx),%rbx
  407280:	48 89 c7             	mov    %rax,%rdi
  407283:	e8 08 b4 ff ff       	callq  402690 <inet_addr@plt>
  407288:	89 43 04             	mov    %eax,0x4(%rbx)
  40728b:	48 8b 44 24 08       	mov    0x8(%rsp),%rax
  407290:	0f b7 40 3a          	movzwl 0x3a(%rax),%eax
  407294:	0f b7 d0             	movzwl %ax,%edx
  407297:	48 8b 44 24 08       	mov    0x8(%rsp),%rax
  40729c:	48 8b 00             	mov    (%rax),%rax
  40729f:	48 89 c6             	mov    %rax,%rsi
  4072a2:	48 8d 3d 11 29 00 00 	lea    0x2911(%rip),%rdi        # 409bba <_IO_stdin_used+0xbba>
  4072a9:	b8 00 00 00 00       	mov    $0x0,%eax
  4072ae:	e8 51 0f 00 00       	callq  408204 <__internal_debug_log>
  4072b3:	8b 05 67 61 00 00    	mov    0x6167(%rip),%eax        # 40d420 <net_fd>
  4072b9:	48 8d 94 24 b0 00 00 	lea    0xb0(%rsp),%rdx
  4072c0:	00 
  4072c1:	48 8d 4a 10          	lea    0x10(%rdx),%rcx
  4072c5:	ba 10 00 00 00       	mov    $0x10,%edx
  4072ca:	48 89 ce             	mov    %rcx,%rsi
  4072cd:	89 c7                	mov    %eax,%edi
  4072cf:	e8 5c b5 ff ff       	callq  402830 <connect@plt>
  4072d4:	85 c0                	test   %eax,%eax
  4072d6:	79 22                	jns    4072fa <teavpn_tcp_client+0x155>
  4072d8:	48 8d 3d f2 28 00 00 	lea    0x28f2(%rip),%rdi        # 409bd1 <_IO_stdin_used+0xbd1>
  4072df:	b8 00 00 00 00       	mov    $0x0,%eax
  4072e4:	e8 1b 0f 00 00       	callq  408204 <__internal_debug_log>
  4072e9:	48 8d 3d e1 28 00 00 	lea    0x28e1(%rip),%rdi        # 409bd1 <_IO_stdin_used+0xbd1>
  4072f0:	e8 db b4 ff ff       	callq  4027d0 <perror@plt>
  4072f5:	e9 af 08 00 00       	jmpq   407ba9 <teavpn_tcp_client+0xa04>
  4072fa:	c7 84 24 b0 00 00 00 	movl   $0x1,0xb0(%rsp)
  407301:	01 00 00 00 
  407305:	66 c7 84 24 b4 00 00 	movw   $0x212,0xb4(%rsp)
  40730c:	00 12 02 
  40730f:	48 8b 44 24 08       	mov    0x8(%rsp),%rax
  407314:	0f b6 40 38          	movzbl 0x38(%rax),%eax
  407318:	88 84 24 c0 00 00 00 	mov    %al,0xc0(%rsp)
  40731f:	48 8b 44 24 08       	mov    0x8(%rsp),%rax
  407324:	0f b6 40 39          	movzbl 0x39(%rax),%eax
  407328:	88 84 24 c1 00 00 00 	mov    %al,0xc1(%rsp)
  40732f:	48 8b 44 24 08       	mov    0x8(%rsp),%rax
  407334:	48 8b 40 28          	mov    0x28(%rax),%rax
  407338:	48 8d 94 24 b0 00 00 	lea    0xb0(%rsp),%rdx
  40733f:	00 
  407340:	48 83 c2 12          	add    $0x12,%rdx
  407344:	48 89 c6             	mov    %rax,%rsi
  407347:	48 89 d7             	mov    %rdx,%rdi
  40734a:	e8 81 b1 ff ff       	callq  4024d0 <strcpy@plt>
  40734f:	48 8b 44 24 08       	mov    0x8(%rsp),%rax
  407354:	48 8b 40 30          	mov    0x30(%rax),%rax
  407358:	48 8d 94 24 b0 00 00 	lea    0xb0(%rsp),%rdx
  40735f:	00 
  407360:	48 81 c2 12 01 00 00 	add    $0x112,%rdx
  407367:	48 89 c6             	mov    %rax,%rsi
  40736a:	48 89 d7             	mov    %rdx,%rdi
  40736d:	e8 5e b1 ff ff       	callq  4024d0 <strcpy@plt>
  407372:	0f b6 05 ab 60 00 00 	movzbl 0x60ab(%rip),%eax        # 40d424 <verbose_level>
  407379:	3c 02                	cmp    $0x2,%al
  40737b:	76 20                	jbe    40739d <teavpn_tcp_client+0x1f8>
  40737d:	48 8d 84 24 b0 00 00 	lea    0xb0(%rsp),%rax
  407384:	00 
  407385:	48 83 c0 12          	add    $0x12,%rax
  407389:	48 89 c6             	mov    %rax,%rsi
  40738c:	48 8d 3d 4f 28 00 00 	lea    0x284f(%rip),%rdi        # 409be2 <_IO_stdin_used+0xbe2>
  407393:	b8 00 00 00 00       	mov    $0x0,%eax
  407398:	e8 67 0e 00 00       	callq  408204 <__internal_debug_log>
  40739d:	0f b6 05 80 60 00 00 	movzbl 0x6080(%rip),%eax        # 40d424 <verbose_level>
  4073a4:	3c 02                	cmp    $0x2,%al
  4073a6:	76 22                	jbe    4073ca <teavpn_tcp_client+0x225>
  4073a8:	48 8d 84 24 b0 00 00 	lea    0xb0(%rsp),%rax
  4073af:	00 
  4073b0:	48 05 12 01 00 00    	add    $0x112,%rax
  4073b6:	48 89 c6             	mov    %rax,%rsi
  4073b9:	48 8d 3d 31 28 00 00 	lea    0x2831(%rip),%rdi        # 409bf1 <_IO_stdin_used+0xbf1>
  4073c0:	b8 00 00 00 00       	mov    $0x0,%eax
  4073c5:	e8 3a 0e 00 00       	callq  408204 <__internal_debug_log>
  4073ca:	0f b6 05 53 60 00 00 	movzbl 0x6053(%rip),%eax        # 40d424 <verbose_level>
  4073d1:	3c 02                	cmp    $0x2,%al
  4073d3:	76 1e                	jbe    4073f3 <teavpn_tcp_client+0x24e>
  4073d5:	0f b6 84 24 c0 00 00 	movzbl 0xc0(%rsp),%eax
  4073dc:	00 
  4073dd:	0f b6 c0             	movzbl %al,%eax
  4073e0:	89 c6                	mov    %eax,%esi
  4073e2:	48 8d 3d 17 28 00 00 	lea    0x2817(%rip),%rdi        # 409c00 <_IO_stdin_used+0xc00>
  4073e9:	b8 00 00 00 00       	mov    $0x0,%eax
  4073ee:	e8 11 0e 00 00       	callq  408204 <__internal_debug_log>
  4073f3:	0f b6 05 2a 60 00 00 	movzbl 0x602a(%rip),%eax        # 40d424 <verbose_level>
  4073fa:	3c 02                	cmp    $0x2,%al
  4073fc:	76 1e                	jbe    40741c <teavpn_tcp_client+0x277>
  4073fe:	0f b6 84 24 c1 00 00 	movzbl 0xc1(%rsp),%eax
  407405:	00 
  407406:	0f b6 c0             	movzbl %al,%eax
  407409:	89 c6                	mov    %eax,%esi
  40740b:	48 8d 3d ff 27 00 00 	lea    0x27ff(%rip),%rdi        # 409c11 <_IO_stdin_used+0xc11>
  407412:	b8 00 00 00 00       	mov    $0x0,%eax
  407417:	e8 e8 0d 00 00       	callq  408204 <__internal_debug_log>
  40741c:	48 83 44 24 28 01    	addq   $0x1,0x28(%rsp)
  407422:	48 8b 44 24 28       	mov    0x28(%rsp),%rax
  407427:	48 89 84 24 b8 00 00 	mov    %rax,0xb8(%rsp)
  40742e:	00 
  40742f:	8b 05 eb 5f 00 00    	mov    0x5feb(%rip),%eax        # 40d420 <net_fd>
  407435:	48 8d 8c 24 b0 00 00 	lea    0xb0(%rsp),%rcx
  40743c:	00 
  40743d:	ba 12 02 00 00       	mov    $0x212,%edx
  407442:	48 89 ce             	mov    %rcx,%rsi
  407445:	89 c7                	mov    %eax,%edi
  407447:	e8 d4 b0 ff ff       	callq  402520 <write@plt>
  40744c:	48 89 c3             	mov    %rax,%rbx
  40744f:	0f b6 05 ce 5f 00 00 	movzbl 0x5fce(%rip),%eax        # 40d424 <verbose_level>
  407456:	3c 02                	cmp    $0x2,%al
  407458:	76 1c                	jbe    407476 <teavpn_tcp_client+0x2d1>
  40745a:	48 8b 44 24 28       	mov    0x28(%rsp),%rax
  40745f:	48 89 da             	mov    %rbx,%rdx
  407462:	48 89 c6             	mov    %rax,%rsi
  407465:	48 8d 3d bc 27 00 00 	lea    0x27bc(%rip),%rdi        # 409c28 <_IO_stdin_used+0xc28>
  40746c:	b8 00 00 00 00       	mov    $0x0,%eax
  407471:	e8 8e 0d 00 00       	callq  408204 <__internal_debug_log>
  407476:	48 85 db             	test   %rbx,%rbx
  407479:	75 16                	jne    407491 <teavpn_tcp_client+0x2ec>
  40747b:	48 8d 3d d2 27 00 00 	lea    0x27d2(%rip),%rdi        # 409c54 <_IO_stdin_used+0xc54>
  407482:	b8 00 00 00 00       	mov    $0x0,%eax
  407487:	e8 78 0d 00 00       	callq  408204 <__internal_debug_log>
  40748c:	e9 18 07 00 00       	jmpq   407ba9 <teavpn_tcp_client+0xa04>
  407491:	48 85 db             	test   %rbx,%rbx
  407494:	79 22                	jns    4074b8 <teavpn_tcp_client+0x313>
  407496:	48 8d 3d d0 27 00 00 	lea    0x27d0(%rip),%rdi        # 409c6d <_IO_stdin_used+0xc6d>
  40749d:	b8 00 00 00 00       	mov    $0x0,%eax
  4074a2:	e8 5d 0d 00 00       	callq  408204 <__internal_debug_log>
  4074a7:	48 8d 3d bf 27 00 00 	lea    0x27bf(%rip),%rdi        # 409c6d <_IO_stdin_used+0xc6d>
  4074ae:	e8 1d b3 ff ff       	callq  4027d0 <perror@plt>
  4074b3:	e9 f1 06 00 00       	jmpq   407ba9 <teavpn_tcp_client+0xa04>
  4074b8:	48 83 44 24 28 01    	addq   $0x1,0x28(%rsp)
  4074be:	8b 05 5c 5f 00 00    	mov    0x5f5c(%rip),%eax        # 40d420 <net_fd>
  4074c4:	48 8d 8c 24 b0 00 00 	lea    0xb0(%rsp),%rcx
  4074cb:	00 
  4074cc:	ba 10 10 00 00       	mov    $0x1010,%edx
  4074d1:	48 89 ce             	mov    %rcx,%rsi
  4074d4:	89 c7                	mov    %eax,%edi
  4074d6:	e8 85 b1 ff ff       	callq  402660 <read@plt>
  4074db:	49 89 c4             	mov    %rax,%r12
  4074de:	0f b6 05 3f 5f 00 00 	movzbl 0x5f3f(%rip),%eax        # 40d424 <verbose_level>
  4074e5:	3c 02                	cmp    $0x2,%al
  4074e7:	76 4e                	jbe    407537 <teavpn_tcp_client+0x392>
  4074e9:	48 8b 84 24 b8 00 00 	mov    0xb8(%rsp),%rax
  4074f0:	00 
  4074f1:	48 39 44 24 28       	cmp    %rax,0x28(%rsp)
  4074f6:	75 09                	jne    407501 <teavpn_tcp_client+0x35c>
  4074f8:	48 8d 05 84 27 00 00 	lea    0x2784(%rip),%rax        # 409c83 <_IO_stdin_used+0xc83>
  4074ff:	eb 07                	jmp    407508 <teavpn_tcp_client+0x363>
  407501:	48 8d 05 81 27 00 00 	lea    0x2781(%rip),%rax        # 409c89 <_IO_stdin_used+0xc89>
  407508:	48 8b 8c 24 b8 00 00 	mov    0xb8(%rsp),%rcx
  40750f:	00 
  407510:	48 8b 54 24 28       	mov    0x28(%rsp),%rdx
  407515:	48 8b 74 24 28       	mov    0x28(%rsp),%rsi
  40751a:	49 89 c1             	mov    %rax,%r9
  40751d:	49 89 c8             	mov    %rcx,%r8
  407520:	48 89 d1             	mov    %rdx,%rcx
  407523:	4c 89 e2             	mov    %r12,%rdx
  407526:	48 8d 3d 6b 27 00 00 	lea    0x276b(%rip),%rdi        # 409c98 <_IO_stdin_used+0xc98>
  40752d:	b8 00 00 00 00       	mov    $0x0,%eax
  407532:	e8 cd 0c 00 00       	callq  408204 <__internal_debug_log>
  407537:	48 8b 84 24 b8 00 00 	mov    0xb8(%rsp),%rax
  40753e:	00 
  40753f:	48 39 44 24 28       	cmp    %rax,0x28(%rsp)
  407544:	74 26                	je     40756c <teavpn_tcp_client+0x3c7>
  407546:	48 8b 94 24 b8 00 00 	mov    0xb8(%rsp),%rdx
  40754d:	00 
  40754e:	48 8b 44 24 28       	mov    0x28(%rsp),%rax
  407553:	48 89 c6             	mov    %rax,%rsi
  407556:	48 8d 3d 8b 27 00 00 	lea    0x278b(%rip),%rdi        # 409ce8 <_IO_stdin_used+0xce8>
  40755d:	b8 00 00 00 00       	mov    $0x0,%eax
  407562:	e8 9d 0c 00 00       	callq  408204 <__internal_debug_log>
  407567:	e9 3d 06 00 00       	jmpq   407ba9 <teavpn_tcp_client+0xa04>
  40756c:	8b 84 24 b0 00 00 00 	mov    0xb0(%rsp),%eax
  407573:	83 f8 04             	cmp    $0x4,%eax
  407576:	0f 85 89 00 00 00    	jne    407605 <teavpn_tcp_client+0x460>
  40757c:	8b 84 24 c0 00 00 00 	mov    0xc0(%rsp),%eax
  407583:	83 f8 02             	cmp    $0x2,%eax
  407586:	75 67                	jne    4075ef <teavpn_tcp_client+0x44a>
  407588:	48 8d 3d 95 27 00 00 	lea    0x2795(%rip),%rdi        # 409d24 <_IO_stdin_used+0xd24>
  40758f:	b8 00 00 00 00       	mov    $0x0,%eax
  407594:	e8 6b 0c 00 00       	callq  408204 <__internal_debug_log>
  407599:	c7 84 24 b0 00 00 00 	movl   $0x4,0xb0(%rsp)
  4075a0:	04 00 00 00 
  4075a4:	c7 84 24 c0 00 00 00 	movl   $0x10,0xc0(%rsp)
  4075ab:	10 00 00 00 
  4075af:	48 83 44 24 28 01    	addq   $0x1,0x28(%rsp)
  4075b5:	48 8b 44 24 28       	mov    0x28(%rsp),%rax
  4075ba:	48 89 84 24 b8 00 00 	mov    %rax,0xb8(%rsp)
  4075c1:	00 
  4075c2:	8b 05 58 5e 00 00    	mov    0x5e58(%rip),%eax        # 40d420 <net_fd>
  4075c8:	48 8d 8c 24 b0 00 00 	lea    0xb0(%rsp),%rcx
  4075cf:	00 
  4075d0:	ba 10 00 00 00       	mov    $0x10,%edx
  4075d5:	48 89 ce             	mov    %rcx,%rsi
  4075d8:	89 c7                	mov    %eax,%edi
  4075da:	e8 41 af ff ff       	callq  402520 <write@plt>
  4075df:	48 89 c3             	mov    %rax,%rbx
  4075e2:	0f b6 05 3b 5e 00 00 	movzbl 0x5e3b(%rip),%eax        # 40d424 <verbose_level>
  4075e9:	3c 02                	cmp    $0x2,%al
  4075eb:	76 4a                	jbe    407637 <teavpn_tcp_client+0x492>
  4075ed:	eb 2c                	jmp    40761b <teavpn_tcp_client+0x476>
  4075ef:	8b 84 24 c0 00 00 00 	mov    0xc0(%rsp),%eax
  4075f6:	0f b6 c0             	movzbl %al,%eax
  4075f9:	89 c7                	mov    %eax,%edi
  4075fb:	e8 19 08 00 00       	callq  407e19 <print_err_sig>
  407600:	e9 a4 05 00 00       	jmpq   407ba9 <teavpn_tcp_client+0xa04>
  407605:	48 8d 3d 20 27 00 00 	lea    0x2720(%rip),%rdi        # 409d2c <_IO_stdin_used+0xd2c>
  40760c:	b8 00 00 00 00       	mov    $0x0,%eax
  407611:	e8 ee 0b 00 00       	callq  408204 <__internal_debug_log>
  407616:	e9 8e 05 00 00       	jmpq   407ba9 <teavpn_tcp_client+0xa04>
  40761b:	48 8b 44 24 28       	mov    0x28(%rsp),%rax
  407620:	48 89 da             	mov    %rbx,%rdx
  407623:	48 89 c6             	mov    %rax,%rsi
  407626:	48 8d 3d 1b 27 00 00 	lea    0x271b(%rip),%rdi        # 409d48 <_IO_stdin_used+0xd48>
  40762d:	b8 00 00 00 00       	mov    $0x0,%eax
  407632:	e8 cd 0b 00 00       	callq  408204 <__internal_debug_log>
  407637:	48 85 db             	test   %rbx,%rbx
  40763a:	75 16                	jne    407652 <teavpn_tcp_client+0x4ad>
  40763c:	48 8d 3d 11 26 00 00 	lea    0x2611(%rip),%rdi        # 409c54 <_IO_stdin_used+0xc54>
  407643:	b8 00 00 00 00       	mov    $0x0,%eax
  407648:	e8 b7 0b 00 00       	callq  408204 <__internal_debug_log>
  40764d:	e9 57 05 00 00       	jmpq   407ba9 <teavpn_tcp_client+0xa04>
  407652:	48 85 db             	test   %rbx,%rbx
  407655:	79 22                	jns    407679 <teavpn_tcp_client+0x4d4>
  407657:	48 8d 3d 0f 26 00 00 	lea    0x260f(%rip),%rdi        # 409c6d <_IO_stdin_used+0xc6d>
  40765e:	b8 00 00 00 00       	mov    $0x0,%eax
  407663:	e8 9c 0b 00 00       	callq  408204 <__internal_debug_log>
  407668:	48 8d 3d fe 25 00 00 	lea    0x25fe(%rip),%rdi        # 409c6d <_IO_stdin_used+0xc6d>
  40766f:	e8 5c b1 ff ff       	callq  4027d0 <perror@plt>
  407674:	e9 30 05 00 00       	jmpq   407ba9 <teavpn_tcp_client+0xa04>
  407679:	48 83 44 24 28 01    	addq   $0x1,0x28(%rsp)
  40767f:	8b 05 9b 5d 00 00    	mov    0x5d9b(%rip),%eax        # 40d420 <net_fd>
  407685:	48 8d 8c 24 b0 00 00 	lea    0xb0(%rsp),%rcx
  40768c:	00 
  40768d:	ba 10 10 00 00       	mov    $0x1010,%edx
  407692:	48 89 ce             	mov    %rcx,%rsi
  407695:	89 c7                	mov    %eax,%edi
  407697:	e8 c4 af ff ff       	callq  402660 <read@plt>
  40769c:	49 89 c4             	mov    %rax,%r12
  40769f:	48 8b 84 24 b8 00 00 	mov    0xb8(%rsp),%rax
  4076a6:	00 
  4076a7:	48 39 44 24 28       	cmp    %rax,0x28(%rsp)
  4076ac:	74 26                	je     4076d4 <teavpn_tcp_client+0x52f>
  4076ae:	48 8b 94 24 b8 00 00 	mov    0xb8(%rsp),%rdx
  4076b5:	00 
  4076b6:	48 8b 44 24 28       	mov    0x28(%rsp),%rax
  4076bb:	48 89 c6             	mov    %rax,%rsi
  4076be:	48 8d 3d 23 26 00 00 	lea    0x2623(%rip),%rdi        # 409ce8 <_IO_stdin_used+0xce8>
  4076c5:	b8 00 00 00 00       	mov    $0x0,%eax
  4076ca:	e8 35 0b 00 00       	callq  408204 <__internal_debug_log>
  4076cf:	e9 d5 04 00 00       	jmpq   407ba9 <teavpn_tcp_client+0xa04>
  4076d4:	8b 84 24 b0 00 00 00 	mov    0xb0(%rsp),%eax
  4076db:	83 f8 08             	cmp    $0x8,%eax
  4076de:	74 16                	je     4076f6 <teavpn_tcp_client+0x551>
  4076e0:	48 8d 3d 8c 26 00 00 	lea    0x268c(%rip),%rdi        # 409d73 <_IO_stdin_used+0xd73>
  4076e7:	b8 00 00 00 00       	mov    $0x0,%eax
  4076ec:	e8 13 0b 00 00       	callq  408204 <__internal_debug_log>
  4076f1:	e9 b3 04 00 00       	jmpq   407ba9 <teavpn_tcp_client+0xa04>
  4076f6:	0f b6 05 27 5d 00 00 	movzbl 0x5d27(%rip),%eax        # 40d424 <verbose_level>
  4076fd:	3c 02                	cmp    $0x2,%al
  4076ff:	76 20                	jbe    407721 <teavpn_tcp_client+0x57c>
  407701:	48 8d 84 24 b0 00 00 	lea    0xb0(%rsp),%rax
  407708:	00 
  407709:	48 83 c0 10          	add    $0x10,%rax
  40770d:	48 89 c6             	mov    %rax,%rsi
  407710:	48 8d 3d 6b 26 00 00 	lea    0x266b(%rip),%rdi        # 409d82 <_IO_stdin_used+0xd82>
  407717:	b8 00 00 00 00       	mov    $0x0,%eax
  40771c:	e8 e3 0a 00 00       	callq  408204 <__internal_debug_log>
  407721:	0f b6 05 fc 5c 00 00 	movzbl 0x5cfc(%rip),%eax        # 40d424 <verbose_level>
  407728:	3c 02                	cmp    $0x2,%al
  40772a:	76 20                	jbe    40774c <teavpn_tcp_client+0x5a7>
  40772c:	48 8d 84 24 b0 00 00 	lea    0xb0(%rsp),%rax
  407733:	00 
  407734:	48 83 c0 23          	add    $0x23,%rax
  407738:	48 89 c6             	mov    %rax,%rsi
  40773b:	48 8d 3d 4d 26 00 00 	lea    0x264d(%rip),%rdi        # 409d8f <_IO_stdin_used+0xd8f>
  407742:	b8 00 00 00 00       	mov    $0x0,%eax
  407747:	e8 b8 0a 00 00       	callq  408204 <__internal_debug_log>
  40774c:	48 8d 84 24 b0 00 00 	lea    0xb0(%rsp),%rax
  407753:	00 
  407754:	48 8d 50 10          	lea    0x10(%rax),%rdx
  407758:	48 8b 44 24 08       	mov    0x8(%rsp),%rax
  40775d:	48 89 d6             	mov    %rdx,%rsi
  407760:	48 89 c7             	mov    %rax,%rdi
  407763:	e8 47 07 00 00       	callq  407eaf <teavpn_tcp_client_init_iface>
  407768:	83 f0 01             	xor    $0x1,%eax
  40776b:	84 c0                	test   %al,%al
  40776d:	74 16                	je     407785 <teavpn_tcp_client+0x5e0>
  40776f:	48 8d 3d 2a 26 00 00 	lea    0x262a(%rip),%rdi        # 409da0 <_IO_stdin_used+0xda0>
  407776:	b8 00 00 00 00       	mov    $0x0,%eax
  40777b:	e8 84 0a 00 00       	callq  408204 <__internal_debug_log>
  407780:	e9 24 04 00 00       	jmpq   407ba9 <teavpn_tcp_client+0xa04>
  407785:	8b 15 95 5c 00 00    	mov    0x5c95(%rip),%edx        # 40d420 <net_fd>
  40778b:	8b 05 8b 5c 00 00    	mov    0x5c8b(%rip),%eax        # 40d41c <tap_fd>
  407791:	39 c2                	cmp    %eax,%edx
  407793:	0f 4d c2             	cmovge %edx,%eax
  407796:	89 44 24 18          	mov    %eax,0x18(%rsp)
  40779a:	c7 84 24 b0 00 00 00 	movl   $0x2,0xb0(%rsp)
  4077a1:	02 00 00 00 
  4077a5:	b8 00 00 00 00       	mov    $0x0,%eax
  4077aa:	b9 10 00 00 00       	mov    $0x10,%ecx
  4077af:	48 8d 54 24 30       	lea    0x30(%rsp),%rdx
  4077b4:	48 89 d7             	mov    %rdx,%rdi
  4077b7:	fc                   	cld    
  4077b8:	f3 48 ab             	rep stos %rax,%es:(%rdi)
  4077bb:	89 f8                	mov    %edi,%eax
  4077bd:	89 ca                	mov    %ecx,%edx
  4077bf:	89 54 24 1c          	mov    %edx,0x1c(%rsp)
  4077c3:	89 44 24 20          	mov    %eax,0x20(%rsp)
  4077c7:	8b 05 53 5c 00 00    	mov    0x5c53(%rip),%eax        # 40d420 <net_fd>
  4077cd:	8d 50 3f             	lea    0x3f(%rax),%edx
  4077d0:	85 c0                	test   %eax,%eax
  4077d2:	0f 48 c2             	cmovs  %edx,%eax
  4077d5:	c1 f8 06             	sar    $0x6,%eax
  4077d8:	89 c6                	mov    %eax,%esi
  4077da:	48 63 c6             	movslq %esi,%rax
  4077dd:	48 8b 7c c4 30       	mov    0x30(%rsp,%rax,8),%rdi
  4077e2:	8b 05 38 5c 00 00    	mov    0x5c38(%rip),%eax        # 40d420 <net_fd>
  4077e8:	99                   	cltd   
  4077e9:	c1 ea 1a             	shr    $0x1a,%edx
  4077ec:	01 d0                	add    %edx,%eax
  4077ee:	83 e0 3f             	and    $0x3f,%eax
  4077f1:	29 d0                	sub    %edx,%eax
  4077f3:	ba 01 00 00 00       	mov    $0x1,%edx
  4077f8:	89 c1                	mov    %eax,%ecx
  4077fa:	48 d3 e2             	shl    %cl,%rdx
  4077fd:	48 89 d0             	mov    %rdx,%rax
  407800:	48 09 c7             	or     %rax,%rdi
  407803:	48 89 fa             	mov    %rdi,%rdx
  407806:	48 63 c6             	movslq %esi,%rax
  407809:	48 89 54 c4 30       	mov    %rdx,0x30(%rsp,%rax,8)
  40780e:	8b 05 08 5c 00 00    	mov    0x5c08(%rip),%eax        # 40d41c <tap_fd>
  407814:	8d 50 3f             	lea    0x3f(%rax),%edx
  407817:	85 c0                	test   %eax,%eax
  407819:	0f 48 c2             	cmovs  %edx,%eax
  40781c:	c1 f8 06             	sar    $0x6,%eax
  40781f:	89 c6                	mov    %eax,%esi
  407821:	48 63 c6             	movslq %esi,%rax
  407824:	48 8b 7c c4 30       	mov    0x30(%rsp,%rax,8),%rdi
  407829:	8b 05 ed 5b 00 00    	mov    0x5bed(%rip),%eax        # 40d41c <tap_fd>
  40782f:	99                   	cltd   
  407830:	c1 ea 1a             	shr    $0x1a,%edx
  407833:	01 d0                	add    %edx,%eax
  407835:	83 e0 3f             	and    $0x3f,%eax
  407838:	29 d0                	sub    %edx,%eax
  40783a:	ba 01 00 00 00       	mov    $0x1,%edx
  40783f:	89 c1                	mov    %eax,%ecx
  407841:	48 d3 e2             	shl    %cl,%rdx
  407844:	48 89 d0             	mov    %rdx,%rax
  407847:	48 09 c7             	or     %rax,%rdi
  40784a:	48 89 fa             	mov    %rdi,%rdx
  40784d:	48 63 c6             	movslq %esi,%rax
  407850:	48 89 54 c4 30       	mov    %rdx,0x30(%rsp,%rax,8)
  407855:	8b 44 24 18          	mov    0x18(%rsp),%eax
  407859:	8d 78 01             	lea    0x1(%rax),%edi
  40785c:	48 8d 44 24 30       	lea    0x30(%rsp),%rax
  407861:	41 b8 00 00 00 00    	mov    $0x0,%r8d
  407867:	b9 00 00 00 00       	mov    $0x0,%ecx
  40786c:	ba 00 00 00 00       	mov    $0x0,%edx
  407871:	48 89 c6             	mov    %rax,%rsi
  407874:	e8 97 ae ff ff       	callq  402710 <select@plt>
  407879:	89 44 24 24          	mov    %eax,0x24(%rsp)
  40787d:	83 7c 24 24 00       	cmpl   $0x0,0x24(%rsp)
  407882:	79 31                	jns    4078b5 <teavpn_tcp_client+0x710>
  407884:	e8 27 ac ff ff       	callq  4024b0 <__errno_location@plt>
  407889:	8b 00                	mov    (%rax),%eax
  40788b:	83 f8 04             	cmp    $0x4,%eax
  40788e:	75 25                	jne    4078b5 <teavpn_tcp_client+0x710>
  407890:	0f b6 05 8d 5b 00 00 	movzbl 0x5b8d(%rip),%eax        # 40d424 <verbose_level>
  407897:	3c 01                	cmp    $0x1,%al
  407899:	0f 86 fe 02 00 00    	jbe    407b9d <teavpn_tcp_client+0x9f8>
  40789f:	48 8d 3d 1a 25 00 00 	lea    0x251a(%rip),%rdi        # 409dc0 <_IO_stdin_used+0xdc0>
  4078a6:	b8 00 00 00 00       	mov    $0x0,%eax
  4078ab:	e8 54 09 00 00       	callq  408204 <__internal_debug_log>
  4078b0:	e9 e8 02 00 00       	jmpq   407b9d <teavpn_tcp_client+0x9f8>
  4078b5:	83 7c 24 24 00       	cmpl   $0x0,0x24(%rsp)
  4078ba:	79 22                	jns    4078de <teavpn_tcp_client+0x739>
  4078bc:	48 8d 3d 1c 25 00 00 	lea    0x251c(%rip),%rdi        # 409ddf <_IO_stdin_used+0xddf>
  4078c3:	b8 00 00 00 00       	mov    $0x0,%eax
  4078c8:	e8 37 09 00 00       	callq  408204 <__internal_debug_log>
  4078cd:	48 8d 3d 22 25 00 00 	lea    0x2522(%rip),%rdi        # 409df6 <_IO_stdin_used+0xdf6>
  4078d4:	e8 f7 ae ff ff       	callq  4027d0 <perror@plt>
  4078d9:	e9 c6 02 00 00       	jmpq   407ba4 <teavpn_tcp_client+0x9ff>
  4078de:	8b 05 38 5b 00 00    	mov    0x5b38(%rip),%eax        # 40d41c <tap_fd>
  4078e4:	8d 50 3f             	lea    0x3f(%rax),%edx
  4078e7:	85 c0                	test   %eax,%eax
  4078e9:	0f 48 c2             	cmovs  %edx,%eax
  4078ec:	c1 f8 06             	sar    $0x6,%eax
  4078ef:	48 98                	cltq   
  4078f1:	48 8b 74 c4 30       	mov    0x30(%rsp,%rax,8),%rsi
  4078f6:	8b 05 20 5b 00 00    	mov    0x5b20(%rip),%eax        # 40d41c <tap_fd>
  4078fc:	99                   	cltd   
  4078fd:	c1 ea 1a             	shr    $0x1a,%edx
  407900:	01 d0                	add    %edx,%eax
  407902:	83 e0 3f             	and    $0x3f,%eax
  407905:	29 d0                	sub    %edx,%eax
  407907:	ba 01 00 00 00       	mov    $0x1,%edx
  40790c:	89 c1                	mov    %eax,%ecx
  40790e:	48 d3 e2             	shl    %cl,%rdx
  407911:	48 89 d0             	mov    %rdx,%rax
  407914:	48 21 f0             	and    %rsi,%rax
  407917:	48 85 c0             	test   %rax,%rax
  40791a:	0f 84 13 01 00 00    	je     407a33 <teavpn_tcp_client+0x88e>
  407920:	8b 05 f6 5a 00 00    	mov    0x5af6(%rip),%eax        # 40d41c <tap_fd>
  407926:	48 8d 94 24 b0 00 00 	lea    0xb0(%rsp),%rdx
  40792d:	00 
  40792e:	48 8d 4a 10          	lea    0x10(%rdx),%rcx
  407932:	ba b8 0b 00 00       	mov    $0xbb8,%edx
  407937:	48 89 ce             	mov    %rcx,%rsi
  40793a:	89 c7                	mov    %eax,%edi
  40793c:	e8 1f ad ff ff       	callq  402660 <read@plt>
  407941:	49 89 c4             	mov    %rax,%r12
  407944:	0f b6 05 d9 5a 00 00 	movzbl 0x5ad9(%rip),%eax        # 40d424 <verbose_level>
  40794b:	3c 03                	cmp    $0x3,%al
  40794d:	76 14                	jbe    407963 <teavpn_tcp_client+0x7be>
  40794f:	4c 89 e6             	mov    %r12,%rsi
  407952:	48 8d 3d a6 24 00 00 	lea    0x24a6(%rip),%rdi        # 409dff <_IO_stdin_used+0xdff>
  407959:	b8 00 00 00 00       	mov    $0x0,%eax
  40795e:	e8 a1 08 00 00       	callq  408204 <__internal_debug_log>
  407963:	4d 85 e4             	test   %r12,%r12
  407966:	79 22                	jns    40798a <teavpn_tcp_client+0x7e5>
  407968:	48 8d 3d ab 24 00 00 	lea    0x24ab(%rip),%rdi        # 409e1a <_IO_stdin_used+0xe1a>
  40796f:	b8 00 00 00 00       	mov    $0x0,%eax
  407974:	e8 8b 08 00 00       	callq  408204 <__internal_debug_log>
  407979:	48 8d 3d 9a 24 00 00 	lea    0x249a(%rip),%rdi        # 409e1a <_IO_stdin_used+0xe1a>
  407980:	e8 4b ae ff ff       	callq  4027d0 <perror@plt>
  407985:	e9 aa 00 00 00       	jmpq   407a34 <teavpn_tcp_client+0x88f>
  40798a:	48 83 44 24 28 01    	addq   $0x1,0x28(%rsp)
  407990:	48 8b 44 24 28       	mov    0x28(%rsp),%rax
  407995:	48 89 84 24 b8 00 00 	mov    %rax,0xb8(%rsp)
  40799c:	00 
  40799d:	44 89 e0             	mov    %r12d,%eax
  4079a0:	83 c0 10             	add    $0x10,%eax
  4079a3:	66 89 84 24 b4 00 00 	mov    %ax,0xb4(%rsp)
  4079aa:	00 
  4079ab:	4c 89 e0             	mov    %r12,%rax
  4079ae:	48 8d 50 10          	lea    0x10(%rax),%rdx
  4079b2:	8b 05 68 5a 00 00    	mov    0x5a68(%rip),%eax        # 40d420 <net_fd>
  4079b8:	48 8d 8c 24 b0 00 00 	lea    0xb0(%rsp),%rcx
  4079bf:	00 
  4079c0:	48 89 ce             	mov    %rcx,%rsi
  4079c3:	89 c7                	mov    %eax,%edi
  4079c5:	e8 56 ab ff ff       	callq  402520 <write@plt>
  4079ca:	48 89 c3             	mov    %rax,%rbx
  4079cd:	0f b6 05 50 5a 00 00 	movzbl 0x5a50(%rip),%eax        # 40d424 <verbose_level>
  4079d4:	3c 02                	cmp    $0x2,%al
  4079d6:	76 1c                	jbe    4079f4 <teavpn_tcp_client+0x84f>
  4079d8:	48 8b 44 24 28       	mov    0x28(%rsp),%rax
  4079dd:	48 89 da             	mov    %rbx,%rdx
  4079e0:	48 89 c6             	mov    %rax,%rsi
  4079e3:	48 8d 3d 4e 24 00 00 	lea    0x244e(%rip),%rdi        # 409e38 <_IO_stdin_used+0xe38>
  4079ea:	b8 00 00 00 00       	mov    $0x0,%eax
  4079ef:	e8 10 08 00 00       	callq  408204 <__internal_debug_log>
  4079f4:	48 85 db             	test   %rbx,%rbx
  4079f7:	75 16                	jne    407a0f <teavpn_tcp_client+0x86a>
  4079f9:	48 8d 3d 54 22 00 00 	lea    0x2254(%rip),%rdi        # 409c54 <_IO_stdin_used+0xc54>
  407a00:	b8 00 00 00 00       	mov    $0x0,%eax
  407a05:	e8 fa 07 00 00       	callq  408204 <__internal_debug_log>
  407a0a:	e9 9a 01 00 00       	jmpq   407ba9 <teavpn_tcp_client+0xa04>
  407a0f:	48 85 db             	test   %rbx,%rbx
  407a12:	79 1f                	jns    407a33 <teavpn_tcp_client+0x88e>
  407a14:	48 8d 3d 52 22 00 00 	lea    0x2252(%rip),%rdi        # 409c6d <_IO_stdin_used+0xc6d>
  407a1b:	b8 00 00 00 00       	mov    $0x0,%eax
  407a20:	e8 df 07 00 00       	callq  408204 <__internal_debug_log>
  407a25:	48 8d 3d 41 22 00 00 	lea    0x2241(%rip),%rdi        # 409c6d <_IO_stdin_used+0xc6d>
  407a2c:	e8 9f ad ff ff       	callq  4027d0 <perror@plt>
  407a31:	eb 01                	jmp    407a34 <teavpn_tcp_client+0x88f>
  407a33:	90                   	nop
  407a34:	8b 05 e6 59 00 00    	mov    0x59e6(%rip),%eax        # 40d420 <net_fd>
  407a3a:	8d 50 3f             	lea    0x3f(%rax),%edx
  407a3d:	85 c0                	test   %eax,%eax
  407a3f:	0f 48 c2             	cmovs  %edx,%eax
  407a42:	c1 f8 06             	sar    $0x6,%eax
  407a45:	48 98                	cltq   
  407a47:	48 8b 74 c4 30       	mov    0x30(%rsp,%rax,8),%rsi
  407a4c:	8b 05 ce 59 00 00    	mov    0x59ce(%rip),%eax        # 40d420 <net_fd>
  407a52:	99                   	cltd   
  407a53:	c1 ea 1a             	shr    $0x1a,%edx
  407a56:	01 d0                	add    %edx,%eax
  407a58:	83 e0 3f             	and    $0x3f,%eax
  407a5b:	29 d0                	sub    %edx,%eax
  407a5d:	ba 01 00 00 00       	mov    $0x1,%edx
  407a62:	89 c1                	mov    %eax,%ecx
  407a64:	48 d3 e2             	shl    %cl,%rdx
  407a67:	48 89 d0             	mov    %rdx,%rax
  407a6a:	48 21 f0             	and    %rsi,%rax
  407a6d:	48 85 c0             	test   %rax,%rax
  407a70:	0f 84 2d 01 00 00    	je     407ba3 <teavpn_tcp_client+0x9fe>
  407a76:	48 83 44 24 28 01    	addq   $0x1,0x28(%rsp)
  407a7c:	8b 05 9e 59 00 00    	mov    0x599e(%rip),%eax        # 40d420 <net_fd>
  407a82:	48 8d 8c 24 b0 00 00 	lea    0xb0(%rsp),%rcx
  407a89:	00 
  407a8a:	ba 10 10 00 00       	mov    $0x1010,%edx
  407a8f:	48 89 ce             	mov    %rcx,%rsi
  407a92:	89 c7                	mov    %eax,%edi
  407a94:	e8 c7 ab ff ff       	callq  402660 <read@plt>
  407a99:	49 89 c4             	mov    %rax,%r12
  407a9c:	0f b6 05 81 59 00 00 	movzbl 0x5981(%rip),%eax        # 40d424 <verbose_level>
  407aa3:	3c 02                	cmp    $0x2,%al
  407aa5:	76 4e                	jbe    407af5 <teavpn_tcp_client+0x950>
  407aa7:	48 8b 84 24 b8 00 00 	mov    0xb8(%rsp),%rax
  407aae:	00 
  407aaf:	48 39 44 24 28       	cmp    %rax,0x28(%rsp)
  407ab4:	75 09                	jne    407abf <teavpn_tcp_client+0x91a>
  407ab6:	48 8d 05 c6 21 00 00 	lea    0x21c6(%rip),%rax        # 409c83 <_IO_stdin_used+0xc83>
  407abd:	eb 07                	jmp    407ac6 <teavpn_tcp_client+0x921>
  407abf:	48 8d 05 c3 21 00 00 	lea    0x21c3(%rip),%rax        # 409c89 <_IO_stdin_used+0xc89>
  407ac6:	48 8b 8c 24 b8 00 00 	mov    0xb8(%rsp),%rcx
  407acd:	00 
  407ace:	48 8b 54 24 28       	mov    0x28(%rsp),%rdx
  407ad3:	48 8b 74 24 28       	mov    0x28(%rsp),%rsi
  407ad8:	49 89 c1             	mov    %rax,%r9
  407adb:	49 89 c8             	mov    %rcx,%r8
  407ade:	48 89 d1             	mov    %rdx,%rcx
  407ae1:	4c 89 e2             	mov    %r12,%rdx
  407ae4:	48 8d 3d 75 23 00 00 	lea    0x2375(%rip),%rdi        # 409e60 <_IO_stdin_used+0xe60>
  407aeb:	b8 00 00 00 00       	mov    $0x0,%eax
  407af0:	e8 0f 07 00 00       	callq  408204 <__internal_debug_log>
  407af5:	4d 85 e4             	test   %r12,%r12
  407af8:	75 16                	jne    407b10 <teavpn_tcp_client+0x96b>
  407afa:	48 8d 3d 53 21 00 00 	lea    0x2153(%rip),%rdi        # 409c54 <_IO_stdin_used+0xc54>
  407b01:	b8 00 00 00 00       	mov    $0x0,%eax
  407b06:	e8 f9 06 00 00       	callq  408204 <__internal_debug_log>
  407b0b:	e9 99 00 00 00       	jmpq   407ba9 <teavpn_tcp_client+0xa04>
  407b10:	4d 85 e4             	test   %r12,%r12
  407b13:	79 1f                	jns    407b34 <teavpn_tcp_client+0x98f>
  407b15:	48 8d 3d 91 23 00 00 	lea    0x2391(%rip),%rdi        # 409ead <_IO_stdin_used+0xead>
  407b1c:	b8 00 00 00 00       	mov    $0x0,%eax
  407b21:	e8 de 06 00 00       	callq  408204 <__internal_debug_log>
  407b26:	48 8d 3d 80 23 00 00 	lea    0x2380(%rip),%rdi        # 409ead <_IO_stdin_used+0xead>
  407b2d:	e8 9e ac ff ff       	callq  4027d0 <perror@plt>
  407b32:	eb 70                	jmp    407ba4 <teavpn_tcp_client+0x9ff>
  407b34:	4c 89 e0             	mov    %r12,%rax
  407b37:	48 8d 50 f0          	lea    -0x10(%rax),%rdx
  407b3b:	8b 05 db 58 00 00    	mov    0x58db(%rip),%eax        # 40d41c <tap_fd>
  407b41:	48 8d 8c 24 b0 00 00 	lea    0xb0(%rsp),%rcx
  407b48:	00 
  407b49:	48 83 c1 10          	add    $0x10,%rcx
  407b4d:	48 89 ce             	mov    %rcx,%rsi
  407b50:	89 c7                	mov    %eax,%edi
  407b52:	e8 c9 a9 ff ff       	callq  402520 <write@plt>
  407b57:	48 89 c3             	mov    %rax,%rbx
  407b5a:	0f b6 05 c3 58 00 00 	movzbl 0x58c3(%rip),%eax        # 40d424 <verbose_level>
  407b61:	3c 03                	cmp    $0x3,%al
  407b63:	76 14                	jbe    407b79 <teavpn_tcp_client+0x9d4>
  407b65:	48 89 de             	mov    %rbx,%rsi
  407b68:	48 8d 3d 55 23 00 00 	lea    0x2355(%rip),%rdi        # 409ec4 <_IO_stdin_used+0xec4>
  407b6f:	b8 00 00 00 00       	mov    $0x0,%eax
  407b74:	e8 8b 06 00 00       	callq  408204 <__internal_debug_log>
  407b79:	4d 85 e4             	test   %r12,%r12
  407b7c:	79 25                	jns    407ba3 <teavpn_tcp_client+0x9fe>
  407b7e:	48 8d 3d 95 22 00 00 	lea    0x2295(%rip),%rdi        # 409e1a <_IO_stdin_used+0xe1a>
  407b85:	b8 00 00 00 00       	mov    $0x0,%eax
  407b8a:	e8 75 06 00 00       	callq  408204 <__internal_debug_log>
  407b8f:	48 8d 3d 84 22 00 00 	lea    0x2284(%rip),%rdi        # 409e1a <_IO_stdin_used+0xe1a>
  407b96:	e8 35 ac ff ff       	callq  4027d0 <perror@plt>
  407b9b:	eb 07                	jmp    407ba4 <teavpn_tcp_client+0x9ff>
  407b9d:	90                   	nop
  407b9e:	e9 02 fc ff ff       	jmpq   4077a5 <teavpn_tcp_client+0x600>
  407ba3:	90                   	nop
  407ba4:	e9 fc fb ff ff       	jmpq   4077a5 <teavpn_tcp_client+0x600>
  407ba9:	8b 05 6d 58 00 00    	mov    0x586d(%rip),%eax        # 40d41c <tap_fd>
  407baf:	89 c7                	mov    %eax,%edi
  407bb1:	e8 7a aa ff ff       	callq  402630 <close@plt>
  407bb6:	8b 05 64 58 00 00    	mov    0x5864(%rip),%eax        # 40d420 <net_fd>
  407bbc:	89 c7                	mov    %eax,%edi
  407bbe:	e8 6d aa ff ff       	callq  402630 <close@plt>
  407bc3:	b8 01 00 00 00       	mov    $0x1,%eax
  407bc8:	48 8b 9c 24 c8 20 00 	mov    0x20c8(%rsp),%rbx
  407bcf:	00 
  407bd0:	64 48 33 1c 25 28 00 	xor    %fs:0x28,%rbx
  407bd7:	00 00 
  407bd9:	74 05                	je     407be0 <teavpn_tcp_client+0xa3b>
  407bdb:	e8 a0 a9 ff ff       	callq  402580 <__stack_chk_fail@plt>
  407be0:	48 8d 65 f0          	lea    -0x10(%rbp),%rsp
  407be4:	5b                   	pop    %rbx
  407be5:	41 5c                	pop    %r12
  407be7:	5d                   	pop    %rbp
  407be8:	c3                   	retq   

0000000000407be9 <teavpn_tcp_client_init>:
  407be9:	f3 0f 1e fa          	endbr64 
  407bed:	55                   	push   %rbp
  407bee:	48 89 e5             	mov    %rsp,%rbp
  407bf1:	48 83 ec 10          	sub    $0x10,%rsp
  407bf5:	48 89 7d f8          	mov    %rdi,-0x8(%rbp)
  407bf9:	48 89 75 f0          	mov    %rsi,-0x10(%rbp)
  407bfd:	48 8b 45 f0          	mov    -0x10(%rbp),%rax
  407c01:	48 8b 40 08          	mov    0x8(%rax),%rax
  407c05:	48 85 c0             	test   %rax,%rax
  407c08:	74 35                	je     407c3f <teavpn_tcp_client_init+0x56>
  407c0a:	48 8b 55 f0          	mov    -0x10(%rbp),%rdx
  407c0e:	48 8b 45 f8          	mov    -0x8(%rbp),%rax
  407c12:	48 89 d6             	mov    %rdx,%rsi
  407c15:	48 89 c7             	mov    %rax,%rdi
  407c18:	e8 c7 ec ff ff       	callq  4068e4 <teavpn_client_config_parser>
  407c1d:	83 f0 01             	xor    $0x1,%eax
  407c20:	84 c0                	test   %al,%al
  407c22:	74 1b                	je     407c3f <teavpn_tcp_client_init+0x56>
  407c24:	48 8d 3d b3 22 00 00 	lea    0x22b3(%rip),%rdi        # 409ede <_IO_stdin_used+0xede>
  407c2b:	b8 00 00 00 00       	mov    $0x0,%eax
  407c30:	e8 cf 05 00 00       	callq  408204 <__internal_debug_log>
  407c35:	b8 01 00 00 00       	mov    $0x1,%eax
  407c3a:	e9 d8 01 00 00       	jmpq   407e17 <teavpn_tcp_client_init+0x22e>
  407c3f:	48 8b 45 f0          	mov    -0x10(%rbp),%rax
  407c43:	48 8b 40 28          	mov    0x28(%rax),%rax
  407c47:	48 85 c0             	test   %rax,%rax
  407c4a:	75 1b                	jne    407c67 <teavpn_tcp_client_init+0x7e>
  407c4c:	48 8d 3d 99 22 00 00 	lea    0x2299(%rip),%rdi        # 409eec <_IO_stdin_used+0xeec>
  407c53:	b8 00 00 00 00       	mov    $0x0,%eax
  407c58:	e8 a7 05 00 00       	callq  408204 <__internal_debug_log>
  407c5d:	b8 01 00 00 00       	mov    $0x1,%eax
  407c62:	e9 b0 01 00 00       	jmpq   407e17 <teavpn_tcp_client_init+0x22e>
  407c67:	48 8b 45 f0          	mov    -0x10(%rbp),%rax
  407c6b:	0f b6 40 38          	movzbl 0x38(%rax),%eax
  407c6f:	3c 3f                	cmp    $0x3f,%al
  407c71:	76 1b                	jbe    407c8e <teavpn_tcp_client_init+0xa5>
  407c73:	48 8d 3d 8b 22 00 00 	lea    0x228b(%rip),%rdi        # 409f05 <_IO_stdin_used+0xf05>
  407c7a:	b8 00 00 00 00       	mov    $0x0,%eax
  407c7f:	e8 80 05 00 00       	callq  408204 <__internal_debug_log>
  407c84:	b8 01 00 00 00       	mov    $0x1,%eax
  407c89:	e9 89 01 00 00       	jmpq   407e17 <teavpn_tcp_client_init+0x22e>
  407c8e:	48 8b 45 f0          	mov    -0x10(%rbp),%rax
  407c92:	48 8b 40 30          	mov    0x30(%rax),%rax
  407c96:	48 85 c0             	test   %rax,%rax
  407c99:	75 1b                	jne    407cb6 <teavpn_tcp_client_init+0xcd>
  407c9b:	48 8d 3d 7b 22 00 00 	lea    0x227b(%rip),%rdi        # 409f1d <_IO_stdin_used+0xf1d>
  407ca2:	b8 00 00 00 00       	mov    $0x0,%eax
  407ca7:	e8 58 05 00 00       	callq  408204 <__internal_debug_log>
  407cac:	b8 01 00 00 00       	mov    $0x1,%eax
  407cb1:	e9 61 01 00 00       	jmpq   407e17 <teavpn_tcp_client_init+0x22e>
  407cb6:	48 8b 45 f0          	mov    -0x10(%rbp),%rax
  407cba:	48 8b 00             	mov    (%rax),%rax
  407cbd:	48 85 c0             	test   %rax,%rax
  407cc0:	75 1b                	jne    407cdd <teavpn_tcp_client_init+0xf4>
  407cc2:	48 8d 3d 6d 22 00 00 	lea    0x226d(%rip),%rdi        # 409f36 <_IO_stdin_used+0xf36>
  407cc9:	b8 00 00 00 00       	mov    $0x0,%eax
  407cce:	e8 31 05 00 00       	callq  408204 <__internal_debug_log>
  407cd3:	b8 01 00 00 00       	mov    $0x1,%eax
  407cd8:	e9 3a 01 00 00       	jmpq   407e17 <teavpn_tcp_client_init+0x22e>
  407cdd:	48 8b 45 f0          	mov    -0x10(%rbp),%rax
  407ce1:	0f b7 40 3a          	movzwl 0x3a(%rax),%eax
  407ce5:	66 85 c0             	test   %ax,%ax
  407ce8:	75 1b                	jne    407d05 <teavpn_tcp_client_init+0x11c>
  407cea:	48 8d 3d 5f 22 00 00 	lea    0x225f(%rip),%rdi        # 409f50 <_IO_stdin_used+0xf50>
  407cf1:	b8 00 00 00 00       	mov    $0x0,%eax
  407cf6:	e8 09 05 00 00       	callq  408204 <__internal_debug_log>
  407cfb:	b8 01 00 00 00       	mov    $0x1,%eax
  407d00:	e9 12 01 00 00       	jmpq   407e17 <teavpn_tcp_client_init+0x22e>
  407d05:	48 8b 45 f0          	mov    -0x10(%rbp),%rax
  407d09:	0f b6 40 3c          	movzbl 0x3c(%rax),%eax
  407d0d:	88 05 11 57 00 00    	mov    %al,0x5711(%rip)        # 40d424 <verbose_level>
  407d13:	0f b6 05 0a 57 00 00 	movzbl 0x570a(%rip),%eax        # 40d424 <verbose_level>
  407d1a:	3c 01                	cmp    $0x1,%al
  407d1c:	76 11                	jbe    407d2f <teavpn_tcp_client_init+0x146>
  407d1e:	48 8d 3d 4b 22 00 00 	lea    0x224b(%rip),%rdi        # 409f70 <_IO_stdin_used+0xf70>
  407d25:	b8 00 00 00 00       	mov    $0x0,%eax
  407d2a:	e8 d5 04 00 00       	callq  408204 <__internal_debug_log>
  407d2f:	48 8b 45 f0          	mov    -0x10(%rbp),%rax
  407d33:	48 8b 40 18          	mov    0x18(%rax),%rax
  407d37:	be 01 00 00 00       	mov    $0x1,%esi
  407d3c:	48 89 c7             	mov    %rax,%rdi
  407d3f:	e8 24 06 00 00       	callq  408368 <tun_alloc>
  407d44:	89 05 d2 56 00 00    	mov    %eax,0x56d2(%rip)        # 40d41c <tap_fd>
  407d4a:	8b 05 cc 56 00 00    	mov    0x56cc(%rip),%eax        # 40d41c <tap_fd>
  407d50:	85 c0                	test   %eax,%eax
  407d52:	79 26                	jns    407d7a <teavpn_tcp_client_init+0x191>
  407d54:	48 8b 45 f0          	mov    -0x10(%rbp),%rax
  407d58:	48 8b 40 18          	mov    0x18(%rax),%rax
  407d5c:	48 89 c6             	mov    %rax,%rsi
  407d5f:	48 8d 3d 2a 22 00 00 	lea    0x222a(%rip),%rdi        # 409f90 <_IO_stdin_used+0xf90>
  407d66:	b8 00 00 00 00       	mov    $0x0,%eax
  407d6b:	e8 94 04 00 00       	callq  408204 <__internal_debug_log>
  407d70:	b8 01 00 00 00       	mov    $0x1,%eax
  407d75:	e9 9d 00 00 00       	jmpq   407e17 <teavpn_tcp_client_init+0x22e>
  407d7a:	48 8b 45 f0          	mov    -0x10(%rbp),%rax
  407d7e:	48 8b 40 18          	mov    0x18(%rax),%rax
  407d82:	48 89 c6             	mov    %rax,%rsi
  407d85:	48 8d 3d 34 22 00 00 	lea    0x2234(%rip),%rdi        # 409fc0 <_IO_stdin_used+0xfc0>
  407d8c:	b8 00 00 00 00       	mov    $0x0,%eax
  407d91:	e8 6e 04 00 00       	callq  408204 <__internal_debug_log>
  407d96:	0f b6 05 87 56 00 00 	movzbl 0x5687(%rip),%eax        # 40d424 <verbose_level>
  407d9d:	84 c0                	test   %al,%al
  407d9f:	74 11                	je     407db2 <teavpn_tcp_client_init+0x1c9>
  407da1:	48 8d 3d 43 22 00 00 	lea    0x2243(%rip),%rdi        # 409feb <_IO_stdin_used+0xfeb>
  407da8:	b8 00 00 00 00       	mov    $0x0,%eax
  407dad:	e8 52 04 00 00       	callq  408204 <__internal_debug_log>
  407db2:	ba 00 00 00 00       	mov    $0x0,%edx
  407db7:	be 01 00 00 00       	mov    $0x1,%esi
  407dbc:	bf 02 00 00 00       	mov    $0x2,%edi
  407dc1:	e8 da aa ff ff       	callq  4028a0 <socket@plt>
  407dc6:	89 05 54 56 00 00    	mov    %eax,0x5654(%rip)        # 40d420 <net_fd>
  407dcc:	8b 05 4e 56 00 00    	mov    0x564e(%rip),%eax        # 40d420 <net_fd>
  407dd2:	85 c0                	test   %eax,%eax
  407dd4:	79 20                	jns    407df6 <teavpn_tcp_client_init+0x20d>
  407dd6:	8b 05 40 56 00 00    	mov    0x5640(%rip),%eax        # 40d41c <tap_fd>
  407ddc:	89 c7                	mov    %eax,%edi
  407dde:	e8 4d a8 ff ff       	callq  402630 <close@plt>
  407de3:	48 8d 3d 18 22 00 00 	lea    0x2218(%rip),%rdi        # 40a002 <_IO_stdin_used+0x1002>
  407dea:	e8 e1 a9 ff ff       	callq  4027d0 <perror@plt>
  407def:	b8 01 00 00 00       	mov    $0x1,%eax
  407df4:	eb 21                	jmp    407e17 <teavpn_tcp_client_init+0x22e>
  407df6:	0f b6 05 27 56 00 00 	movzbl 0x5627(%rip),%eax        # 40d424 <verbose_level>
  407dfd:	84 c0                	test   %al,%al
  407dff:	74 11                	je     407e12 <teavpn_tcp_client_init+0x229>
  407e01:	48 8d 3d 18 22 00 00 	lea    0x2218(%rip),%rdi        # 40a020 <_IO_stdin_used+0x1020>
  407e08:	b8 00 00 00 00       	mov    $0x0,%eax
  407e0d:	e8 f2 03 00 00       	callq  408204 <__internal_debug_log>
  407e12:	b8 00 00 00 00       	mov    $0x0,%eax
  407e17:	c9                   	leaveq 
  407e18:	c3                   	retq   

0000000000407e19 <print_err_sig>:
  407e19:	f3 0f 1e fa          	endbr64 
  407e1d:	55                   	push   %rbp
  407e1e:	48 89 e5             	mov    %rsp,%rbp
  407e21:	48 83 ec 10          	sub    $0x10,%rsp
  407e25:	89 f8                	mov    %edi,%eax
  407e27:	88 45 fc             	mov    %al,-0x4(%rbp)
  407e2a:	0f b6 45 fc          	movzbl -0x4(%rbp),%eax
  407e2e:	83 f8 08             	cmp    $0x8,%eax
  407e31:	74 41                	je     407e74 <print_err_sig+0x5b>
  407e33:	83 f8 08             	cmp    $0x8,%eax
  407e36:	7f 62                	jg     407e9a <print_err_sig+0x81>
  407e38:	83 f8 04             	cmp    $0x4,%eax
  407e3b:	74 24                	je     407e61 <print_err_sig+0x48>
  407e3d:	83 f8 04             	cmp    $0x4,%eax
  407e40:	7f 58                	jg     407e9a <print_err_sig+0x81>
  407e42:	83 f8 01             	cmp    $0x1,%eax
  407e45:	74 07                	je     407e4e <print_err_sig+0x35>
  407e47:	83 f8 02             	cmp    $0x2,%eax
  407e4a:	74 3b                	je     407e87 <print_err_sig+0x6e>
  407e4c:	eb 4c                	jmp    407e9a <print_err_sig+0x81>
  407e4e:	48 8d 3d eb 21 00 00 	lea    0x21eb(%rip),%rdi        # 40a040 <_IO_stdin_used+0x1040>
  407e55:	b8 00 00 00 00       	mov    $0x0,%eax
  407e5a:	e8 a5 03 00 00       	callq  408204 <__internal_debug_log>
  407e5f:	eb 4b                	jmp    407eac <print_err_sig+0x93>
  407e61:	48 8d 3d f8 21 00 00 	lea    0x21f8(%rip),%rdi        # 40a060 <_IO_stdin_used+0x1060>
  407e68:	b8 00 00 00 00       	mov    $0x0,%eax
  407e6d:	e8 92 03 00 00       	callq  408204 <__internal_debug_log>
  407e72:	eb 38                	jmp    407eac <print_err_sig+0x93>
  407e74:	48 8d 3d 13 22 00 00 	lea    0x2213(%rip),%rdi        # 40a08e <_IO_stdin_used+0x108e>
  407e7b:	b8 00 00 00 00       	mov    $0x0,%eax
  407e80:	e8 7f 03 00 00       	callq  408204 <__internal_debug_log>
  407e85:	eb 25                	jmp    407eac <print_err_sig+0x93>
  407e87:	48 8d 3d 14 22 00 00 	lea    0x2214(%rip),%rdi        # 40a0a2 <_IO_stdin_used+0x10a2>
  407e8e:	b8 00 00 00 00       	mov    $0x0,%eax
  407e93:	e8 6c 03 00 00       	callq  408204 <__internal_debug_log>
  407e98:	eb 12                	jmp    407eac <print_err_sig+0x93>
  407e9a:	48 8d 3d 09 22 00 00 	lea    0x2209(%rip),%rdi        # 40a0aa <_IO_stdin_used+0x10aa>
  407ea1:	b8 00 00 00 00       	mov    $0x0,%eax
  407ea6:	e8 59 03 00 00       	callq  408204 <__internal_debug_log>
  407eab:	90                   	nop
  407eac:	90                   	nop
  407ead:	c9                   	leaveq 
  407eae:	c3                   	retq   

0000000000407eaf <teavpn_tcp_client_init_iface>:
  407eaf:	f3 0f 1e fa          	endbr64 
  407eb3:	55                   	push   %rbp
  407eb4:	48 89 e5             	mov    %rsp,%rbp
  407eb7:	48 81 ec 30 01 00 00 	sub    $0x130,%rsp
  407ebe:	48 89 bd d8 fe ff ff 	mov    %rdi,-0x128(%rbp)
  407ec5:	48 89 b5 d0 fe ff ff 	mov    %rsi,-0x130(%rbp)
  407ecc:	64 48 8b 04 25 28 00 	mov    %fs:0x28,%rax
  407ed3:	00 00 
  407ed5:	48 89 45 f8          	mov    %rax,-0x8(%rbp)
  407ed9:	31 c0                	xor    %eax,%eax
  407edb:	48 c7 85 00 ff ff ff 	movq   $0x0,-0x100(%rbp)
  407ee2:	00 00 00 00 
  407ee6:	48 8b 85 d8 fe ff ff 	mov    -0x128(%rbp),%rax
  407eed:	48 8b 40 18          	mov    0x18(%rax),%rax
  407ef1:	48 89 c7             	mov    %rax,%rdi
  407ef4:	e8 39 b7 ff ff       	callq  403632 <escapeshellarg>
  407ef9:	48 89 85 08 ff ff ff 	mov    %rax,-0xf8(%rbp)
  407f00:	48 8b 85 d0 fe ff ff 	mov    -0x130(%rbp),%rax
  407f07:	48 89 c7             	mov    %rax,%rdi
  407f0a:	e8 23 b7 ff ff       	callq  403632 <escapeshellarg>
  407f0f:	48 89 85 10 ff ff ff 	mov    %rax,-0xf0(%rbp)
  407f16:	48 8b 85 d0 fe ff ff 	mov    -0x130(%rbp),%rax
  407f1d:	48 83 c0 13          	add    $0x13,%rax
  407f21:	48 89 c7             	mov    %rax,%rdi
  407f24:	e8 09 b7 ff ff       	callq  403632 <escapeshellarg>
  407f29:	48 89 85 18 ff ff ff 	mov    %rax,-0xe8(%rbp)
  407f30:	48 8b 85 d8 fe ff ff 	mov    -0x128(%rbp),%rax
  407f37:	0f b7 40 20          	movzwl 0x20(%rax),%eax
  407f3b:	0f b7 c8             	movzwl %ax,%ecx
  407f3e:	48 8b 95 08 ff ff ff 	mov    -0xf8(%rbp),%rdx
  407f45:	48 8d 85 20 ff ff ff 	lea    -0xe0(%rbp),%rax
  407f4c:	48 8d 35 6d 21 00 00 	lea    0x216d(%rip),%rsi        # 40a0c0 <_IO_stdin_used+0x10c0>
  407f53:	48 89 c7             	mov    %rax,%rdi
  407f56:	b8 00 00 00 00       	mov    $0x0,%eax
  407f5b:	e8 b0 a8 ff ff       	callq  402810 <sprintf@plt>
  407f60:	0f b6 05 bd 54 00 00 	movzbl 0x54bd(%rip),%eax        # 40d424 <verbose_level>
  407f67:	84 c0                	test   %al,%al
  407f69:	74 1b                	je     407f86 <teavpn_tcp_client_init_iface+0xd7>
  407f6b:	48 8d 85 20 ff ff ff 	lea    -0xe0(%rbp),%rax
  407f72:	48 89 c6             	mov    %rax,%rsi
  407f75:	48 8d 3d 67 21 00 00 	lea    0x2167(%rip),%rdi        # 40a0e3 <_IO_stdin_used+0x10e3>
  407f7c:	b8 00 00 00 00       	mov    $0x0,%eax
  407f81:	e8 7e 02 00 00       	callq  408204 <__internal_debug_log>
  407f86:	48 8d 85 20 ff ff ff 	lea    -0xe0(%rbp),%rax
  407f8d:	48 89 c7             	mov    %rax,%rdi
  407f90:	e8 1b a6 ff ff       	callq  4025b0 <system@plt>
  407f95:	85 c0                	test   %eax,%eax
  407f97:	74 0c                	je     407fa5 <teavpn_tcp_client_init_iface+0xf6>
  407f99:	c6 85 ef fe ff ff 00 	movb   $0x0,-0x111(%rbp)
  407fa0:	e9 15 02 00 00       	jmpq   4081ba <teavpn_tcp_client_init_iface+0x30b>
  407fa5:	48 8b b5 18 ff ff ff 	mov    -0xe8(%rbp),%rsi
  407fac:	48 8b 8d 10 ff ff ff 	mov    -0xf0(%rbp),%rcx
  407fb3:	48 8b 95 08 ff ff ff 	mov    -0xf8(%rbp),%rdx
  407fba:	48 8d 85 20 ff ff ff 	lea    -0xe0(%rbp),%rax
  407fc1:	49 89 f0             	mov    %rsi,%r8
  407fc4:	48 8d 35 2d 21 00 00 	lea    0x212d(%rip),%rsi        # 40a0f8 <_IO_stdin_used+0x10f8>
  407fcb:	48 89 c7             	mov    %rax,%rdi
  407fce:	b8 00 00 00 00       	mov    $0x0,%eax
  407fd3:	e8 38 a8 ff ff       	callq  402810 <sprintf@plt>
  407fd8:	48 8d 85 20 ff ff ff 	lea    -0xe0(%rbp),%rax
  407fdf:	48 89 c6             	mov    %rax,%rsi
  407fe2:	48 8d 3d 38 21 00 00 	lea    0x2138(%rip),%rdi        # 40a121 <_IO_stdin_used+0x1121>
  407fe9:	b8 00 00 00 00       	mov    $0x0,%eax
  407fee:	e8 11 02 00 00       	callq  408204 <__internal_debug_log>
  407ff3:	48 8d 85 20 ff ff ff 	lea    -0xe0(%rbp),%rax
  407ffa:	48 89 c7             	mov    %rax,%rdi
  407ffd:	e8 ae a5 ff ff       	callq  4025b0 <system@plt>
  408002:	85 c0                	test   %eax,%eax
  408004:	74 0c                	je     408012 <teavpn_tcp_client_init_iface+0x163>
  408006:	c6 85 ef fe ff ff 00 	movb   $0x0,-0x111(%rbp)
  40800d:	e9 a8 01 00 00       	jmpq   4081ba <teavpn_tcp_client_init_iface+0x30b>
  408012:	48 8b 85 d8 fe ff ff 	mov    -0x128(%rbp),%rax
  408019:	48 8b 10             	mov    (%rax),%rdx
  40801c:	48 8d 85 20 ff ff ff 	lea    -0xe0(%rbp),%rax
  408023:	48 8d 35 05 21 00 00 	lea    0x2105(%rip),%rsi        # 40a12f <_IO_stdin_used+0x112f>
  40802a:	48 89 c7             	mov    %rax,%rdi
  40802d:	b8 00 00 00 00       	mov    $0x0,%eax
  408032:	e8 d9 a7 ff ff       	callq  402810 <sprintf@plt>
  408037:	48 8d 85 20 ff ff ff 	lea    -0xe0(%rbp),%rax
  40803e:	48 89 c6             	mov    %rax,%rsi
  408041:	48 8d 3d d9 20 00 00 	lea    0x20d9(%rip),%rdi        # 40a121 <_IO_stdin_used+0x1121>
  408048:	b8 00 00 00 00       	mov    $0x0,%eax
  40804d:	e8 b2 01 00 00       	callq  408204 <__internal_debug_log>
  408052:	48 8d 85 20 ff ff ff 	lea    -0xe0(%rbp),%rax
  408059:	48 8d 35 e5 20 00 00 	lea    0x20e5(%rip),%rsi        # 40a145 <_IO_stdin_used+0x1145>
  408060:	48 89 c7             	mov    %rax,%rdi
  408063:	e8 48 a7 ff ff       	callq  4027b0 <popen@plt>
  408068:	48 89 85 00 ff ff ff 	mov    %rax,-0x100(%rbp)
  40806f:	48 8b 95 00 ff ff ff 	mov    -0x100(%rbp),%rdx
  408076:	48 8d 45 90          	lea    -0x70(%rbp),%rax
  40807a:	be 63 00 00 00       	mov    $0x63,%esi
  40807f:	48 89 c7             	mov    %rax,%rdi
  408082:	e8 e9 a5 ff ff       	callq  402670 <fgets@plt>
  408087:	48 8b 85 00 ff ff ff 	mov    -0x100(%rbp),%rax
  40808e:	48 89 c7             	mov    %rax,%rdi
  408091:	e8 5a a5 ff ff       	callq  4025f0 <pclose@plt>
  408096:	48 8d 45 90          	lea    -0x70(%rbp),%rax
  40809a:	48 8d 35 a6 20 00 00 	lea    0x20a6(%rip),%rsi        # 40a147 <_IO_stdin_used+0x1147>
  4080a1:	48 89 c7             	mov    %rax,%rdi
  4080a4:	e8 c7 a7 ff ff       	callq  402870 <strstr@plt>
  4080a9:	48 89 85 f0 fe ff ff 	mov    %rax,-0x110(%rbp)
  4080b0:	48 83 bd f0 fe ff ff 	cmpq   $0x0,-0x110(%rbp)
  4080b7:	00 
  4080b8:	75 1b                	jne    4080d5 <teavpn_tcp_client_init_iface+0x226>
  4080ba:	48 8d 3d 8a 20 00 00 	lea    0x208a(%rip),%rdi        # 40a14b <_IO_stdin_used+0x114b>
  4080c1:	b8 00 00 00 00       	mov    $0x0,%eax
  4080c6:	e8 39 01 00 00       	callq  408204 <__internal_debug_log>
  4080cb:	eb 4e                	jmp    40811b <teavpn_tcp_client_init_iface+0x26c>
  4080cd:	48 83 85 f0 fe ff ff 	addq   $0x1,-0x110(%rbp)
  4080d4:	01 
  4080d5:	48 8b 85 f0 fe ff ff 	mov    -0x110(%rbp),%rax
  4080dc:	0f b6 00             	movzbl (%rax),%eax
  4080df:	3c 20                	cmp    $0x20,%al
  4080e1:	75 ea                	jne    4080cd <teavpn_tcp_client_init_iface+0x21e>
  4080e3:	48 83 85 f0 fe ff ff 	addq   $0x1,-0x110(%rbp)
  4080ea:	01 
  4080eb:	48 8b 85 f0 fe ff ff 	mov    -0x110(%rbp),%rax
  4080f2:	48 89 85 f8 fe ff ff 	mov    %rax,-0x108(%rbp)
  4080f9:	eb 08                	jmp    408103 <teavpn_tcp_client_init_iface+0x254>
  4080fb:	48 83 85 f8 fe ff ff 	addq   $0x1,-0x108(%rbp)
  408102:	01 
  408103:	48 8b 85 f8 fe ff ff 	mov    -0x108(%rbp),%rax
  40810a:	0f b6 00             	movzbl (%rax),%eax
  40810d:	3c 20                	cmp    $0x20,%al
  40810f:	75 ea                	jne    4080fb <teavpn_tcp_client_init_iface+0x24c>
  408111:	48 8b 85 f8 fe ff ff 	mov    -0x108(%rbp),%rax
  408118:	c6 00 00             	movb   $0x0,(%rax)
  40811b:	48 8d 85 20 ff ff ff 	lea    -0xe0(%rbp),%rax
  408122:	48 8d 15 3e 20 00 00 	lea    0x203e(%rip),%rdx        # 40a167 <_IO_stdin_used+0x1167>
  408129:	48 8d 35 40 20 00 00 	lea    0x2040(%rip),%rsi        # 40a170 <_IO_stdin_used+0x1170>
  408130:	48 89 c7             	mov    %rax,%rdi
  408133:	b8 00 00 00 00       	mov    $0x0,%eax
  408138:	e8 d3 a6 ff ff       	callq  402810 <sprintf@plt>
  40813d:	48 8d 85 20 ff ff ff 	lea    -0xe0(%rbp),%rax
  408144:	48 89 c6             	mov    %rax,%rsi
  408147:	48 8d 3d d3 1f 00 00 	lea    0x1fd3(%rip),%rdi        # 40a121 <_IO_stdin_used+0x1121>
  40814e:	b8 00 00 00 00       	mov    $0x0,%eax
  408153:	e8 ac 00 00 00       	callq  408204 <__internal_debug_log>
  408158:	48 8d 85 20 ff ff ff 	lea    -0xe0(%rbp),%rax
  40815f:	48 89 c7             	mov    %rax,%rdi
  408162:	e8 49 a4 ff ff       	callq  4025b0 <system@plt>
  408167:	48 8d 85 20 ff ff ff 	lea    -0xe0(%rbp),%rax
  40816e:	48 8d 15 f2 1f 00 00 	lea    0x1ff2(%rip),%rdx        # 40a167 <_IO_stdin_used+0x1167>
  408175:	48 8d 35 1c 20 00 00 	lea    0x201c(%rip),%rsi        # 40a198 <_IO_stdin_used+0x1198>
  40817c:	48 89 c7             	mov    %rax,%rdi
  40817f:	b8 00 00 00 00       	mov    $0x0,%eax
  408184:	e8 87 a6 ff ff       	callq  402810 <sprintf@plt>
  408189:	48 8d 85 20 ff ff ff 	lea    -0xe0(%rbp),%rax
  408190:	48 89 c6             	mov    %rax,%rsi
  408193:	48 8d 3d 87 1f 00 00 	lea    0x1f87(%rip),%rdi        # 40a121 <_IO_stdin_used+0x1121>
  40819a:	b8 00 00 00 00       	mov    $0x0,%eax
  40819f:	e8 60 00 00 00       	callq  408204 <__internal_debug_log>
  4081a4:	48 8d 85 20 ff ff ff 	lea    -0xe0(%rbp),%rax
  4081ab:	48 89 c7             	mov    %rax,%rdi
  4081ae:	e8 fd a3 ff ff       	callq  4025b0 <system@plt>
  4081b3:	c6 85 ef fe ff ff 01 	movb   $0x1,-0x111(%rbp)
  4081ba:	48 8b 85 08 ff ff ff 	mov    -0xf8(%rbp),%rax
  4081c1:	48 89 c7             	mov    %rax,%rdi
  4081c4:	e8 a7 a2 ff ff       	callq  402470 <free@plt>
  4081c9:	48 8b 85 10 ff ff ff 	mov    -0xf0(%rbp),%rax
  4081d0:	48 89 c7             	mov    %rax,%rdi
  4081d3:	e8 98 a2 ff ff       	callq  402470 <free@plt>
  4081d8:	48 8b 85 18 ff ff ff 	mov    -0xe8(%rbp),%rax
  4081df:	48 89 c7             	mov    %rax,%rdi
  4081e2:	e8 89 a2 ff ff       	callq  402470 <free@plt>
  4081e7:	0f b6 85 ef fe ff ff 	movzbl -0x111(%rbp),%eax
  4081ee:	48 8b 4d f8          	mov    -0x8(%rbp),%rcx
  4081f2:	64 48 33 0c 25 28 00 	xor    %fs:0x28,%rcx
  4081f9:	00 00 
  4081fb:	74 05                	je     408202 <teavpn_tcp_client_init_iface+0x353>
  4081fd:	e8 7e a3 ff ff       	callq  402580 <__stack_chk_fail@plt>
  408202:	c9                   	leaveq 
  408203:	c3                   	retq   

0000000000408204 <__internal_debug_log>:
  408204:	f3 0f 1e fa          	endbr64 
  408208:	55                   	push   %rbp
  408209:	48 89 e5             	mov    %rsp,%rbp
  40820c:	48 81 ec b0 00 00 00 	sub    $0xb0,%rsp
  408213:	48 83 e4 f0          	and    $0xfffffffffffffff0,%rsp
  408217:	48 83 ec 50          	sub    $0x50,%rsp
  40821b:	48 89 7c 24 08       	mov    %rdi,0x8(%rsp)
  408220:	48 89 74 24 58       	mov    %rsi,0x58(%rsp)
  408225:	48 89 54 24 60       	mov    %rdx,0x60(%rsp)
  40822a:	48 89 4c 24 68       	mov    %rcx,0x68(%rsp)
  40822f:	4c 89 44 24 70       	mov    %r8,0x70(%rsp)
  408234:	4c 89 4c 24 78       	mov    %r9,0x78(%rsp)
  408239:	84 c0                	test   %al,%al
  40823b:	74 40                	je     40827d <__internal_debug_log+0x79>
  40823d:	0f 29 84 24 80 00 00 	movaps %xmm0,0x80(%rsp)
  408244:	00 
  408245:	0f 29 8c 24 90 00 00 	movaps %xmm1,0x90(%rsp)
  40824c:	00 
  40824d:	0f 29 94 24 a0 00 00 	movaps %xmm2,0xa0(%rsp)
  408254:	00 
  408255:	0f 29 9c 24 b0 00 00 	movaps %xmm3,0xb0(%rsp)
  40825c:	00 
  40825d:	0f 29 a4 24 c0 00 00 	movaps %xmm4,0xc0(%rsp)
  408264:	00 
  408265:	0f 29 ac 24 d0 00 00 	movaps %xmm5,0xd0(%rsp)
  40826c:	00 
  40826d:	0f 29 b4 24 e0 00 00 	movaps %xmm6,0xe0(%rsp)
  408274:	00 
  408275:	0f 29 bc 24 f0 00 00 	movaps %xmm7,0xf0(%rsp)
  40827c:	00 
  40827d:	64 48 8b 04 25 28 00 	mov    %fs:0x28,%rax
  408284:	00 00 
  408286:	48 89 44 24 48       	mov    %rax,0x48(%rsp)
  40828b:	31 c0                	xor    %eax,%eax
  40828d:	48 8d 44 24 18       	lea    0x18(%rsp),%rax
  408292:	48 89 c7             	mov    %rax,%rdi
  408295:	e8 66 a4 ff ff       	callq  402700 <time@plt>
  40829a:	48 8d 44 24 18       	lea    0x18(%rsp),%rax
  40829f:	48 89 c7             	mov    %rax,%rdi
  4082a2:	e8 f9 a1 ff ff       	callq  4024a0 <localtime@plt>
  4082a7:	48 89 44 24 20       	mov    %rax,0x20(%rsp)
  4082ac:	48 8b 44 24 20       	mov    0x20(%rsp),%rax
  4082b1:	48 89 c7             	mov    %rax,%rdi
  4082b4:	e8 e7 a2 ff ff       	callq  4025a0 <asctime@plt>
  4082b9:	48 89 44 24 28       	mov    %rax,0x28(%rsp)
  4082be:	48 8b 44 24 28       	mov    0x28(%rsp),%rax
  4082c3:	48 83 c0 18          	add    $0x18,%rax
  4082c7:	c6 00 00             	movb   $0x0,(%rax)
  4082ca:	c7 44 24 30 08 00 00 	movl   $0x8,0x30(%rsp)
  4082d1:	00 
  4082d2:	c7 44 24 34 30 00 00 	movl   $0x30,0x34(%rsp)
  4082d9:	00 
  4082da:	48 8d 45 10          	lea    0x10(%rbp),%rax
  4082de:	48 89 44 24 38       	mov    %rax,0x38(%rsp)
  4082e3:	48 8d 44 24 50       	lea    0x50(%rsp),%rax
  4082e8:	48 89 44 24 40       	mov    %rax,0x40(%rsp)
  4082ed:	48 8b 05 ac 4f 00 00 	mov    0x4fac(%rip),%rax        # 40d2a0 <stdout@@GLIBC_2.2.5>
  4082f4:	48 8b 54 24 28       	mov    0x28(%rsp),%rdx
  4082f9:	48 8d 35 be 1e 00 00 	lea    0x1ebe(%rip),%rsi        # 40a1be <_IO_stdin_used+0x11be>
  408300:	48 89 c7             	mov    %rax,%rdi
  408303:	b8 00 00 00 00       	mov    $0x0,%eax
  408308:	e8 b3 a3 ff ff       	callq  4026c0 <fprintf@plt>
  40830d:	48 8b 05 8c 4f 00 00 	mov    0x4f8c(%rip),%rax        # 40d2a0 <stdout@@GLIBC_2.2.5>
  408314:	48 8d 54 24 30       	lea    0x30(%rsp),%rdx
  408319:	48 8b 4c 24 08       	mov    0x8(%rsp),%rcx
  40831e:	48 89 ce             	mov    %rcx,%rsi
  408321:	48 89 c7             	mov    %rax,%rdi
  408324:	e8 b7 a4 ff ff       	callq  4027e0 <vfprintf@plt>
  408329:	48 8b 05 70 4f 00 00 	mov    0x4f70(%rip),%rax        # 40d2a0 <stdout@@GLIBC_2.2.5>
  408330:	48 89 c6             	mov    %rax,%rsi
  408333:	bf 0a 00 00 00       	mov    $0xa,%edi
  408338:	e8 13 a3 ff ff       	callq  402650 <fputc@plt>
  40833d:	48 8b 05 5c 4f 00 00 	mov    0x4f5c(%rip),%rax        # 40d2a0 <stdout@@GLIBC_2.2.5>
  408344:	48 89 c7             	mov    %rax,%rdi
  408347:	e8 04 a4 ff ff       	callq  402750 <fflush@plt>
  40834c:	b8 00 00 00 00       	mov    $0x0,%eax
  408351:	48 8b 4c 24 48       	mov    0x48(%rsp),%rcx
  408356:	64 48 33 0c 25 28 00 	xor    %fs:0x28,%rcx
  40835d:	00 00 
  40835f:	74 05                	je     408366 <__internal_debug_log+0x162>
  408361:	e8 1a a2 ff ff       	callq  402580 <__stack_chk_fail@plt>
  408366:	c9                   	leaveq 
  408367:	c3                   	retq   

0000000000408368 <tun_alloc>:
  408368:	f3 0f 1e fa          	endbr64 
  40836c:	55                   	push   %rbp
  40836d:	48 89 e5             	mov    %rsp,%rbp
  408370:	48 83 ec 50          	sub    $0x50,%rsp
  408374:	48 89 7d b8          	mov    %rdi,-0x48(%rbp)
  408378:	89 75 b4             	mov    %esi,-0x4c(%rbp)
  40837b:	64 48 8b 04 25 28 00 	mov    %fs:0x28,%rax
  408382:	00 00 
  408384:	48 89 45 f8          	mov    %rax,-0x8(%rbp)
  408388:	31 c0                	xor    %eax,%eax
  40838a:	be 02 00 00 00       	mov    $0x2,%esi
  40838f:	48 8d 3d 2f 1e 00 00 	lea    0x1e2f(%rip),%rdi        # 40a1c5 <_IO_stdin_used+0x11c5>
  408396:	b8 00 00 00 00       	mov    $0x0,%eax
  40839b:	e8 00 a4 ff ff       	callq  4027a0 <open@plt>
  4083a0:	89 45 c8             	mov    %eax,-0x38(%rbp)
  4083a3:	83 7d c8 00          	cmpl   $0x0,-0x38(%rbp)
  4083a7:	79 14                	jns    4083bd <tun_alloc+0x55>
  4083a9:	48 8d 3d 22 1e 00 00 	lea    0x1e22(%rip),%rdi        # 40a1d2 <_IO_stdin_used+0x11d2>
  4083b0:	e8 1b a4 ff ff       	callq  4027d0 <perror@plt>
  4083b5:	8b 45 c8             	mov    -0x38(%rbp),%eax
  4083b8:	e9 92 00 00 00       	jmpq   40844f <tun_alloc+0xe7>
  4083bd:	48 8d 45 d0          	lea    -0x30(%rbp),%rax
  4083c1:	ba 28 00 00 00       	mov    $0x28,%edx
  4083c6:	be 00 00 00 00       	mov    $0x0,%esi
  4083cb:	48 89 c7             	mov    %rax,%rdi
  4083ce:	e8 2d a2 ff ff       	callq  402600 <memset@plt>
  4083d3:	8b 45 b4             	mov    -0x4c(%rbp),%eax
  4083d6:	66 89 45 e0          	mov    %ax,-0x20(%rbp)
  4083da:	48 8b 45 b8          	mov    -0x48(%rbp),%rax
  4083de:	0f b6 00             	movzbl (%rax),%eax
  4083e1:	84 c0                	test   %al,%al
  4083e3:	74 18                	je     4083fd <tun_alloc+0x95>
  4083e5:	48 8b 4d b8          	mov    -0x48(%rbp),%rcx
  4083e9:	48 8d 45 d0          	lea    -0x30(%rbp),%rax
  4083ed:	ba 10 00 00 00       	mov    $0x10,%edx
  4083f2:	48 89 ce             	mov    %rcx,%rsi
  4083f5:	48 89 c7             	mov    %rax,%rdi
  4083f8:	e8 c3 a0 ff ff       	callq  4024c0 <strncpy@plt>
  4083fd:	48 8d 55 d0          	lea    -0x30(%rbp),%rdx
  408401:	8b 45 c8             	mov    -0x38(%rbp),%eax
  408404:	be ca 54 04 40       	mov    $0x400454ca,%esi
  408409:	89 c7                	mov    %eax,%edi
  40840b:	b8 00 00 00 00       	mov    $0x0,%eax
  408410:	e8 fb a1 ff ff       	callq  402610 <ioctl@plt>
  408415:	89 45 cc             	mov    %eax,-0x34(%rbp)
  408418:	83 7d cc 00          	cmpl   $0x0,-0x34(%rbp)
  40841c:	79 1b                	jns    408439 <tun_alloc+0xd1>
  40841e:	48 8d 3d c2 1d 00 00 	lea    0x1dc2(%rip),%rdi        # 40a1e7 <_IO_stdin_used+0x11e7>
  408425:	e8 a6 a3 ff ff       	callq  4027d0 <perror@plt>
  40842a:	8b 45 c8             	mov    -0x38(%rbp),%eax
  40842d:	89 c7                	mov    %eax,%edi
  40842f:	e8 fc a1 ff ff       	callq  402630 <close@plt>
  408434:	8b 45 cc             	mov    -0x34(%rbp),%eax
  408437:	eb 16                	jmp    40844f <tun_alloc+0xe7>
  408439:	48 8d 55 d0          	lea    -0x30(%rbp),%rdx
  40843d:	48 8b 45 b8          	mov    -0x48(%rbp),%rax
  408441:	48 89 d6             	mov    %rdx,%rsi
  408444:	48 89 c7             	mov    %rax,%rdi
  408447:	e8 84 a0 ff ff       	callq  4024d0 <strcpy@plt>
  40844c:	8b 45 c8             	mov    -0x38(%rbp),%eax
  40844f:	48 8b 4d f8          	mov    -0x8(%rbp),%rcx
  408453:	64 48 33 0c 25 28 00 	xor    %fs:0x28,%rcx
  40845a:	00 00 
  40845c:	74 05                	je     408463 <tun_alloc+0xfb>
  40845e:	e8 1d a1 ff ff       	callq  402580 <__stack_chk_fail@plt>
  408463:	c9                   	leaveq 
  408464:	c3                   	retq   
  408465:	66 2e 0f 1f 84 00 00 	nopw   %cs:0x0(%rax,%rax,1)
  40846c:	00 00 00 
  40846f:	90                   	nop

0000000000408470 <__libc_csu_init>:
  408470:	f3 0f 1e fa          	endbr64 
  408474:	41 57                	push   %r15
  408476:	4c 8d 3d 73 46 00 00 	lea    0x4673(%rip),%r15        # 40caf0 <__frame_dummy_init_array_entry>
  40847d:	41 56                	push   %r14
  40847f:	49 89 d6             	mov    %rdx,%r14
  408482:	41 55                	push   %r13
  408484:	49 89 f5             	mov    %rsi,%r13
  408487:	41 54                	push   %r12
  408489:	41 89 fc             	mov    %edi,%r12d
  40848c:	55                   	push   %rbp
  40848d:	48 8d 2d 64 46 00 00 	lea    0x4664(%rip),%rbp        # 40caf8 <__init_array_end>
  408494:	53                   	push   %rbx
  408495:	4c 29 fd             	sub    %r15,%rbp
  408498:	48 83 ec 08          	sub    $0x8,%rsp
  40849c:	e8 5f 9b ff ff       	callq  402000 <_init>
  4084a1:	48 c1 fd 03          	sar    $0x3,%rbp
  4084a5:	74 1f                	je     4084c6 <__libc_csu_init+0x56>
  4084a7:	31 db                	xor    %ebx,%ebx
  4084a9:	0f 1f 80 00 00 00 00 	nopl   0x0(%rax)
  4084b0:	4c 89 f2             	mov    %r14,%rdx
  4084b3:	4c 89 ee             	mov    %r13,%rsi
  4084b6:	44 89 e7             	mov    %r12d,%edi
  4084b9:	41 ff 14 df          	callq  *(%r15,%rbx,8)
  4084bd:	48 83 c3 01          	add    $0x1,%rbx
  4084c1:	48 39 dd             	cmp    %rbx,%rbp
  4084c4:	75 ea                	jne    4084b0 <__libc_csu_init+0x40>
  4084c6:	48 83 c4 08          	add    $0x8,%rsp
  4084ca:	5b                   	pop    %rbx
  4084cb:	5d                   	pop    %rbp
  4084cc:	41 5c                	pop    %r12
  4084ce:	41 5d                	pop    %r13
  4084d0:	41 5e                	pop    %r14
  4084d2:	41 5f                	pop    %r15
  4084d4:	c3                   	retq   
  4084d5:	66 66 2e 0f 1f 84 00 	data16 nopw %cs:0x0(%rax,%rax,1)
  4084dc:	00 00 00 00 

00000000004084e0 <__libc_csu_fini>:
  4084e0:	f3 0f 1e fa          	endbr64 
  4084e4:	c3                   	retq   

Disassembly of section .fini:

00000000004084e8 <_fini>:
  4084e8:	f3 0f 1e fa          	endbr64 
  4084ec:	48 83 ec 08          	sub    $0x8,%rsp
  4084f0:	48 83 c4 08          	add    $0x8,%rsp
  4084f4:	c3                   	retq   
